
build/iso/boot/kernel.elf:     file format elf32-i386


Disassembly of section .text:

00100000 <__kernel_text_section_start>:
  100000:	02 b0 ad 1b 04 00    	add    0x41bad(%eax),%dh
  100006:	00 00                	add    %al,(%eax)
  100008:	fa                   	cli    
  100009:	4f                   	dec    %edi
  10000a:	52                   	push   %edx
  10000b:	e4 00                	in     $0x0,%al
	...
  100025:	05 00 00 d0 02       	add    $0x2d00000,%eax
  10002a:	00 00                	add    %al,(%eax)
  10002c:	20 00                	and    %al,(%eax)
	...

00100030 <_start>:
  100030:	bc 98 49 12 00       	mov    $0x124998,%esp
  100035:	b8 02 b0 ad 2b       	mov    $0x2badb002,%eax
  10003a:	53                   	push   %ebx
  10003b:	50                   	push   %eax
  10003c:	e8 02 00 00 00       	call   100043 <quantum_kernel_init>

00100041 <loop>:
  100041:	eb fe                	jmp    100041 <loop>

00100043 <quantum_kernel_init>:
  100043:	55                   	push   %ebp
  100044:	89 e5                	mov    %esp,%ebp
  100046:	53                   	push   %ebx
  100047:	83 ec 14             	sub    $0x14,%esp
  10004a:	e8 b1 4f 00 00       	call   105000 <__kernel_text_section_end>
  10004f:	81 c3 b1 8f 00 00    	add    $0x8fb1,%ebx
  100055:	83 ec 0c             	sub    $0xc,%esp
  100058:	ff 75 0c             	pushl  0xc(%ebp)
  10005b:	e8 bf 0f 00 00       	call   10101f <quantum_vesa_init>
  100060:	83 c4 10             	add    $0x10,%esp
  100063:	e8 24 09 00 00       	call   10098c <quantum_print_init>
  100068:	e8 bc 28 00 00       	call   102929 <quantum_gdt_init>
  10006d:	e8 d5 28 00 00       	call   102947 <quantum_idt_init>
  100072:	83 ec 0c             	sub    $0xc,%esp
  100075:	ff 75 0c             	pushl  0xc(%ebp)
  100078:	e8 a6 2a 00 00       	call   102b23 <quantum_pmm_init>
  10007d:	83 c4 10             	add    $0x10,%esp
  100080:	e8 e0 28 00 00       	call   102965 <quantum_memory_init>
  100085:	e8 4f 29 00 00       	call   1029d9 <quantum_keyboard_init>
  10008a:	e8 a3 36 00 00       	call   103732 <quantum_mouse_init>
  10008f:	e8 2c 2b 00 00       	call   102bc0 <quantum_vfs_init>
  100094:	e8 3b 1d 00 00       	call   101dd4 <quantum_syscalls_init>
  100099:	83 ec 0c             	sub    $0xc,%esp
  10009c:	8d 83 10 c0 ff ff    	lea    -0x3ff0(%ebx),%eax
  1000a2:	50                   	push   %eax
  1000a3:	e8 3d 0b 00 00       	call   100be5 <printf>
  1000a8:	83 c4 10             	add    $0x10,%esp
  1000ab:	83 ec 0c             	sub    $0xc,%esp
  1000ae:	8d 83 28 c0 ff ff    	lea    -0x3fd8(%ebx),%eax
  1000b4:	50                   	push   %eax
  1000b5:	e8 2b 0b 00 00       	call   100be5 <printf>
  1000ba:	83 c4 10             	add    $0x10,%esp
  1000bd:	e8 18 31 00 00       	call   1031da <keyboard_getchar>
  1000c2:	88 45 f7             	mov    %al,-0x9(%ebp)
  1000c5:	80 7d f7 6b          	cmpb   $0x6b,-0x9(%ebp)
  1000c9:	75 19                	jne    1000e4 <quantum_kernel_init+0xa1>
  1000cb:	83 ec 0c             	sub    $0xc,%esp
  1000ce:	8d 83 7c c0 ff ff    	lea    -0x3f84(%ebx),%eax
  1000d4:	50                   	push   %eax
  1000d5:	e8 0b 0b 00 00       	call   100be5 <printf>
  1000da:	83 c4 10             	add    $0x10,%esp
  1000dd:	e8 1e 2b 00 00       	call   102c00 <quantum_migrate_to_kernel_mode>
  1000e2:	eb 18                	jmp    1000fc <quantum_kernel_init+0xb9>
  1000e4:	83 ec 0c             	sub    $0xc,%esp
  1000e7:	8d 83 ac c0 ff ff    	lea    -0x3f54(%ebx),%eax
  1000ed:	50                   	push   %eax
  1000ee:	e8 f2 0a 00 00       	call   100be5 <printf>
  1000f3:	83 c4 10             	add    $0x10,%esp
  1000f6:	e8 23 2b 00 00       	call   102c1e <quantum_migrate_to_userspace>
  1000fb:	90                   	nop
  1000fc:	8b 5d fc             	mov    -0x4(%ebp),%ebx
  1000ff:	c9                   	leave  
  100100:	c3                   	ret    

00100101 <userspace_initialize>:
  100101:	55                   	push   %ebp
  100102:	89 e5                	mov    %esp,%ebp
  100104:	53                   	push   %ebx
  100105:	83 ec 04             	sub    $0x4,%esp
  100108:	e8 f3 4e 00 00       	call   105000 <__kernel_text_section_end>
  10010d:	81 c3 f3 8e 00 00    	add    $0x8ef3,%ebx
  100113:	e8 f2 0f 00 00       	call   10110a <vesa_clear>
  100118:	e8 4b 08 00 00       	call   100968 <set_default_pos>
  10011d:	83 ec 0c             	sub    $0xc,%esp
  100120:	8d 83 ae c0 ff ff    	lea    -0x3f52(%ebx),%eax
  100126:	50                   	push   %eax
  100127:	e8 b9 0a 00 00       	call   100be5 <printf>
  10012c:	83 c4 10             	add    $0x10,%esp
  10012f:	e8 17 43 00 00       	call   10444b <test_syscall>
  100134:	eb fe                	jmp    100134 <userspace_initialize+0x33>

00100136 <vga_set_cursor>:
  100136:	55                   	push   %ebp
  100137:	89 e5                	mov    %esp,%ebp
  100139:	53                   	push   %ebx
  10013a:	83 ec 04             	sub    $0x4,%esp
  10013d:	e8 be 4e 00 00       	call   105000 <__kernel_text_section_end>
  100142:	81 c3 be 8e 00 00    	add    $0x8ebe,%ebx
  100148:	8b 45 08             	mov    0x8(%ebp),%eax
  10014b:	89 c2                	mov    %eax,%edx
  10014d:	c1 ea 1f             	shr    $0x1f,%edx
  100150:	01 d0                	add    %edx,%eax
  100152:	d1 f8                	sar    %eax
  100154:	89 45 08             	mov    %eax,0x8(%ebp)
  100157:	83 ec 08             	sub    $0x8,%esp
  10015a:	6a 0e                	push   $0xe
  10015c:	68 d4 03 00 00       	push   $0x3d4
  100161:	e8 12 14 00 00       	call   101578 <pio_outb>
  100166:	83 c4 10             	add    $0x10,%esp
  100169:	8b 45 08             	mov    0x8(%ebp),%eax
  10016c:	c1 f8 08             	sar    $0x8,%eax
  10016f:	0f b6 c0             	movzbl %al,%eax
  100172:	83 ec 08             	sub    $0x8,%esp
  100175:	50                   	push   %eax
  100176:	68 d5 03 00 00       	push   $0x3d5
  10017b:	e8 f8 13 00 00       	call   101578 <pio_outb>
  100180:	83 c4 10             	add    $0x10,%esp
  100183:	83 ec 08             	sub    $0x8,%esp
  100186:	6a 0f                	push   $0xf
  100188:	68 d4 03 00 00       	push   $0x3d4
  10018d:	e8 e6 13 00 00       	call   101578 <pio_outb>
  100192:	83 c4 10             	add    $0x10,%esp
  100195:	8b 45 08             	mov    0x8(%ebp),%eax
  100198:	0f b6 c0             	movzbl %al,%eax
  10019b:	83 ec 08             	sub    $0x8,%esp
  10019e:	50                   	push   %eax
  10019f:	68 d5 03 00 00       	push   $0x3d5
  1001a4:	e8 cf 13 00 00       	call   101578 <pio_outb>
  1001a9:	83 c4 10             	add    $0x10,%esp
  1001ac:	90                   	nop
  1001ad:	8b 5d fc             	mov    -0x4(%ebp),%ebx
  1001b0:	c9                   	leave  
  1001b1:	c3                   	ret    

001001b2 <vga_get_cursor>:
  1001b2:	55                   	push   %ebp
  1001b3:	89 e5                	mov    %esp,%ebp
  1001b5:	53                   	push   %ebx
  1001b6:	83 ec 14             	sub    $0x14,%esp
  1001b9:	e8 42 4e 00 00       	call   105000 <__kernel_text_section_end>
  1001be:	81 c3 42 8e 00 00    	add    $0x8e42,%ebx
  1001c4:	83 ec 08             	sub    $0x8,%esp
  1001c7:	6a 0e                	push   $0xe
  1001c9:	68 d4 03 00 00       	push   $0x3d4
  1001ce:	e8 a5 13 00 00       	call   101578 <pio_outb>
  1001d3:	83 c4 10             	add    $0x10,%esp
  1001d6:	83 ec 0c             	sub    $0xc,%esp
  1001d9:	68 d5 03 00 00       	push   $0x3d5
  1001de:	e8 0d 14 00 00       	call   1015f0 <pio_inb>
  1001e3:	83 c4 10             	add    $0x10,%esp
  1001e6:	0f b6 c0             	movzbl %al,%eax
  1001e9:	c1 e0 08             	shl    $0x8,%eax
  1001ec:	89 45 f4             	mov    %eax,-0xc(%ebp)
  1001ef:	83 ec 08             	sub    $0x8,%esp
  1001f2:	6a 0f                	push   $0xf
  1001f4:	68 d4 03 00 00       	push   $0x3d4
  1001f9:	e8 7a 13 00 00       	call   101578 <pio_outb>
  1001fe:	83 c4 10             	add    $0x10,%esp
  100201:	83 ec 0c             	sub    $0xc,%esp
  100204:	68 d5 03 00 00       	push   $0x3d5
  100209:	e8 e2 13 00 00       	call   1015f0 <pio_inb>
  10020e:	83 c4 10             	add    $0x10,%esp
  100211:	0f b6 c0             	movzbl %al,%eax
  100214:	01 45 f4             	add    %eax,-0xc(%ebp)
  100217:	8b 45 f4             	mov    -0xc(%ebp),%eax
  10021a:	01 c0                	add    %eax,%eax
  10021c:	8b 5d fc             	mov    -0x4(%ebp),%ebx
  10021f:	c9                   	leave  
  100220:	c3                   	ret    

00100221 <vga_row_from_offset>:
  100221:	55                   	push   %ebp
  100222:	89 e5                	mov    %esp,%ebp
  100224:	e8 db 4d 00 00       	call   105004 <__x86.get_pc_thunk.ax>
  100229:	05 d7 8d 00 00       	add    $0x8dd7,%eax
  10022e:	8b 4d 08             	mov    0x8(%ebp),%ecx
  100231:	ba 67 66 66 66       	mov    $0x66666667,%edx
  100236:	89 c8                	mov    %ecx,%eax
  100238:	f7 ea                	imul   %edx
  10023a:	89 d0                	mov    %edx,%eax
  10023c:	c1 f8 06             	sar    $0x6,%eax
  10023f:	c1 f9 1f             	sar    $0x1f,%ecx
  100242:	89 ca                	mov    %ecx,%edx
  100244:	29 d0                	sub    %edx,%eax
  100246:	5d                   	pop    %ebp
  100247:	c3                   	ret    

00100248 <vga_line_from_offset>:
  100248:	55                   	push   %ebp
  100249:	89 e5                	mov    %esp,%ebp
  10024b:	e8 b4 4d 00 00       	call   105004 <__x86.get_pc_thunk.ax>
  100250:	05 b0 8d 00 00       	add    $0x8db0,%eax
  100255:	8b 55 0c             	mov    0xc(%ebp),%edx
  100258:	89 d0                	mov    %edx,%eax
  10025a:	c1 e0 02             	shl    $0x2,%eax
  10025d:	01 d0                	add    %edx,%eax
  10025f:	c1 e0 04             	shl    $0x4,%eax
  100262:	89 c2                	mov    %eax,%edx
  100264:	8b 45 08             	mov    0x8(%ebp),%eax
  100267:	01 d0                	add    %edx,%eax
  100269:	01 c0                	add    %eax,%eax
  10026b:	5d                   	pop    %ebp
  10026c:	c3                   	ret    

0010026d <vga_newline>:
  10026d:	55                   	push   %ebp
  10026e:	89 e5                	mov    %esp,%ebp
  100270:	53                   	push   %ebx
  100271:	e8 8a 4d 00 00       	call   105000 <__kernel_text_section_end>
  100276:	81 c3 8a 8d 00 00    	add    $0x8d8a,%ebx
  10027c:	8b 83 c0 05 00 00    	mov    0x5c0(%ebx),%eax
  100282:	50                   	push   %eax
  100283:	e8 99 ff ff ff       	call   100221 <vga_row_from_offset>
  100288:	83 c4 04             	add    $0x4,%esp
  10028b:	83 c0 01             	add    $0x1,%eax
  10028e:	50                   	push   %eax
  10028f:	6a 00                	push   $0x0
  100291:	e8 b2 ff ff ff       	call   100248 <vga_line_from_offset>
  100296:	83 c4 08             	add    $0x8,%esp
  100299:	89 83 c0 05 00 00    	mov    %eax,0x5c0(%ebx)
  10029f:	90                   	nop
  1002a0:	8b 5d fc             	mov    -0x4(%ebp),%ebx
  1002a3:	c9                   	leave  
  1002a4:	c3                   	ret    

001002a5 <vga_tab>:
  1002a5:	55                   	push   %ebp
  1002a6:	89 e5                	mov    %esp,%ebp
  1002a8:	56                   	push   %esi
  1002a9:	53                   	push   %ebx
  1002aa:	83 ec 10             	sub    $0x10,%esp
  1002ad:	e8 4e 4d 00 00       	call   105000 <__kernel_text_section_end>
  1002b2:	81 c3 4e 8d 00 00    	add    $0x8d4e,%ebx
  1002b8:	8b 8b c0 05 00 00    	mov    0x5c0(%ebx),%ecx
  1002be:	ba 67 66 66 66       	mov    $0x66666667,%edx
  1002c3:	89 c8                	mov    %ecx,%eax
  1002c5:	f7 ea                	imul   %edx
  1002c7:	89 d0                	mov    %edx,%eax
  1002c9:	c1 f8 05             	sar    $0x5,%eax
  1002cc:	89 ce                	mov    %ecx,%esi
  1002ce:	c1 fe 1f             	sar    $0x1f,%esi
  1002d1:	29 f0                	sub    %esi,%eax
  1002d3:	89 c2                	mov    %eax,%edx
  1002d5:	89 d0                	mov    %edx,%eax
  1002d7:	c1 e0 02             	shl    $0x2,%eax
  1002da:	01 d0                	add    %edx,%eax
  1002dc:	c1 e0 04             	shl    $0x4,%eax
  1002df:	29 c1                	sub    %eax,%ecx
  1002e1:	89 ca                	mov    %ecx,%edx
  1002e3:	b8 a0 00 00 00       	mov    $0xa0,%eax
  1002e8:	29 d0                	sub    %edx,%eax
  1002ea:	89 45 f4             	mov    %eax,-0xc(%ebp)
  1002ed:	83 7d f4 03          	cmpl   $0x3,-0xc(%ebp)
  1002f1:	7f 23                	jg     100316 <vga_tab+0x71>
  1002f3:	b8 04 00 00 00       	mov    $0x4,%eax
  1002f8:	2b 45 f4             	sub    -0xc(%ebp),%eax
  1002fb:	89 45 f0             	mov    %eax,-0x10(%ebp)
  1002fe:	e8 6a ff ff ff       	call   10026d <vga_newline>
  100303:	8b 93 c0 05 00 00    	mov    0x5c0(%ebx),%edx
  100309:	8b 45 f0             	mov    -0x10(%ebp),%eax
  10030c:	01 d0                	add    %edx,%eax
  10030e:	89 83 c0 05 00 00    	mov    %eax,0x5c0(%ebx)
  100314:	eb 0f                	jmp    100325 <vga_tab+0x80>
  100316:	8b 83 c0 05 00 00    	mov    0x5c0(%ebx),%eax
  10031c:	83 c0 04             	add    $0x4,%eax
  10031f:	89 83 c0 05 00 00    	mov    %eax,0x5c0(%ebx)
  100325:	83 c4 10             	add    $0x10,%esp
  100328:	5b                   	pop    %ebx
  100329:	5e                   	pop    %esi
  10032a:	5d                   	pop    %ebp
  10032b:	c3                   	ret    

0010032c <vga_putchar>:
  10032c:	55                   	push   %ebp
  10032d:	89 e5                	mov    %esp,%ebp
  10032f:	53                   	push   %ebx
  100330:	83 ec 14             	sub    $0x14,%esp
  100333:	e8 c8 4c 00 00       	call   105000 <__kernel_text_section_end>
  100338:	81 c3 c8 8c 00 00    	add    $0x8cc8,%ebx
  10033e:	8b 55 08             	mov    0x8(%ebp),%edx
  100341:	8b 45 0c             	mov    0xc(%ebp),%eax
  100344:	88 55 f4             	mov    %dl,-0xc(%ebp)
  100347:	66 89 45 f0          	mov    %ax,-0x10(%ebp)
  10034b:	80 7d f4 00          	cmpb   $0x0,-0xc(%ebp)
  10034f:	74 68                	je     1003b9 <vga_putchar+0x8d>
  100351:	8b 83 c0 05 00 00    	mov    0x5c0(%ebx),%eax
  100357:	3d 9f 0f 00 00       	cmp    $0xf9f,%eax
  10035c:	7e 05                	jle    100363 <vga_putchar+0x37>
  10035e:	e8 5c 00 00 00       	call   1003bf <vga_clear>
  100363:	80 7d f4 0a          	cmpb   $0xa,-0xc(%ebp)
  100367:	75 07                	jne    100370 <vga_putchar+0x44>
  100369:	e8 ff fe ff ff       	call   10026d <vga_newline>
  10036e:	eb 4a                	jmp    1003ba <vga_putchar+0x8e>
  100370:	80 7d f4 09          	cmpb   $0x9,-0xc(%ebp)
  100374:	75 07                	jne    10037d <vga_putchar+0x51>
  100376:	e8 2a ff ff ff       	call   1002a5 <vga_tab>
  10037b:	eb 3d                	jmp    1003ba <vga_putchar+0x8e>
  10037d:	8b 93 00 e1 ff ff    	mov    -0x1f00(%ebx),%edx
  100383:	8b 83 c0 05 00 00    	mov    0x5c0(%ebx),%eax
  100389:	01 c2                	add    %eax,%edx
  10038b:	0f b6 45 f4          	movzbl -0xc(%ebp),%eax
  10038f:	88 02                	mov    %al,(%edx)
  100391:	8b 93 00 e1 ff ff    	mov    -0x1f00(%ebx),%edx
  100397:	8b 83 c0 05 00 00    	mov    0x5c0(%ebx),%eax
  10039d:	83 c0 01             	add    $0x1,%eax
  1003a0:	01 d0                	add    %edx,%eax
  1003a2:	0f b7 55 f0          	movzwl -0x10(%ebp),%edx
  1003a6:	88 10                	mov    %dl,(%eax)
  1003a8:	8b 83 c0 05 00 00    	mov    0x5c0(%ebx),%eax
  1003ae:	83 c0 02             	add    $0x2,%eax
  1003b1:	89 83 c0 05 00 00    	mov    %eax,0x5c0(%ebx)
  1003b7:	eb 01                	jmp    1003ba <vga_putchar+0x8e>
  1003b9:	90                   	nop
  1003ba:	8b 5d fc             	mov    -0x4(%ebp),%ebx
  1003bd:	c9                   	leave  
  1003be:	c3                   	ret    

001003bf <vga_clear>:
  1003bf:	55                   	push   %ebp
  1003c0:	89 e5                	mov    %esp,%ebp
  1003c2:	53                   	push   %ebx
  1003c3:	83 ec 14             	sub    $0x14,%esp
  1003c6:	e8 35 4c 00 00       	call   105000 <__kernel_text_section_end>
  1003cb:	81 c3 35 8c 00 00    	add    $0x8c35,%ebx
  1003d1:	c7 83 c0 05 00 00 00 	movl   $0x0,0x5c0(%ebx)
  1003d8:	00 00 00 
  1003db:	8b 83 c0 05 00 00    	mov    0x5c0(%ebx),%eax
  1003e1:	89 45 f4             	mov    %eax,-0xc(%ebp)
  1003e4:	eb 18                	jmp    1003fe <vga_clear+0x3f>
  1003e6:	83 ec 08             	sub    $0x8,%esp
  1003e9:	6a 00                	push   $0x0
  1003eb:	6a 20                	push   $0x20
  1003ed:	e8 3a ff ff ff       	call   10032c <vga_putchar>
  1003f2:	83 c4 10             	add    $0x10,%esp
  1003f5:	8b 83 c0 05 00 00    	mov    0x5c0(%ebx),%eax
  1003fb:	89 45 f4             	mov    %eax,-0xc(%ebp)
  1003fe:	81 7d f4 9f 0f 00 00 	cmpl   $0xf9f,-0xc(%ebp)
  100405:	76 df                	jbe    1003e6 <vga_clear+0x27>
  100407:	c7 83 c0 05 00 00 00 	movl   $0x0,0x5c0(%ebx)
  10040e:	00 00 00 
  100411:	90                   	nop
  100412:	8b 5d fc             	mov    -0x4(%ebp),%ebx
  100415:	c9                   	leave  
  100416:	c3                   	ret    

00100417 <vga_backspace>:
  100417:	55                   	push   %ebp
  100418:	89 e5                	mov    %esp,%ebp
  10041a:	e8 e5 4b 00 00       	call   105004 <__x86.get_pc_thunk.ax>
  10041f:	05 e1 8b 00 00       	add    $0x8be1,%eax
  100424:	8b 90 c0 05 00 00    	mov    0x5c0(%eax),%edx
  10042a:	83 ea 02             	sub    $0x2,%edx
  10042d:	89 90 c0 05 00 00    	mov    %edx,0x5c0(%eax)
  100433:	8b 88 00 e1 ff ff    	mov    -0x1f00(%eax),%ecx
  100439:	8b 90 c0 05 00 00    	mov    0x5c0(%eax),%edx
  10043f:	01 ca                	add    %ecx,%edx
  100441:	c6 02 20             	movb   $0x20,(%edx)
  100444:	8b 90 00 e1 ff ff    	mov    -0x1f00(%eax),%edx
  10044a:	8b 80 c0 05 00 00    	mov    0x5c0(%eax),%eax
  100450:	83 c0 01             	add    $0x1,%eax
  100453:	01 d0                	add    %edx,%eax
  100455:	c6 00 00             	movb   $0x0,(%eax)
  100458:	90                   	nop
  100459:	5d                   	pop    %ebp
  10045a:	c3                   	ret    

0010045b <strlen>:
  10045b:	55                   	push   %ebp
  10045c:	89 e5                	mov    %esp,%ebp
  10045e:	83 ec 10             	sub    $0x10,%esp
  100461:	e8 9e 4b 00 00       	call   105004 <__x86.get_pc_thunk.ax>
  100466:	05 9a 8b 00 00       	add    $0x8b9a,%eax
  10046b:	c7 45 fc 00 00 00 00 	movl   $0x0,-0x4(%ebp)
  100472:	eb 04                	jmp    100478 <strlen+0x1d>
  100474:	83 45 fc 01          	addl   $0x1,-0x4(%ebp)
  100478:	8b 55 fc             	mov    -0x4(%ebp),%edx
  10047b:	8b 45 08             	mov    0x8(%ebp),%eax
  10047e:	01 d0                	add    %edx,%eax
  100480:	0f b6 00             	movzbl (%eax),%eax
  100483:	84 c0                	test   %al,%al
  100485:	75 ed                	jne    100474 <strlen+0x19>
  100487:	8b 45 fc             	mov    -0x4(%ebp),%eax
  10048a:	c9                   	leave  
  10048b:	c3                   	ret    

0010048c <to_uppercase>:
  10048c:	55                   	push   %ebp
  10048d:	89 e5                	mov    %esp,%ebp
  10048f:	83 ec 04             	sub    $0x4,%esp
  100492:	e8 6d 4b 00 00       	call   105004 <__x86.get_pc_thunk.ax>
  100497:	05 69 8b 00 00       	add    $0x8b69,%eax
  10049c:	8b 45 08             	mov    0x8(%ebp),%eax
  10049f:	88 45 fc             	mov    %al,-0x4(%ebp)
  1004a2:	0f b6 45 fc          	movzbl -0x4(%ebp),%eax
  1004a6:	83 e8 20             	sub    $0x20,%eax
  1004a9:	c9                   	leave  
  1004aa:	c3                   	ret    

001004ab <to_lowercase>:
  1004ab:	55                   	push   %ebp
  1004ac:	89 e5                	mov    %esp,%ebp
  1004ae:	83 ec 04             	sub    $0x4,%esp
  1004b1:	e8 4e 4b 00 00       	call   105004 <__x86.get_pc_thunk.ax>
  1004b6:	05 4a 8b 00 00       	add    $0x8b4a,%eax
  1004bb:	8b 45 08             	mov    0x8(%ebp),%eax
  1004be:	88 45 fc             	mov    %al,-0x4(%ebp)
  1004c1:	0f b6 45 fc          	movzbl -0x4(%ebp),%eax
  1004c5:	83 c0 20             	add    $0x20,%eax
  1004c8:	c9                   	leave  
  1004c9:	c3                   	ret    

001004ca <reverse>:
  1004ca:	55                   	push   %ebp
  1004cb:	89 e5                	mov    %esp,%ebp
  1004cd:	83 ec 10             	sub    $0x10,%esp
  1004d0:	e8 2f 4b 00 00       	call   105004 <__x86.get_pc_thunk.ax>
  1004d5:	05 2b 8b 00 00       	add    $0x8b2b,%eax
  1004da:	c7 45 fc 00 00 00 00 	movl   $0x0,-0x4(%ebp)
  1004e1:	ff 75 08             	pushl  0x8(%ebp)
  1004e4:	e8 72 ff ff ff       	call   10045b <strlen>
  1004e9:	83 c4 04             	add    $0x4,%esp
  1004ec:	83 e8 01             	sub    $0x1,%eax
  1004ef:	89 45 f8             	mov    %eax,-0x8(%ebp)
  1004f2:	eb 3b                	jmp    10052f <reverse+0x65>
  1004f4:	8b 55 fc             	mov    -0x4(%ebp),%edx
  1004f7:	8b 45 08             	mov    0x8(%ebp),%eax
  1004fa:	01 d0                	add    %edx,%eax
  1004fc:	0f b6 00             	movzbl (%eax),%eax
  1004ff:	0f be c0             	movsbl %al,%eax
  100502:	89 45 f4             	mov    %eax,-0xc(%ebp)
  100505:	8b 55 f8             	mov    -0x8(%ebp),%edx
  100508:	8b 45 08             	mov    0x8(%ebp),%eax
  10050b:	01 d0                	add    %edx,%eax
  10050d:	8b 4d fc             	mov    -0x4(%ebp),%ecx
  100510:	8b 55 08             	mov    0x8(%ebp),%edx
  100513:	01 ca                	add    %ecx,%edx
  100515:	0f b6 00             	movzbl (%eax),%eax
  100518:	88 02                	mov    %al,(%edx)
  10051a:	8b 55 f8             	mov    -0x8(%ebp),%edx
  10051d:	8b 45 08             	mov    0x8(%ebp),%eax
  100520:	01 d0                	add    %edx,%eax
  100522:	8b 55 f4             	mov    -0xc(%ebp),%edx
  100525:	88 10                	mov    %dl,(%eax)
  100527:	83 45 fc 01          	addl   $0x1,-0x4(%ebp)
  10052b:	83 6d f8 01          	subl   $0x1,-0x8(%ebp)
  10052f:	8b 45 fc             	mov    -0x4(%ebp),%eax
  100532:	3b 45 f8             	cmp    -0x8(%ebp),%eax
  100535:	7c bd                	jl     1004f4 <reverse+0x2a>
  100537:	90                   	nop
  100538:	90                   	nop
  100539:	c9                   	leave  
  10053a:	c3                   	ret    

0010053b <strcmp>:
  10053b:	55                   	push   %ebp
  10053c:	89 e5                	mov    %esp,%ebp
  10053e:	83 ec 10             	sub    $0x10,%esp
  100541:	e8 be 4a 00 00       	call   105004 <__x86.get_pc_thunk.ax>
  100546:	05 ba 8a 00 00       	add    $0x8aba,%eax
  10054b:	c7 45 fc 00 00 00 00 	movl   $0x0,-0x4(%ebp)
  100552:	eb 1e                	jmp    100572 <strcmp+0x37>
  100554:	8b 45 fc             	mov    -0x4(%ebp),%eax
  100557:	8d 50 01             	lea    0x1(%eax),%edx
  10055a:	89 55 fc             	mov    %edx,-0x4(%ebp)
  10055d:	89 c2                	mov    %eax,%edx
  10055f:	8b 45 0c             	mov    0xc(%ebp),%eax
  100562:	01 d0                	add    %edx,%eax
  100564:	0f b6 00             	movzbl (%eax),%eax
  100567:	84 c0                	test   %al,%al
  100569:	75 07                	jne    100572 <strcmp+0x37>
  10056b:	b8 00 00 00 00       	mov    $0x0,%eax
  100570:	eb 1f                	jmp    100591 <strcmp+0x56>
  100572:	8b 55 fc             	mov    -0x4(%ebp),%edx
  100575:	8b 45 08             	mov    0x8(%ebp),%eax
  100578:	01 d0                	add    %edx,%eax
  10057a:	0f b6 10             	movzbl (%eax),%edx
  10057d:	8b 4d fc             	mov    -0x4(%ebp),%ecx
  100580:	8b 45 0c             	mov    0xc(%ebp),%eax
  100583:	01 c8                	add    %ecx,%eax
  100585:	0f b6 00             	movzbl (%eax),%eax
  100588:	38 c2                	cmp    %al,%dl
  10058a:	74 c8                	je     100554 <strcmp+0x19>
  10058c:	b8 01 00 00 00       	mov    $0x1,%eax
  100591:	c9                   	leave  
  100592:	c3                   	ret    

00100593 <pop_last_str>:
  100593:	55                   	push   %ebp
  100594:	89 e5                	mov    %esp,%ebp
  100596:	83 ec 10             	sub    $0x10,%esp
  100599:	e8 66 4a 00 00       	call   105004 <__x86.get_pc_thunk.ax>
  10059e:	05 62 8a 00 00       	add    $0x8a62,%eax
  1005a3:	ff 75 08             	pushl  0x8(%ebp)
  1005a6:	e8 b0 fe ff ff       	call   10045b <strlen>
  1005ab:	83 c4 04             	add    $0x4,%esp
  1005ae:	89 45 fc             	mov    %eax,-0x4(%ebp)
  1005b1:	8b 45 fc             	mov    -0x4(%ebp),%eax
  1005b4:	8d 50 ff             	lea    -0x1(%eax),%edx
  1005b7:	8b 45 08             	mov    0x8(%ebp),%eax
  1005ba:	01 d0                	add    %edx,%eax
  1005bc:	c6 00 00             	movb   $0x0,(%eax)
  1005bf:	90                   	nop
  1005c0:	c9                   	leave  
  1005c1:	c3                   	ret    

001005c2 <append_str>:
  1005c2:	55                   	push   %ebp
  1005c3:	89 e5                	mov    %esp,%ebp
  1005c5:	83 ec 14             	sub    $0x14,%esp
  1005c8:	e8 37 4a 00 00       	call   105004 <__x86.get_pc_thunk.ax>
  1005cd:	05 33 8a 00 00       	add    $0x8a33,%eax
  1005d2:	8b 45 0c             	mov    0xc(%ebp),%eax
  1005d5:	88 45 ec             	mov    %al,-0x14(%ebp)
  1005d8:	ff 75 08             	pushl  0x8(%ebp)
  1005db:	e8 7b fe ff ff       	call   10045b <strlen>
  1005e0:	83 c4 04             	add    $0x4,%esp
  1005e3:	89 45 fc             	mov    %eax,-0x4(%ebp)
  1005e6:	8b 55 fc             	mov    -0x4(%ebp),%edx
  1005e9:	8b 45 08             	mov    0x8(%ebp),%eax
  1005ec:	01 c2                	add    %eax,%edx
  1005ee:	0f b6 45 ec          	movzbl -0x14(%ebp),%eax
  1005f2:	88 02                	mov    %al,(%edx)
  1005f4:	8b 45 fc             	mov    -0x4(%ebp),%eax
  1005f7:	8d 50 01             	lea    0x1(%eax),%edx
  1005fa:	8b 45 08             	mov    0x8(%ebp),%eax
  1005fd:	01 d0                	add    %edx,%eax
  1005ff:	c6 00 00             	movb   $0x0,(%eax)
  100602:	90                   	nop
  100603:	c9                   	leave  
  100604:	c3                   	ret    

00100605 <strcpy>:
  100605:	55                   	push   %ebp
  100606:	89 e5                	mov    %esp,%ebp
  100608:	83 ec 10             	sub    $0x10,%esp
  10060b:	e8 f4 49 00 00       	call   105004 <__x86.get_pc_thunk.ax>
  100610:	05 f0 89 00 00       	add    $0x89f0,%eax
  100615:	c7 45 fc 00 00 00 00 	movl   $0x0,-0x4(%ebp)
  10061c:	eb 19                	jmp    100637 <strcpy+0x32>
  10061e:	8b 55 fc             	mov    -0x4(%ebp),%edx
  100621:	8b 45 0c             	mov    0xc(%ebp),%eax
  100624:	01 d0                	add    %edx,%eax
  100626:	8b 4d fc             	mov    -0x4(%ebp),%ecx
  100629:	8b 55 08             	mov    0x8(%ebp),%edx
  10062c:	01 ca                	add    %ecx,%edx
  10062e:	0f b6 00             	movzbl (%eax),%eax
  100631:	88 02                	mov    %al,(%edx)
  100633:	83 45 fc 01          	addl   $0x1,-0x4(%ebp)
  100637:	8b 55 fc             	mov    -0x4(%ebp),%edx
  10063a:	8b 45 0c             	mov    0xc(%ebp),%eax
  10063d:	01 d0                	add    %edx,%eax
  10063f:	0f b6 00             	movzbl (%eax),%eax
  100642:	84 c0                	test   %al,%al
  100644:	75 d8                	jne    10061e <strcpy+0x19>
  100646:	8b 55 fc             	mov    -0x4(%ebp),%edx
  100649:	8b 45 08             	mov    0x8(%ebp),%eax
  10064c:	01 d0                	add    %edx,%eax
  10064e:	c6 00 00             	movb   $0x0,(%eax)
  100651:	8b 45 08             	mov    0x8(%ebp),%eax
  100654:	c9                   	leave  
  100655:	c3                   	ret    

00100656 <is_delim>:
  100656:	55                   	push   %ebp
  100657:	89 e5                	mov    %esp,%ebp
  100659:	83 ec 04             	sub    $0x4,%esp
  10065c:	e8 a3 49 00 00       	call   105004 <__x86.get_pc_thunk.ax>
  100661:	05 9f 89 00 00       	add    $0x899f,%eax
  100666:	8b 45 08             	mov    0x8(%ebp),%eax
  100669:	88 45 fc             	mov    %al,-0x4(%ebp)
  10066c:	eb 16                	jmp    100684 <is_delim+0x2e>
  10066e:	8b 45 0c             	mov    0xc(%ebp),%eax
  100671:	0f b6 00             	movzbl (%eax),%eax
  100674:	38 45 fc             	cmp    %al,-0x4(%ebp)
  100677:	75 07                	jne    100680 <is_delim+0x2a>
  100679:	b8 01 00 00 00       	mov    $0x1,%eax
  10067e:	eb 13                	jmp    100693 <is_delim+0x3d>
  100680:	83 45 0c 01          	addl   $0x1,0xc(%ebp)
  100684:	8b 45 0c             	mov    0xc(%ebp),%eax
  100687:	0f b6 00             	movzbl (%eax),%eax
  10068a:	84 c0                	test   %al,%al
  10068c:	75 e0                	jne    10066e <is_delim+0x18>
  10068e:	b8 00 00 00 00       	mov    $0x0,%eax
  100693:	c9                   	leave  
  100694:	c3                   	ret    

00100695 <strtok>:
  100695:	55                   	push   %ebp
  100696:	89 e5                	mov    %esp,%ebp
  100698:	53                   	push   %ebx
  100699:	83 ec 10             	sub    $0x10,%esp
  10069c:	e8 5f 49 00 00       	call   105000 <__kernel_text_section_end>
  1006a1:	81 c3 5f 89 00 00    	add    $0x895f,%ebx
  1006a7:	83 7d 08 00          	cmpl   $0x0,0x8(%ebp)
  1006ab:	75 09                	jne    1006b6 <strtok+0x21>
  1006ad:	8b 83 c4 05 00 00    	mov    0x5c4(%ebx),%eax
  1006b3:	89 45 08             	mov    %eax,0x8(%ebp)
  1006b6:	83 7d 08 00          	cmpl   $0x0,0x8(%ebp)
  1006ba:	75 0a                	jne    1006c6 <strtok+0x31>
  1006bc:	b8 00 00 00 00       	mov    $0x0,%eax
  1006c1:	e9 85 00 00 00       	jmp    10074b <strtok+0xb6>
  1006c6:	8b 45 08             	mov    0x8(%ebp),%eax
  1006c9:	0f b6 00             	movzbl (%eax),%eax
  1006cc:	0f be c0             	movsbl %al,%eax
  1006cf:	ff 75 0c             	pushl  0xc(%ebp)
  1006d2:	50                   	push   %eax
  1006d3:	e8 7e ff ff ff       	call   100656 <is_delim>
  1006d8:	83 c4 08             	add    $0x8,%esp
  1006db:	85 c0                	test   %eax,%eax
  1006dd:	74 06                	je     1006e5 <strtok+0x50>
  1006df:	83 45 08 01          	addl   $0x1,0x8(%ebp)
  1006e3:	eb e1                	jmp    1006c6 <strtok+0x31>
  1006e5:	8b 45 08             	mov    0x8(%ebp),%eax
  1006e8:	0f b6 00             	movzbl (%eax),%eax
  1006eb:	84 c0                	test   %al,%al
  1006ed:	75 07                	jne    1006f6 <strtok+0x61>
  1006ef:	b8 00 00 00 00       	mov    $0x0,%eax
  1006f4:	eb 55                	jmp    10074b <strtok+0xb6>
  1006f6:	90                   	nop
  1006f7:	8b 45 08             	mov    0x8(%ebp),%eax
  1006fa:	89 45 f8             	mov    %eax,-0x8(%ebp)
  1006fd:	8b 45 08             	mov    0x8(%ebp),%eax
  100700:	0f b6 00             	movzbl (%eax),%eax
  100703:	84 c0                	test   %al,%al
  100705:	75 0e                	jne    100715 <strtok+0x80>
  100707:	8b 45 08             	mov    0x8(%ebp),%eax
  10070a:	89 83 c4 05 00 00    	mov    %eax,0x5c4(%ebx)
  100710:	8b 45 f8             	mov    -0x8(%ebp),%eax
  100713:	eb 36                	jmp    10074b <strtok+0xb6>
  100715:	8b 45 08             	mov    0x8(%ebp),%eax
  100718:	0f b6 00             	movzbl (%eax),%eax
  10071b:	0f be c0             	movsbl %al,%eax
  10071e:	ff 75 0c             	pushl  0xc(%ebp)
  100721:	50                   	push   %eax
  100722:	e8 2f ff ff ff       	call   100656 <is_delim>
  100727:	83 c4 08             	add    $0x8,%esp
  10072a:	85 c0                	test   %eax,%eax
  10072c:	74 17                	je     100745 <strtok+0xb0>
  10072e:	8b 45 08             	mov    0x8(%ebp),%eax
  100731:	c6 00 00             	movb   $0x0,(%eax)
  100734:	8b 45 08             	mov    0x8(%ebp),%eax
  100737:	83 c0 01             	add    $0x1,%eax
  10073a:	89 83 c4 05 00 00    	mov    %eax,0x5c4(%ebx)
  100740:	8b 45 f8             	mov    -0x8(%ebp),%eax
  100743:	eb 06                	jmp    10074b <strtok+0xb6>
  100745:	83 45 08 01          	addl   $0x1,0x8(%ebp)
  100749:	eb b2                	jmp    1006fd <strtok+0x68>
  10074b:	8b 5d fc             	mov    -0x4(%ebp),%ebx
  10074e:	c9                   	leave  
  10074f:	c3                   	ret    

00100750 <strpbrk>:
  100750:	55                   	push   %ebp
  100751:	89 e5                	mov    %esp,%ebp
  100753:	83 ec 10             	sub    $0x10,%esp
  100756:	e8 a9 48 00 00       	call   105004 <__x86.get_pc_thunk.ax>
  10075b:	05 a5 88 00 00       	add    $0x88a5,%eax
  100760:	c7 45 fc 00 00 00 00 	movl   $0x0,-0x4(%ebp)
  100767:	eb 44                	jmp    1007ad <strpbrk+0x5d>
  100769:	c7 45 f8 00 00 00 00 	movl   $0x0,-0x8(%ebp)
  100770:	eb 28                	jmp    10079a <strpbrk+0x4a>
  100772:	8b 55 fc             	mov    -0x4(%ebp),%edx
  100775:	8b 45 08             	mov    0x8(%ebp),%eax
  100778:	01 d0                	add    %edx,%eax
  10077a:	0f b6 10             	movzbl (%eax),%edx
  10077d:	8b 4d f8             	mov    -0x8(%ebp),%ecx
  100780:	8b 45 0c             	mov    0xc(%ebp),%eax
  100783:	01 c8                	add    %ecx,%eax
  100785:	0f b6 00             	movzbl (%eax),%eax
  100788:	38 c2                	cmp    %al,%dl
  10078a:	75 0a                	jne    100796 <strpbrk+0x46>
  10078c:	8b 55 fc             	mov    -0x4(%ebp),%edx
  10078f:	8b 45 08             	mov    0x8(%ebp),%eax
  100792:	01 d0                	add    %edx,%eax
  100794:	eb 2b                	jmp    1007c1 <strpbrk+0x71>
  100796:	83 45 f8 01          	addl   $0x1,-0x8(%ebp)
  10079a:	8b 55 f8             	mov    -0x8(%ebp),%edx
  10079d:	8b 45 0c             	mov    0xc(%ebp),%eax
  1007a0:	01 d0                	add    %edx,%eax
  1007a2:	0f b6 00             	movzbl (%eax),%eax
  1007a5:	84 c0                	test   %al,%al
  1007a7:	75 c9                	jne    100772 <strpbrk+0x22>
  1007a9:	83 45 fc 01          	addl   $0x1,-0x4(%ebp)
  1007ad:	8b 55 fc             	mov    -0x4(%ebp),%edx
  1007b0:	8b 45 08             	mov    0x8(%ebp),%eax
  1007b3:	01 d0                	add    %edx,%eax
  1007b5:	0f b6 00             	movzbl (%eax),%eax
  1007b8:	84 c0                	test   %al,%al
  1007ba:	75 ad                	jne    100769 <strpbrk+0x19>
  1007bc:	b8 00 00 00 00       	mov    $0x0,%eax
  1007c1:	c9                   	leave  
  1007c2:	c3                   	ret    

001007c3 <strdup>:
  1007c3:	55                   	push   %ebp
  1007c4:	89 e5                	mov    %esp,%ebp
  1007c6:	53                   	push   %ebx
  1007c7:	83 ec 14             	sub    $0x14,%esp
  1007ca:	e8 31 48 00 00       	call   105000 <__kernel_text_section_end>
  1007cf:	81 c3 31 88 00 00    	add    $0x8831,%ebx
  1007d5:	ff 75 08             	pushl  0x8(%ebp)
  1007d8:	e8 7e fc ff ff       	call   10045b <strlen>
  1007dd:	83 c4 04             	add    $0x4,%esp
  1007e0:	83 c0 01             	add    $0x1,%eax
  1007e3:	83 ec 0c             	sub    $0xc,%esp
  1007e6:	50                   	push   %eax
  1007e7:	e8 1e 26 00 00       	call   102e0a <kmalloc>
  1007ec:	83 c4 10             	add    $0x10,%esp
  1007ef:	89 45 f4             	mov    %eax,-0xc(%ebp)
  1007f2:	83 ec 0c             	sub    $0xc,%esp
  1007f5:	ff 75 08             	pushl  0x8(%ebp)
  1007f8:	e8 5e fc ff ff       	call   10045b <strlen>
  1007fd:	83 c4 10             	add    $0x10,%esp
  100800:	83 c0 01             	add    $0x1,%eax
  100803:	83 ec 04             	sub    $0x4,%esp
  100806:	50                   	push   %eax
  100807:	ff 75 08             	pushl  0x8(%ebp)
  10080a:	ff 75 f4             	pushl  -0xc(%ebp)
  10080d:	e8 c0 27 00 00       	call   102fd2 <kmemcpy>
  100812:	83 c4 10             	add    $0x10,%esp
  100815:	8b 5d fc             	mov    -0x4(%ebp),%ebx
  100818:	c9                   	leave  
  100819:	c3                   	ret    

0010081a <strrchr>:
  10081a:	55                   	push   %ebp
  10081b:	89 e5                	mov    %esp,%ebp
  10081d:	83 ec 10             	sub    $0x10,%esp
  100820:	e8 df 47 00 00       	call   105004 <__x86.get_pc_thunk.ax>
  100825:	05 db 87 00 00       	add    $0x87db,%eax
  10082a:	ff 75 08             	pushl  0x8(%ebp)
  10082d:	e8 29 fc ff ff       	call   10045b <strlen>
  100832:	83 c4 04             	add    $0x4,%esp
  100835:	83 e8 01             	sub    $0x1,%eax
  100838:	89 45 fc             	mov    %eax,-0x4(%ebp)
  10083b:	eb 1f                	jmp    10085c <strrchr+0x42>
  10083d:	8b 55 fc             	mov    -0x4(%ebp),%edx
  100840:	8b 45 08             	mov    0x8(%ebp),%eax
  100843:	01 d0                	add    %edx,%eax
  100845:	0f b6 00             	movzbl (%eax),%eax
  100848:	0f be c0             	movsbl %al,%eax
  10084b:	39 45 0c             	cmp    %eax,0xc(%ebp)
  10084e:	75 08                	jne    100858 <strrchr+0x3e>
  100850:	8b 45 08             	mov    0x8(%ebp),%eax
  100853:	83 c0 01             	add    $0x1,%eax
  100856:	eb 0f                	jmp    100867 <strrchr+0x4d>
  100858:	83 6d fc 01          	subl   $0x1,-0x4(%ebp)
  10085c:	83 7d fc 00          	cmpl   $0x0,-0x4(%ebp)
  100860:	7f db                	jg     10083d <strrchr+0x23>
  100862:	b8 00 00 00 00       	mov    $0x0,%eax
  100867:	c9                   	leave  
  100868:	c3                   	ret    

00100869 <itoa>:
  100869:	55                   	push   %ebp
  10086a:	89 e5                	mov    %esp,%ebp
  10086c:	83 ec 10             	sub    $0x10,%esp
  10086f:	e8 90 47 00 00       	call   105004 <__x86.get_pc_thunk.ax>
  100874:	05 8c 87 00 00       	add    $0x878c,%eax
  100879:	c7 45 fc 00 00 00 00 	movl   $0x0,-0x4(%ebp)
  100880:	c7 45 f8 00 00 00 00 	movl   $0x0,-0x8(%ebp)
  100887:	83 7d 08 00          	cmpl   $0x0,0x8(%ebp)
  10088b:	75 23                	jne    1008b0 <itoa+0x47>
  10088d:	8b 45 fc             	mov    -0x4(%ebp),%eax
  100890:	8d 50 01             	lea    0x1(%eax),%edx
  100893:	89 55 fc             	mov    %edx,-0x4(%ebp)
  100896:	89 c2                	mov    %eax,%edx
  100898:	8b 45 0c             	mov    0xc(%ebp),%eax
  10089b:	01 d0                	add    %edx,%eax
  10089d:	c6 00 30             	movb   $0x30,(%eax)
  1008a0:	8b 55 fc             	mov    -0x4(%ebp),%edx
  1008a3:	8b 45 0c             	mov    0xc(%ebp),%eax
  1008a6:	01 d0                	add    %edx,%eax
  1008a8:	c6 00 00             	movb   $0x0,(%eax)
  1008ab:	e9 8b 00 00 00       	jmp    10093b <itoa+0xd2>
  1008b0:	83 7d 08 00          	cmpl   $0x0,0x8(%ebp)
  1008b4:	79 50                	jns    100906 <itoa+0x9d>
  1008b6:	83 7d 10 0a          	cmpl   $0xa,0x10(%ebp)
  1008ba:	75 4a                	jne    100906 <itoa+0x9d>
  1008bc:	c7 45 f8 01 00 00 00 	movl   $0x1,-0x8(%ebp)
  1008c3:	f7 5d 08             	negl   0x8(%ebp)
  1008c6:	eb 3e                	jmp    100906 <itoa+0x9d>
  1008c8:	8b 45 08             	mov    0x8(%ebp),%eax
  1008cb:	99                   	cltd   
  1008cc:	f7 7d 10             	idivl  0x10(%ebp)
  1008cf:	89 55 f4             	mov    %edx,-0xc(%ebp)
  1008d2:	83 7d f4 09          	cmpl   $0x9,-0xc(%ebp)
  1008d6:	7e 0a                	jle    1008e2 <itoa+0x79>
  1008d8:	8b 45 f4             	mov    -0xc(%ebp),%eax
  1008db:	83 c0 57             	add    $0x57,%eax
  1008de:	89 c1                	mov    %eax,%ecx
  1008e0:	eb 08                	jmp    1008ea <itoa+0x81>
  1008e2:	8b 45 f4             	mov    -0xc(%ebp),%eax
  1008e5:	83 c0 30             	add    $0x30,%eax
  1008e8:	89 c1                	mov    %eax,%ecx
  1008ea:	8b 45 fc             	mov    -0x4(%ebp),%eax
  1008ed:	8d 50 01             	lea    0x1(%eax),%edx
  1008f0:	89 55 fc             	mov    %edx,-0x4(%ebp)
  1008f3:	89 c2                	mov    %eax,%edx
  1008f5:	8b 45 0c             	mov    0xc(%ebp),%eax
  1008f8:	01 d0                	add    %edx,%eax
  1008fa:	88 08                	mov    %cl,(%eax)
  1008fc:	8b 45 08             	mov    0x8(%ebp),%eax
  1008ff:	99                   	cltd   
  100900:	f7 7d 10             	idivl  0x10(%ebp)
  100903:	89 45 08             	mov    %eax,0x8(%ebp)
  100906:	83 7d 08 00          	cmpl   $0x0,0x8(%ebp)
  10090a:	75 bc                	jne    1008c8 <itoa+0x5f>
  10090c:	83 7d f8 00          	cmpl   $0x0,-0x8(%ebp)
  100910:	74 13                	je     100925 <itoa+0xbc>
  100912:	8b 45 fc             	mov    -0x4(%ebp),%eax
  100915:	8d 50 01             	lea    0x1(%eax),%edx
  100918:	89 55 fc             	mov    %edx,-0x4(%ebp)
  10091b:	89 c2                	mov    %eax,%edx
  10091d:	8b 45 0c             	mov    0xc(%ebp),%eax
  100920:	01 d0                	add    %edx,%eax
  100922:	c6 00 2d             	movb   $0x2d,(%eax)
  100925:	8b 55 fc             	mov    -0x4(%ebp),%edx
  100928:	8b 45 0c             	mov    0xc(%ebp),%eax
  10092b:	01 d0                	add    %edx,%eax
  10092d:	c6 00 00             	movb   $0x0,(%eax)
  100930:	ff 75 0c             	pushl  0xc(%ebp)
  100933:	e8 92 fb ff ff       	call   1004ca <reverse>
  100938:	83 c4 04             	add    $0x4,%esp
  10093b:	c9                   	leave  
  10093c:	c3                   	ret    

0010093d <print_set_color>:
  10093d:	55                   	push   %ebp
  10093e:	89 e5                	mov    %esp,%ebp
  100940:	e8 bf 46 00 00       	call   105004 <__x86.get_pc_thunk.ax>
  100945:	05 bb 86 00 00       	add    $0x86bb,%eax
  10094a:	8b 55 08             	mov    0x8(%ebp),%edx
  10094d:	89 90 d0 05 00 00    	mov    %edx,0x5d0(%eax)
  100953:	8b 55 0c             	mov    0xc(%ebp),%edx
  100956:	89 90 d4 05 00 00    	mov    %edx,0x5d4(%eax)
  10095c:	8b 55 10             	mov    0x10(%ebp),%edx
  10095f:	89 90 d8 05 00 00    	mov    %edx,0x5d8(%eax)
  100965:	90                   	nop
  100966:	5d                   	pop    %ebp
  100967:	c3                   	ret    

00100968 <set_default_pos>:
  100968:	55                   	push   %ebp
  100969:	89 e5                	mov    %esp,%ebp
  10096b:	e8 94 46 00 00       	call   105004 <__x86.get_pc_thunk.ax>
  100970:	05 90 86 00 00       	add    $0x8690,%eax
  100975:	c7 80 c8 05 00 00 02 	movl   $0x2,0x5c8(%eax)
  10097c:	00 00 00 
  10097f:	c7 80 cc 05 00 00 02 	movl   $0x2,0x5cc(%eax)
  100986:	00 00 00 
  100989:	90                   	nop
  10098a:	5d                   	pop    %ebp
  10098b:	c3                   	ret    

0010098c <quantum_print_init>:
  10098c:	55                   	push   %ebp
  10098d:	89 e5                	mov    %esp,%ebp
  10098f:	53                   	push   %ebx
  100990:	83 ec 04             	sub    $0x4,%esp
  100993:	e8 6c 46 00 00       	call   105004 <__x86.get_pc_thunk.ax>
  100998:	05 68 86 00 00       	add    $0x8668,%eax
  10099d:	c7 80 c8 05 00 00 02 	movl   $0x2,0x5c8(%eax)
  1009a4:	00 00 00 
  1009a7:	c7 80 cc 05 00 00 02 	movl   $0x2,0x5cc(%eax)
  1009ae:	00 00 00 
  1009b1:	c7 80 d0 05 00 00 ff 	movl   $0xff,0x5d0(%eax)
  1009b8:	00 00 00 
  1009bb:	c7 80 d4 05 00 00 ff 	movl   $0xff,0x5d4(%eax)
  1009c2:	00 00 00 
  1009c5:	c7 80 d8 05 00 00 ff 	movl   $0xff,0x5d8(%eax)
  1009cc:	00 00 00 
  1009cf:	c7 80 dc 05 00 00 00 	movl   $0x0,0x5dc(%eax)
  1009d6:	00 00 00 
  1009d9:	c7 80 e0 05 00 00 00 	movl   $0x0,0x5e0(%eax)
  1009e0:	00 00 00 
  1009e3:	c7 80 e4 05 00 00 00 	movl   $0x0,0x5e4(%eax)
  1009ea:	00 00 00 
  1009ed:	83 ec 04             	sub    $0x4,%esp
  1009f0:	8d 90 cc c0 ff ff    	lea    -0x3f34(%eax),%edx
  1009f6:	52                   	push   %edx
  1009f7:	8d 90 e7 c0 ff ff    	lea    -0x3f19(%eax),%edx
  1009fd:	52                   	push   %edx
  1009fe:	6a 00                	push   $0x0
  100a00:	89 c3                	mov    %eax,%ebx
  100a02:	e8 6a 1e 00 00       	call   102871 <quantum_info>
  100a07:	83 c4 10             	add    $0x10,%esp
  100a0a:	90                   	nop
  100a0b:	8b 5d fc             	mov    -0x4(%ebp),%ebx
  100a0e:	c9                   	leave  
  100a0f:	c3                   	ret    

00100a10 <insert_tab>:
  100a10:	55                   	push   %ebp
  100a11:	89 e5                	mov    %esp,%ebp
  100a13:	83 ec 18             	sub    $0x18,%esp
  100a16:	e8 e9 45 00 00       	call   105004 <__x86.get_pc_thunk.ax>
  100a1b:	05 e5 85 00 00       	add    $0x85e5,%eax
  100a20:	c7 45 f4 00 00 00 00 	movl   $0x0,-0xc(%ebp)
  100a27:	eb 11                	jmp    100a3a <insert_tab+0x2a>
  100a29:	83 ec 0c             	sub    $0xc,%esp
  100a2c:	6a 20                	push   $0x20
  100a2e:	e8 df 00 00 00       	call   100b12 <putc>
  100a33:	83 c4 10             	add    $0x10,%esp
  100a36:	83 45 f4 01          	addl   $0x1,-0xc(%ebp)
  100a3a:	83 7d f4 03          	cmpl   $0x3,-0xc(%ebp)
  100a3e:	7e e9                	jle    100a29 <insert_tab+0x19>
  100a40:	90                   	nop
  100a41:	90                   	nop
  100a42:	c9                   	leave  
  100a43:	c3                   	ret    

00100a44 <insert_newline>:
  100a44:	55                   	push   %ebp
  100a45:	89 e5                	mov    %esp,%ebp
  100a47:	53                   	push   %ebx
  100a48:	83 ec 04             	sub    $0x4,%esp
  100a4b:	e8 b0 45 00 00       	call   105000 <__kernel_text_section_end>
  100a50:	81 c3 b0 85 00 00    	add    $0x85b0,%ebx
  100a56:	c7 83 c8 05 00 00 02 	movl   $0x2,0x5c8(%ebx)
  100a5d:	00 00 00 
  100a60:	8b 83 cc 05 00 00    	mov    0x5cc(%ebx),%eax
  100a66:	83 c0 16             	add    $0x16,%eax
  100a69:	89 83 cc 05 00 00    	mov    %eax,0x5cc(%ebx)
  100a6f:	8b 83 cc 05 00 00    	mov    0x5cc(%ebx),%eax
  100a75:	3d cf 02 00 00       	cmp    $0x2cf,%eax
  100a7a:	7e 0f                	jle    100a8b <insert_newline+0x47>
  100a7c:	e8 89 06 00 00       	call   10110a <vesa_clear>
  100a81:	c7 83 cc 05 00 00 00 	movl   $0x0,0x5cc(%ebx)
  100a88:	00 00 00 
  100a8b:	90                   	nop
  100a8c:	8b 5d fc             	mov    -0x4(%ebp),%ebx
  100a8f:	c9                   	leave  
  100a90:	c3                   	ret    

00100a91 <insert_backspace>:
  100a91:	55                   	push   %ebp
  100a92:	89 e5                	mov    %esp,%ebp
  100a94:	57                   	push   %edi
  100a95:	56                   	push   %esi
  100a96:	53                   	push   %ebx
  100a97:	83 ec 1c             	sub    $0x1c,%esp
  100a9a:	e8 65 45 00 00       	call   105004 <__x86.get_pc_thunk.ax>
  100a9f:	05 61 85 00 00       	add    $0x8561,%eax
  100aa4:	8b 90 c8 05 00 00    	mov    0x5c8(%eax),%edx
  100aaa:	83 ea 09             	sub    $0x9,%edx
  100aad:	89 90 c8 05 00 00    	mov    %edx,0x5c8(%eax)
  100ab3:	8b 88 e4 05 00 00    	mov    0x5e4(%eax),%ecx
  100ab9:	8b b0 e0 05 00 00    	mov    0x5e0(%eax),%esi
  100abf:	8b b8 dc 05 00 00    	mov    0x5dc(%eax),%edi
  100ac5:	89 7d e4             	mov    %edi,-0x1c(%ebp)
  100ac8:	8b 98 d8 05 00 00    	mov    0x5d8(%eax),%ebx
  100ace:	89 5d e0             	mov    %ebx,-0x20(%ebp)
  100ad1:	8b 90 d4 05 00 00    	mov    0x5d4(%eax),%edx
  100ad7:	89 55 dc             	mov    %edx,-0x24(%ebp)
  100ada:	8b b8 d0 05 00 00    	mov    0x5d0(%eax),%edi
  100ae0:	8b 98 cc 05 00 00    	mov    0x5cc(%eax),%ebx
  100ae6:	8b 90 c8 05 00 00    	mov    0x5c8(%eax),%edx
  100aec:	83 ec 0c             	sub    $0xc,%esp
  100aef:	51                   	push   %ecx
  100af0:	56                   	push   %esi
  100af1:	ff 75 e4             	pushl  -0x1c(%ebp)
  100af4:	ff 75 e0             	pushl  -0x20(%ebp)
  100af7:	ff 75 dc             	pushl  -0x24(%ebp)
  100afa:	57                   	push   %edi
  100afb:	53                   	push   %ebx
  100afc:	52                   	push   %edx
  100afd:	6a 20                	push   $0x20
  100aff:	89 c3                	mov    %eax,%ebx
  100b01:	e8 a8 09 00 00       	call   1014ae <vesa_draw_char>
  100b06:	83 c4 30             	add    $0x30,%esp
  100b09:	90                   	nop
  100b0a:	8d 65 f4             	lea    -0xc(%ebp),%esp
  100b0d:	5b                   	pop    %ebx
  100b0e:	5e                   	pop    %esi
  100b0f:	5f                   	pop    %edi
  100b10:	5d                   	pop    %ebp
  100b11:	c3                   	ret    

00100b12 <putc>:
  100b12:	55                   	push   %ebp
  100b13:	89 e5                	mov    %esp,%ebp
  100b15:	57                   	push   %edi
  100b16:	56                   	push   %esi
  100b17:	53                   	push   %ebx
  100b18:	83 ec 2c             	sub    $0x2c,%esp
  100b1b:	e8 e0 44 00 00       	call   105000 <__kernel_text_section_end>
  100b20:	81 c3 e0 84 00 00    	add    $0x84e0,%ebx
  100b26:	8b 45 08             	mov    0x8(%ebp),%eax
  100b29:	88 45 e4             	mov    %al,-0x1c(%ebp)
  100b2c:	80 7d e4 0a          	cmpb   $0xa,-0x1c(%ebp)
  100b30:	74 06                	je     100b38 <putc+0x26>
  100b32:	80 7d e4 0d          	cmpb   $0xd,-0x1c(%ebp)
  100b36:	75 0a                	jne    100b42 <putc+0x30>
  100b38:	e8 07 ff ff ff       	call   100a44 <insert_newline>
  100b3d:	e9 9a 00 00 00       	jmp    100bdc <putc+0xca>
  100b42:	80 7d e4 08          	cmpb   $0x8,-0x1c(%ebp)
  100b46:	75 0a                	jne    100b52 <putc+0x40>
  100b48:	e8 44 ff ff ff       	call   100a91 <insert_backspace>
  100b4d:	e9 8a 00 00 00       	jmp    100bdc <putc+0xca>
  100b52:	80 7d e4 09          	cmpb   $0x9,-0x1c(%ebp)
  100b56:	75 07                	jne    100b5f <putc+0x4d>
  100b58:	e8 b3 fe ff ff       	call   100a10 <insert_tab>
  100b5d:	eb 7d                	jmp    100bdc <putc+0xca>
  100b5f:	8b 93 e4 05 00 00    	mov    0x5e4(%ebx),%edx
  100b65:	8b b3 e0 05 00 00    	mov    0x5e0(%ebx),%esi
  100b6b:	8b 83 dc 05 00 00    	mov    0x5dc(%ebx),%eax
  100b71:	89 45 e0             	mov    %eax,-0x20(%ebp)
  100b74:	8b 8b d8 05 00 00    	mov    0x5d8(%ebx),%ecx
  100b7a:	89 4d dc             	mov    %ecx,-0x24(%ebp)
  100b7d:	8b bb d4 05 00 00    	mov    0x5d4(%ebx),%edi
  100b83:	89 7d d8             	mov    %edi,-0x28(%ebp)
  100b86:	8b 83 d0 05 00 00    	mov    0x5d0(%ebx),%eax
  100b8c:	89 45 d4             	mov    %eax,-0x2c(%ebp)
  100b8f:	8b bb cc 05 00 00    	mov    0x5cc(%ebx),%edi
  100b95:	8b 8b c8 05 00 00    	mov    0x5c8(%ebx),%ecx
  100b9b:	0f be 45 e4          	movsbl -0x1c(%ebp),%eax
  100b9f:	83 ec 0c             	sub    $0xc,%esp
  100ba2:	52                   	push   %edx
  100ba3:	56                   	push   %esi
  100ba4:	ff 75 e0             	pushl  -0x20(%ebp)
  100ba7:	ff 75 dc             	pushl  -0x24(%ebp)
  100baa:	ff 75 d8             	pushl  -0x28(%ebp)
  100bad:	ff 75 d4             	pushl  -0x2c(%ebp)
  100bb0:	57                   	push   %edi
  100bb1:	51                   	push   %ecx
  100bb2:	50                   	push   %eax
  100bb3:	e8 f6 08 00 00       	call   1014ae <vesa_draw_char>
  100bb8:	83 c4 30             	add    $0x30,%esp
  100bbb:	8b 83 c8 05 00 00    	mov    0x5c8(%ebx),%eax
  100bc1:	83 c0 09             	add    $0x9,%eax
  100bc4:	89 83 c8 05 00 00    	mov    %eax,0x5c8(%ebx)
  100bca:	8b 83 c8 05 00 00    	mov    0x5c8(%ebx),%eax
  100bd0:	3d ff 04 00 00       	cmp    $0x4ff,%eax
  100bd5:	7e 05                	jle    100bdc <putc+0xca>
  100bd7:	e8 68 fe ff ff       	call   100a44 <insert_newline>
  100bdc:	90                   	nop
  100bdd:	8d 65 f4             	lea    -0xc(%ebp),%esp
  100be0:	5b                   	pop    %ebx
  100be1:	5e                   	pop    %esi
  100be2:	5f                   	pop    %edi
  100be3:	5d                   	pop    %ebp
  100be4:	c3                   	ret    

00100be5 <printf>:
  100be5:	55                   	push   %ebp
  100be6:	89 e5                	mov    %esp,%ebp
  100be8:	53                   	push   %ebx
  100be9:	81 ec 24 04 00 00    	sub    $0x424,%esp
  100bef:	e8 0c 44 00 00       	call   105000 <__kernel_text_section_end>
  100bf4:	81 c3 0c 84 00 00    	add    $0x840c,%ebx
  100bfa:	8d 45 0c             	lea    0xc(%ebp),%eax
  100bfd:	89 45 d8             	mov    %eax,-0x28(%ebp)
  100c00:	c7 45 f0 00 00 00 00 	movl   $0x0,-0x10(%ebp)
  100c07:	e9 db 01 00 00       	jmp    100de7 <.L41+0x5>
  100c0c:	8b 55 f0             	mov    -0x10(%ebp),%edx
  100c0f:	8b 45 08             	mov    0x8(%ebp),%eax
  100c12:	01 d0                	add    %edx,%eax
  100c14:	0f b6 00             	movzbl (%eax),%eax
  100c17:	88 45 e7             	mov    %al,-0x19(%ebp)
  100c1a:	80 7d e7 25          	cmpb   $0x25,-0x19(%ebp)
  100c1e:	0f 85 ac 01 00 00    	jne    100dd0 <.L24+0x4a>
  100c24:	83 45 f0 01          	addl   $0x1,-0x10(%ebp)
  100c28:	8b 55 f0             	mov    -0x10(%ebp),%edx
  100c2b:	8b 45 08             	mov    0x8(%ebp),%eax
  100c2e:	01 d0                	add    %edx,%eax
  100c30:	0f b6 00             	movzbl (%eax),%eax
  100c33:	88 45 e7             	mov    %al,-0x19(%ebp)
  100c36:	0f be 45 e7          	movsbl -0x19(%ebp),%eax
  100c3a:	83 e8 25             	sub    $0x25,%eax
  100c3d:	83 f8 53             	cmp    $0x53,%eax
  100c40:	0f 87 9c 01 00 00    	ja     100de2 <.L41>
  100c46:	c1 e0 02             	shl    $0x2,%eax
  100c49:	8b 84 18 f0 c0 ff ff 	mov    -0x3f10(%eax,%ebx,1),%eax
  100c50:	01 d8                	add    %ebx,%eax
  100c52:	ff e0                	jmp    *%eax

00100c54 <.L26>:
  100c54:	83 ec 0c             	sub    $0xc,%esp
  100c57:	6a 25                	push   $0x25
  100c59:	e8 b4 fe ff ff       	call   100b12 <putc>
  100c5e:	83 c4 10             	add    $0x10,%esp
  100c61:	e9 7d 01 00 00       	jmp    100de3 <.L41+0x1>

00100c66 <.L22>:
  100c66:	8b 45 d8             	mov    -0x28(%ebp),%eax
  100c69:	8d 50 04             	lea    0x4(%eax),%edx
  100c6c:	89 55 d8             	mov    %edx,-0x28(%ebp)
  100c6f:	8b 00                	mov    (%eax),%eax
  100c71:	89 45 f4             	mov    %eax,-0xc(%ebp)
  100c74:	83 7d f4 00          	cmpl   $0x0,-0xc(%ebp)
  100c78:	79 10                	jns    100c8a <.L22+0x24>
  100c7a:	83 ec 0c             	sub    $0xc,%esp
  100c7d:	6a 2d                	push   $0x2d
  100c7f:	e8 8e fe ff ff       	call   100b12 <putc>
  100c84:	83 c4 10             	add    $0x10,%esp
  100c87:	f7 5d f4             	negl   -0xc(%ebp)
  100c8a:	80 7d e7 64          	cmpb   $0x64,-0x19(%ebp)
  100c8e:	74 12                	je     100ca2 <.L22+0x3c>
  100c90:	80 7d e7 69          	cmpb   $0x69,-0x19(%ebp)
  100c94:	74 0c                	je     100ca2 <.L22+0x3c>
  100c96:	80 7d e7 44          	cmpb   $0x44,-0x19(%ebp)
  100c9a:	74 06                	je     100ca2 <.L22+0x3c>
  100c9c:	80 7d e7 49          	cmpb   $0x49,-0x19(%ebp)
  100ca0:	75 19                	jne    100cbb <.L22+0x55>
  100ca2:	83 ec 04             	sub    $0x4,%esp
  100ca5:	6a 0a                	push   $0xa
  100ca7:	8d 85 d8 fb ff ff    	lea    -0x428(%ebp),%eax
  100cad:	50                   	push   %eax
  100cae:	ff 75 f4             	pushl  -0xc(%ebp)
  100cb1:	e8 b3 fb ff ff       	call   100869 <itoa>
  100cb6:	83 c4 10             	add    $0x10,%esp
  100cb9:	eb 54                	jmp    100d0f <.L22+0xa9>
  100cbb:	80 7d e7 6f          	cmpb   $0x6f,-0x19(%ebp)
  100cbf:	74 06                	je     100cc7 <.L22+0x61>
  100cc1:	80 7d e7 4f          	cmpb   $0x4f,-0x19(%ebp)
  100cc5:	75 19                	jne    100ce0 <.L22+0x7a>
  100cc7:	83 ec 04             	sub    $0x4,%esp
  100cca:	6a 08                	push   $0x8
  100ccc:	8d 85 d8 fb ff ff    	lea    -0x428(%ebp),%eax
  100cd2:	50                   	push   %eax
  100cd3:	ff 75 f4             	pushl  -0xc(%ebp)
  100cd6:	e8 8e fb ff ff       	call   100869 <itoa>
  100cdb:	83 c4 10             	add    $0x10,%esp
  100cde:	eb 2f                	jmp    100d0f <.L22+0xa9>
  100ce0:	80 7d e7 78          	cmpb   $0x78,-0x19(%ebp)
  100ce4:	74 12                	je     100cf8 <.L22+0x92>
  100ce6:	80 7d e7 58          	cmpb   $0x58,-0x19(%ebp)
  100cea:	74 0c                	je     100cf8 <.L22+0x92>
  100cec:	80 7d e7 68          	cmpb   $0x68,-0x19(%ebp)
  100cf0:	74 06                	je     100cf8 <.L22+0x92>
  100cf2:	80 7d e7 48          	cmpb   $0x48,-0x19(%ebp)
  100cf6:	75 17                	jne    100d0f <.L22+0xa9>
  100cf8:	83 ec 04             	sub    $0x4,%esp
  100cfb:	6a 10                	push   $0x10
  100cfd:	8d 85 d8 fb ff ff    	lea    -0x428(%ebp),%eax
  100d03:	50                   	push   %eax
  100d04:	ff 75 f4             	pushl  -0xc(%ebp)
  100d07:	e8 5d fb ff ff       	call   100869 <itoa>
  100d0c:	83 c4 10             	add    $0x10,%esp
  100d0f:	c7 45 ec 00 00 00 00 	movl   $0x0,-0x14(%ebp)
  100d16:	eb 21                	jmp    100d39 <.L22+0xd3>
  100d18:	8d 95 d8 fb ff ff    	lea    -0x428(%ebp),%edx
  100d1e:	8b 45 ec             	mov    -0x14(%ebp),%eax
  100d21:	01 d0                	add    %edx,%eax
  100d23:	0f b6 00             	movzbl (%eax),%eax
  100d26:	0f be c0             	movsbl %al,%eax
  100d29:	83 ec 0c             	sub    $0xc,%esp
  100d2c:	50                   	push   %eax
  100d2d:	e8 e0 fd ff ff       	call   100b12 <putc>
  100d32:	83 c4 10             	add    $0x10,%esp
  100d35:	83 45 ec 01          	addl   $0x1,-0x14(%ebp)
  100d39:	8d 95 d8 fb ff ff    	lea    -0x428(%ebp),%edx
  100d3f:	8b 45 ec             	mov    -0x14(%ebp),%eax
  100d42:	01 d0                	add    %edx,%eax
  100d44:	0f b6 00             	movzbl (%eax),%eax
  100d47:	84 c0                	test   %al,%al
  100d49:	75 cd                	jne    100d18 <.L22+0xb2>
  100d4b:	83 ec 04             	sub    $0x4,%esp
  100d4e:	68 00 04 00 00       	push   $0x400
  100d53:	6a 00                	push   $0x0
  100d55:	8d 85 d8 fb ff ff    	lea    -0x428(%ebp),%eax
  100d5b:	50                   	push   %eax
  100d5c:	e8 be 22 00 00       	call   10301f <kmemset>
  100d61:	83 c4 10             	add    $0x10,%esp
  100d64:	eb 7d                	jmp    100de3 <.L41+0x1>

00100d66 <.L25>:
  100d66:	8b 45 d8             	mov    -0x28(%ebp),%eax
  100d69:	8d 50 04             	lea    0x4(%eax),%edx
  100d6c:	89 55 d8             	mov    %edx,-0x28(%ebp)
  100d6f:	8b 00                	mov    (%eax),%eax
  100d71:	88 45 df             	mov    %al,-0x21(%ebp)
  100d74:	0f be 45 df          	movsbl -0x21(%ebp),%eax
  100d78:	83 ec 0c             	sub    $0xc,%esp
  100d7b:	50                   	push   %eax
  100d7c:	e8 91 fd ff ff       	call   100b12 <putc>
  100d81:	83 c4 10             	add    $0x10,%esp
  100d84:	eb 5d                	jmp    100de3 <.L41+0x1>

00100d86 <.L24>:
  100d86:	8b 45 d8             	mov    -0x28(%ebp),%eax
  100d89:	8d 50 04             	lea    0x4(%eax),%edx
  100d8c:	89 55 d8             	mov    %edx,-0x28(%ebp)
  100d8f:	8b 00                	mov    (%eax),%eax
  100d91:	89 45 e0             	mov    %eax,-0x20(%ebp)
  100d94:	c7 45 e8 00 00 00 00 	movl   $0x0,-0x18(%ebp)
  100d9b:	eb 1e                	jmp    100dbb <.L24+0x35>
  100d9d:	8b 55 e8             	mov    -0x18(%ebp),%edx
  100da0:	8b 45 e0             	mov    -0x20(%ebp),%eax
  100da3:	01 d0                	add    %edx,%eax
  100da5:	0f b6 00             	movzbl (%eax),%eax
  100da8:	0f be c0             	movsbl %al,%eax
  100dab:	83 ec 0c             	sub    $0xc,%esp
  100dae:	50                   	push   %eax
  100daf:	e8 5e fd ff ff       	call   100b12 <putc>
  100db4:	83 c4 10             	add    $0x10,%esp
  100db7:	83 45 e8 01          	addl   $0x1,-0x18(%ebp)
  100dbb:	83 ec 0c             	sub    $0xc,%esp
  100dbe:	ff 75 e0             	pushl  -0x20(%ebp)
  100dc1:	e8 95 f6 ff ff       	call   10045b <strlen>
  100dc6:	83 c4 10             	add    $0x10,%esp
  100dc9:	39 45 e8             	cmp    %eax,-0x18(%ebp)
  100dcc:	7c cf                	jl     100d9d <.L24+0x17>
  100dce:	eb 13                	jmp    100de3 <.L41+0x1>
  100dd0:	0f be 45 e7          	movsbl -0x19(%ebp),%eax
  100dd4:	83 ec 0c             	sub    $0xc,%esp
  100dd7:	50                   	push   %eax
  100dd8:	e8 35 fd ff ff       	call   100b12 <putc>
  100ddd:	83 c4 10             	add    $0x10,%esp
  100de0:	eb 01                	jmp    100de3 <.L41+0x1>

00100de2 <.L41>:
  100de2:	90                   	nop
  100de3:	83 45 f0 01          	addl   $0x1,-0x10(%ebp)
  100de7:	83 ec 0c             	sub    $0xc,%esp
  100dea:	ff 75 08             	pushl  0x8(%ebp)
  100ded:	e8 69 f6 ff ff       	call   10045b <strlen>
  100df2:	83 c4 10             	add    $0x10,%esp
  100df5:	39 45 f0             	cmp    %eax,-0x10(%ebp)
  100df8:	0f 8c 0e fe ff ff    	jl     100c0c <printf+0x27>
  100dfe:	90                   	nop
  100dff:	90                   	nop
  100e00:	8b 5d fc             	mov    -0x4(%ebp),%ebx
  100e03:	c9                   	leave  
  100e04:	c3                   	ret    

00100e05 <printf_va>:
  100e05:	55                   	push   %ebp
  100e06:	89 e5                	mov    %esp,%ebp
  100e08:	53                   	push   %ebx
  100e09:	81 ec 24 04 00 00    	sub    $0x424,%esp
  100e0f:	e8 ec 41 00 00       	call   105000 <__kernel_text_section_end>
  100e14:	81 c3 ec 81 00 00    	add    $0x81ec,%ebx
  100e1a:	c7 45 f0 00 00 00 00 	movl   $0x0,-0x10(%ebp)
  100e21:	e9 db 01 00 00       	jmp    101001 <.L65+0x5>
  100e26:	8b 55 f0             	mov    -0x10(%ebp),%edx
  100e29:	8b 45 08             	mov    0x8(%ebp),%eax
  100e2c:	01 d0                	add    %edx,%eax
  100e2e:	0f b6 00             	movzbl (%eax),%eax
  100e31:	88 45 e7             	mov    %al,-0x19(%ebp)
  100e34:	80 7d e7 25          	cmpb   $0x25,-0x19(%ebp)
  100e38:	0f 85 ac 01 00 00    	jne    100fea <.L48+0x4a>
  100e3e:	83 45 f0 01          	addl   $0x1,-0x10(%ebp)
  100e42:	8b 55 f0             	mov    -0x10(%ebp),%edx
  100e45:	8b 45 08             	mov    0x8(%ebp),%eax
  100e48:	01 d0                	add    %edx,%eax
  100e4a:	0f b6 00             	movzbl (%eax),%eax
  100e4d:	88 45 e7             	mov    %al,-0x19(%ebp)
  100e50:	0f be 45 e7          	movsbl -0x19(%ebp),%eax
  100e54:	83 e8 25             	sub    $0x25,%eax
  100e57:	83 f8 53             	cmp    $0x53,%eax
  100e5a:	0f 87 9c 01 00 00    	ja     100ffc <.L65>
  100e60:	c1 e0 02             	shl    $0x2,%eax
  100e63:	8b 84 18 40 c2 ff ff 	mov    -0x3dc0(%eax,%ebx,1),%eax
  100e6a:	01 d8                	add    %ebx,%eax
  100e6c:	ff e0                	jmp    *%eax

00100e6e <.L50>:
  100e6e:	83 ec 0c             	sub    $0xc,%esp
  100e71:	6a 25                	push   $0x25
  100e73:	e8 9a fc ff ff       	call   100b12 <putc>
  100e78:	83 c4 10             	add    $0x10,%esp
  100e7b:	e9 7d 01 00 00       	jmp    100ffd <.L65+0x1>

00100e80 <.L46>:
  100e80:	8b 45 0c             	mov    0xc(%ebp),%eax
  100e83:	8d 50 04             	lea    0x4(%eax),%edx
  100e86:	89 55 0c             	mov    %edx,0xc(%ebp)
  100e89:	8b 00                	mov    (%eax),%eax
  100e8b:	89 45 f4             	mov    %eax,-0xc(%ebp)
  100e8e:	83 7d f4 00          	cmpl   $0x0,-0xc(%ebp)
  100e92:	79 10                	jns    100ea4 <.L46+0x24>
  100e94:	83 ec 0c             	sub    $0xc,%esp
  100e97:	6a 2d                	push   $0x2d
  100e99:	e8 74 fc ff ff       	call   100b12 <putc>
  100e9e:	83 c4 10             	add    $0x10,%esp
  100ea1:	f7 5d f4             	negl   -0xc(%ebp)
  100ea4:	80 7d e7 64          	cmpb   $0x64,-0x19(%ebp)
  100ea8:	74 12                	je     100ebc <.L46+0x3c>
  100eaa:	80 7d e7 69          	cmpb   $0x69,-0x19(%ebp)
  100eae:	74 0c                	je     100ebc <.L46+0x3c>
  100eb0:	80 7d e7 44          	cmpb   $0x44,-0x19(%ebp)
  100eb4:	74 06                	je     100ebc <.L46+0x3c>
  100eb6:	80 7d e7 49          	cmpb   $0x49,-0x19(%ebp)
  100eba:	75 19                	jne    100ed5 <.L46+0x55>
  100ebc:	83 ec 04             	sub    $0x4,%esp
  100ebf:	6a 0a                	push   $0xa
  100ec1:	8d 85 df fb ff ff    	lea    -0x421(%ebp),%eax
  100ec7:	50                   	push   %eax
  100ec8:	ff 75 f4             	pushl  -0xc(%ebp)
  100ecb:	e8 99 f9 ff ff       	call   100869 <itoa>
  100ed0:	83 c4 10             	add    $0x10,%esp
  100ed3:	eb 54                	jmp    100f29 <.L46+0xa9>
  100ed5:	80 7d e7 6f          	cmpb   $0x6f,-0x19(%ebp)
  100ed9:	74 06                	je     100ee1 <.L46+0x61>
  100edb:	80 7d e7 4f          	cmpb   $0x4f,-0x19(%ebp)
  100edf:	75 19                	jne    100efa <.L46+0x7a>
  100ee1:	83 ec 04             	sub    $0x4,%esp
  100ee4:	6a 08                	push   $0x8
  100ee6:	8d 85 df fb ff ff    	lea    -0x421(%ebp),%eax
  100eec:	50                   	push   %eax
  100eed:	ff 75 f4             	pushl  -0xc(%ebp)
  100ef0:	e8 74 f9 ff ff       	call   100869 <itoa>
  100ef5:	83 c4 10             	add    $0x10,%esp
  100ef8:	eb 2f                	jmp    100f29 <.L46+0xa9>
  100efa:	80 7d e7 78          	cmpb   $0x78,-0x19(%ebp)
  100efe:	74 12                	je     100f12 <.L46+0x92>
  100f00:	80 7d e7 58          	cmpb   $0x58,-0x19(%ebp)
  100f04:	74 0c                	je     100f12 <.L46+0x92>
  100f06:	80 7d e7 68          	cmpb   $0x68,-0x19(%ebp)
  100f0a:	74 06                	je     100f12 <.L46+0x92>
  100f0c:	80 7d e7 48          	cmpb   $0x48,-0x19(%ebp)
  100f10:	75 17                	jne    100f29 <.L46+0xa9>
  100f12:	83 ec 04             	sub    $0x4,%esp
  100f15:	6a 10                	push   $0x10
  100f17:	8d 85 df fb ff ff    	lea    -0x421(%ebp),%eax
  100f1d:	50                   	push   %eax
  100f1e:	ff 75 f4             	pushl  -0xc(%ebp)
  100f21:	e8 43 f9 ff ff       	call   100869 <itoa>
  100f26:	83 c4 10             	add    $0x10,%esp
  100f29:	c7 45 ec 00 00 00 00 	movl   $0x0,-0x14(%ebp)
  100f30:	eb 21                	jmp    100f53 <.L46+0xd3>
  100f32:	8d 95 df fb ff ff    	lea    -0x421(%ebp),%edx
  100f38:	8b 45 ec             	mov    -0x14(%ebp),%eax
  100f3b:	01 d0                	add    %edx,%eax
  100f3d:	0f b6 00             	movzbl (%eax),%eax
  100f40:	0f be c0             	movsbl %al,%eax
  100f43:	83 ec 0c             	sub    $0xc,%esp
  100f46:	50                   	push   %eax
  100f47:	e8 c6 fb ff ff       	call   100b12 <putc>
  100f4c:	83 c4 10             	add    $0x10,%esp
  100f4f:	83 45 ec 01          	addl   $0x1,-0x14(%ebp)
  100f53:	8d 95 df fb ff ff    	lea    -0x421(%ebp),%edx
  100f59:	8b 45 ec             	mov    -0x14(%ebp),%eax
  100f5c:	01 d0                	add    %edx,%eax
  100f5e:	0f b6 00             	movzbl (%eax),%eax
  100f61:	84 c0                	test   %al,%al
  100f63:	75 cd                	jne    100f32 <.L46+0xb2>
  100f65:	83 ec 04             	sub    $0x4,%esp
  100f68:	68 00 04 00 00       	push   $0x400
  100f6d:	6a 00                	push   $0x0
  100f6f:	8d 85 df fb ff ff    	lea    -0x421(%ebp),%eax
  100f75:	50                   	push   %eax
  100f76:	e8 a4 20 00 00       	call   10301f <kmemset>
  100f7b:	83 c4 10             	add    $0x10,%esp
  100f7e:	eb 7d                	jmp    100ffd <.L65+0x1>

00100f80 <.L49>:
  100f80:	8b 45 0c             	mov    0xc(%ebp),%eax
  100f83:	8d 50 04             	lea    0x4(%eax),%edx
  100f86:	89 55 0c             	mov    %edx,0xc(%ebp)
  100f89:	8b 00                	mov    (%eax),%eax
  100f8b:	88 45 df             	mov    %al,-0x21(%ebp)
  100f8e:	0f be 45 df          	movsbl -0x21(%ebp),%eax
  100f92:	83 ec 0c             	sub    $0xc,%esp
  100f95:	50                   	push   %eax
  100f96:	e8 77 fb ff ff       	call   100b12 <putc>
  100f9b:	83 c4 10             	add    $0x10,%esp
  100f9e:	eb 5d                	jmp    100ffd <.L65+0x1>

00100fa0 <.L48>:
  100fa0:	8b 45 0c             	mov    0xc(%ebp),%eax
  100fa3:	8d 50 04             	lea    0x4(%eax),%edx
  100fa6:	89 55 0c             	mov    %edx,0xc(%ebp)
  100fa9:	8b 00                	mov    (%eax),%eax
  100fab:	89 45 e0             	mov    %eax,-0x20(%ebp)
  100fae:	c7 45 e8 00 00 00 00 	movl   $0x0,-0x18(%ebp)
  100fb5:	eb 1e                	jmp    100fd5 <.L48+0x35>
  100fb7:	8b 55 e8             	mov    -0x18(%ebp),%edx
  100fba:	8b 45 e0             	mov    -0x20(%ebp),%eax
  100fbd:	01 d0                	add    %edx,%eax
  100fbf:	0f b6 00             	movzbl (%eax),%eax
  100fc2:	0f be c0             	movsbl %al,%eax
  100fc5:	83 ec 0c             	sub    $0xc,%esp
  100fc8:	50                   	push   %eax
  100fc9:	e8 44 fb ff ff       	call   100b12 <putc>
  100fce:	83 c4 10             	add    $0x10,%esp
  100fd1:	83 45 e8 01          	addl   $0x1,-0x18(%ebp)
  100fd5:	83 ec 0c             	sub    $0xc,%esp
  100fd8:	ff 75 e0             	pushl  -0x20(%ebp)
  100fdb:	e8 7b f4 ff ff       	call   10045b <strlen>
  100fe0:	83 c4 10             	add    $0x10,%esp
  100fe3:	39 45 e8             	cmp    %eax,-0x18(%ebp)
  100fe6:	7c cf                	jl     100fb7 <.L48+0x17>
  100fe8:	eb 13                	jmp    100ffd <.L65+0x1>
  100fea:	0f be 45 e7          	movsbl -0x19(%ebp),%eax
  100fee:	83 ec 0c             	sub    $0xc,%esp
  100ff1:	50                   	push   %eax
  100ff2:	e8 1b fb ff ff       	call   100b12 <putc>
  100ff7:	83 c4 10             	add    $0x10,%esp
  100ffa:	eb 01                	jmp    100ffd <.L65+0x1>

00100ffc <.L65>:
  100ffc:	90                   	nop
  100ffd:	83 45 f0 01          	addl   $0x1,-0x10(%ebp)
  101001:	83 ec 0c             	sub    $0xc,%esp
  101004:	ff 75 08             	pushl  0x8(%ebp)
  101007:	e8 4f f4 ff ff       	call   10045b <strlen>
  10100c:	83 c4 10             	add    $0x10,%esp
  10100f:	39 45 f0             	cmp    %eax,-0x10(%ebp)
  101012:	0f 8c 0e fe ff ff    	jl     100e26 <printf_va+0x21>
  101018:	90                   	nop
  101019:	90                   	nop
  10101a:	8b 5d fc             	mov    -0x4(%ebp),%ebx
  10101d:	c9                   	leave  
  10101e:	c3                   	ret    

0010101f <quantum_vesa_init>:
  10101f:	55                   	push   %ebp
  101020:	89 e5                	mov    %esp,%ebp
  101022:	e8 dd 3f 00 00       	call   105004 <__x86.get_pc_thunk.ax>
  101027:	05 d9 7f 00 00       	add    $0x7fd9,%eax
  10102c:	8b 55 08             	mov    0x8(%ebp),%edx
  10102f:	89 90 e8 05 00 00    	mov    %edx,0x5e8(%eax)
  101035:	90                   	nop
  101036:	5d                   	pop    %ebp
  101037:	c3                   	ret    

00101038 <vesa_put_pixel>:
  101038:	55                   	push   %ebp
  101039:	89 e5                	mov    %esp,%ebp
  10103b:	83 ec 10             	sub    $0x10,%esp
  10103e:	e8 c1 3f 00 00       	call   105004 <__x86.get_pc_thunk.ax>
  101043:	05 bd 7f 00 00       	add    $0x7fbd,%eax
  101048:	8b 80 e8 05 00 00    	mov    0x5e8(%eax),%eax
  10104e:	89 45 fc             	mov    %eax,-0x4(%ebp)
  101051:	8b 45 fc             	mov    -0x4(%ebp),%eax
  101054:	8b 50 5c             	mov    0x5c(%eax),%edx
  101057:	8b 40 58             	mov    0x58(%eax),%eax
  10105a:	89 45 f8             	mov    %eax,-0x8(%ebp)
  10105d:	8b 45 08             	mov    0x8(%ebp),%eax
  101060:	c1 e0 02             	shl    $0x2,%eax
  101063:	89 c1                	mov    %eax,%ecx
  101065:	8b 45 fc             	mov    -0x4(%ebp),%eax
  101068:	8b 50 60             	mov    0x60(%eax),%edx
  10106b:	8b 45 0c             	mov    0xc(%ebp),%eax
  10106e:	0f af c2             	imul   %edx,%eax
  101071:	01 c8                	add    %ecx,%eax
  101073:	89 45 f4             	mov    %eax,-0xc(%ebp)
  101076:	8b 55 f8             	mov    -0x8(%ebp),%edx
  101079:	8b 45 f4             	mov    -0xc(%ebp),%eax
  10107c:	01 d0                	add    %edx,%eax
  10107e:	8b 55 18             	mov    0x18(%ebp),%edx
  101081:	88 10                	mov    %dl,(%eax)
  101083:	8b 45 f4             	mov    -0xc(%ebp),%eax
  101086:	8d 50 01             	lea    0x1(%eax),%edx
  101089:	8b 45 f8             	mov    -0x8(%ebp),%eax
  10108c:	01 d0                	add    %edx,%eax
  10108e:	8b 55 14             	mov    0x14(%ebp),%edx
  101091:	88 10                	mov    %dl,(%eax)
  101093:	8b 45 f4             	mov    -0xc(%ebp),%eax
  101096:	8d 50 02             	lea    0x2(%eax),%edx
  101099:	8b 45 f8             	mov    -0x8(%ebp),%eax
  10109c:	01 d0                	add    %edx,%eax
  10109e:	8b 55 10             	mov    0x10(%ebp),%edx
  1010a1:	88 10                	mov    %dl,(%eax)
  1010a3:	90                   	nop
  1010a4:	c9                   	leave  
  1010a5:	c3                   	ret    

001010a6 <vesa_draw_rect>:
  1010a6:	55                   	push   %ebp
  1010a7:	89 e5                	mov    %esp,%ebp
  1010a9:	83 ec 10             	sub    $0x10,%esp
  1010ac:	e8 53 3f 00 00       	call   105004 <__x86.get_pc_thunk.ax>
  1010b1:	05 4f 7f 00 00       	add    $0x7f4f,%eax
  1010b6:	c7 45 fc 00 00 00 00 	movl   $0x0,-0x4(%ebp)
  1010bd:	eb 3f                	jmp    1010fe <vesa_draw_rect+0x58>
  1010bf:	c7 45 f8 00 00 00 00 	movl   $0x0,-0x8(%ebp)
  1010c6:	eb 2a                	jmp    1010f2 <vesa_draw_rect+0x4c>
  1010c8:	8b 55 0c             	mov    0xc(%ebp),%edx
  1010cb:	8b 45 f8             	mov    -0x8(%ebp),%eax
  1010ce:	01 c2                	add    %eax,%edx
  1010d0:	8b 4d 08             	mov    0x8(%ebp),%ecx
  1010d3:	8b 45 fc             	mov    -0x4(%ebp),%eax
  1010d6:	01 c8                	add    %ecx,%eax
  1010d8:	83 ec 04             	sub    $0x4,%esp
  1010db:	ff 75 20             	pushl  0x20(%ebp)
  1010de:	ff 75 1c             	pushl  0x1c(%ebp)
  1010e1:	ff 75 18             	pushl  0x18(%ebp)
  1010e4:	52                   	push   %edx
  1010e5:	50                   	push   %eax
  1010e6:	e8 4d ff ff ff       	call   101038 <vesa_put_pixel>
  1010eb:	83 c4 18             	add    $0x18,%esp
  1010ee:	83 45 f8 01          	addl   $0x1,-0x8(%ebp)
  1010f2:	8b 45 f8             	mov    -0x8(%ebp),%eax
  1010f5:	3b 45 14             	cmp    0x14(%ebp),%eax
  1010f8:	7c ce                	jl     1010c8 <vesa_draw_rect+0x22>
  1010fa:	83 45 fc 01          	addl   $0x1,-0x4(%ebp)
  1010fe:	8b 45 fc             	mov    -0x4(%ebp),%eax
  101101:	3b 45 10             	cmp    0x10(%ebp),%eax
  101104:	7c b9                	jl     1010bf <vesa_draw_rect+0x19>
  101106:	90                   	nop
  101107:	90                   	nop
  101108:	c9                   	leave  
  101109:	c3                   	ret    

0010110a <vesa_clear>:
  10110a:	55                   	push   %ebp
  10110b:	89 e5                	mov    %esp,%ebp
  10110d:	53                   	push   %ebx
  10110e:	83 ec 14             	sub    $0x14,%esp
  101111:	e8 f2 3e 00 00       	call   105008 <__x86.get_pc_thunk.cx>
  101116:	81 c1 ea 7e 00 00    	add    $0x7eea,%ecx
  10111c:	8b 81 e8 05 00 00    	mov    0x5e8(%ecx),%eax
  101122:	89 45 f4             	mov    %eax,-0xc(%ebp)
  101125:	8b 45 f4             	mov    -0xc(%ebp),%eax
  101128:	8b 50 5c             	mov    0x5c(%eax),%edx
  10112b:	8b 40 58             	mov    0x58(%eax),%eax
  10112e:	89 45 f0             	mov    %eax,-0x10(%ebp)
  101131:	8b 45 f4             	mov    -0xc(%ebp),%eax
  101134:	8b 40 64             	mov    0x64(%eax),%eax
  101137:	8d 1c 85 00 00 00 00 	lea    0x0(,%eax,4),%ebx
  10113e:	8b 45 f4             	mov    -0xc(%ebp),%eax
  101141:	8b 50 68             	mov    0x68(%eax),%edx
  101144:	8b 45 f4             	mov    -0xc(%ebp),%eax
  101147:	8b 40 60             	mov    0x60(%eax),%eax
  10114a:	0f af c2             	imul   %edx,%eax
  10114d:	01 d8                	add    %ebx,%eax
  10114f:	83 ec 04             	sub    $0x4,%esp
  101152:	50                   	push   %eax
  101153:	6a 00                	push   $0x0
  101155:	ff 75 f0             	pushl  -0x10(%ebp)
  101158:	89 cb                	mov    %ecx,%ebx
  10115a:	e8 c0 1e 00 00       	call   10301f <kmemset>
  10115f:	83 c4 10             	add    $0x10,%esp
  101162:	90                   	nop
  101163:	8b 5d fc             	mov    -0x4(%ebp),%ebx
  101166:	c9                   	leave  
  101167:	c3                   	ret    

00101168 <vesa_draw_circle>:
  101168:	55                   	push   %ebp
  101169:	89 e5                	mov    %esp,%ebp
  10116b:	83 ec 10             	sub    $0x10,%esp
  10116e:	e8 91 3e 00 00       	call   105004 <__x86.get_pc_thunk.ax>
  101173:	05 8d 7e 00 00       	add    $0x7e8d,%eax
  101178:	c7 45 fc 00 00 00 00 	movl   $0x0,-0x4(%ebp)
  10117f:	8b 45 10             	mov    0x10(%ebp),%eax
  101182:	89 45 f8             	mov    %eax,-0x8(%ebp)
  101185:	8b 45 10             	mov    0x10(%ebp),%eax
  101188:	8d 14 00             	lea    (%eax,%eax,1),%edx
  10118b:	b8 03 00 00 00       	mov    $0x3,%eax
  101190:	29 d0                	sub    %edx,%eax
  101192:	89 45 f4             	mov    %eax,-0xc(%ebp)
  101195:	8b 55 0c             	mov    0xc(%ebp),%edx
  101198:	8b 45 f8             	mov    -0x8(%ebp),%eax
  10119b:	01 c2                	add    %eax,%edx
  10119d:	8b 4d 08             	mov    0x8(%ebp),%ecx
  1011a0:	8b 45 fc             	mov    -0x4(%ebp),%eax
  1011a3:	01 c8                	add    %ecx,%eax
  1011a5:	83 ec 04             	sub    $0x4,%esp
  1011a8:	ff 75 1c             	pushl  0x1c(%ebp)
  1011ab:	ff 75 18             	pushl  0x18(%ebp)
  1011ae:	ff 75 14             	pushl  0x14(%ebp)
  1011b1:	52                   	push   %edx
  1011b2:	50                   	push   %eax
  1011b3:	e8 80 fe ff ff       	call   101038 <vesa_put_pixel>
  1011b8:	83 c4 18             	add    $0x18,%esp
  1011bb:	8b 55 0c             	mov    0xc(%ebp),%edx
  1011be:	8b 45 f8             	mov    -0x8(%ebp),%eax
  1011c1:	01 c2                	add    %eax,%edx
  1011c3:	8b 45 08             	mov    0x8(%ebp),%eax
  1011c6:	2b 45 fc             	sub    -0x4(%ebp),%eax
  1011c9:	83 ec 04             	sub    $0x4,%esp
  1011cc:	ff 75 1c             	pushl  0x1c(%ebp)
  1011cf:	ff 75 18             	pushl  0x18(%ebp)
  1011d2:	ff 75 14             	pushl  0x14(%ebp)
  1011d5:	52                   	push   %edx
  1011d6:	50                   	push   %eax
  1011d7:	e8 5c fe ff ff       	call   101038 <vesa_put_pixel>
  1011dc:	83 c4 18             	add    $0x18,%esp
  1011df:	8b 45 0c             	mov    0xc(%ebp),%eax
  1011e2:	2b 45 f8             	sub    -0x8(%ebp),%eax
  1011e5:	8b 4d 08             	mov    0x8(%ebp),%ecx
  1011e8:	8b 55 fc             	mov    -0x4(%ebp),%edx
  1011eb:	01 ca                	add    %ecx,%edx
  1011ed:	83 ec 04             	sub    $0x4,%esp
  1011f0:	ff 75 1c             	pushl  0x1c(%ebp)
  1011f3:	ff 75 18             	pushl  0x18(%ebp)
  1011f6:	ff 75 14             	pushl  0x14(%ebp)
  1011f9:	50                   	push   %eax
  1011fa:	52                   	push   %edx
  1011fb:	e8 38 fe ff ff       	call   101038 <vesa_put_pixel>
  101200:	83 c4 18             	add    $0x18,%esp
  101203:	8b 45 0c             	mov    0xc(%ebp),%eax
  101206:	2b 45 f8             	sub    -0x8(%ebp),%eax
  101209:	89 c2                	mov    %eax,%edx
  10120b:	8b 45 08             	mov    0x8(%ebp),%eax
  10120e:	2b 45 fc             	sub    -0x4(%ebp),%eax
  101211:	83 ec 04             	sub    $0x4,%esp
  101214:	ff 75 1c             	pushl  0x1c(%ebp)
  101217:	ff 75 18             	pushl  0x18(%ebp)
  10121a:	ff 75 14             	pushl  0x14(%ebp)
  10121d:	52                   	push   %edx
  10121e:	50                   	push   %eax
  10121f:	e8 14 fe ff ff       	call   101038 <vesa_put_pixel>
  101224:	83 c4 18             	add    $0x18,%esp
  101227:	8b 55 0c             	mov    0xc(%ebp),%edx
  10122a:	8b 45 fc             	mov    -0x4(%ebp),%eax
  10122d:	01 c2                	add    %eax,%edx
  10122f:	8b 4d 08             	mov    0x8(%ebp),%ecx
  101232:	8b 45 f8             	mov    -0x8(%ebp),%eax
  101235:	01 c8                	add    %ecx,%eax
  101237:	83 ec 04             	sub    $0x4,%esp
  10123a:	ff 75 1c             	pushl  0x1c(%ebp)
  10123d:	ff 75 18             	pushl  0x18(%ebp)
  101240:	ff 75 14             	pushl  0x14(%ebp)
  101243:	52                   	push   %edx
  101244:	50                   	push   %eax
  101245:	e8 ee fd ff ff       	call   101038 <vesa_put_pixel>
  10124a:	83 c4 18             	add    $0x18,%esp
  10124d:	8b 55 0c             	mov    0xc(%ebp),%edx
  101250:	8b 45 fc             	mov    -0x4(%ebp),%eax
  101253:	01 c2                	add    %eax,%edx
  101255:	8b 45 08             	mov    0x8(%ebp),%eax
  101258:	2b 45 f8             	sub    -0x8(%ebp),%eax
  10125b:	83 ec 04             	sub    $0x4,%esp
  10125e:	ff 75 1c             	pushl  0x1c(%ebp)
  101261:	ff 75 18             	pushl  0x18(%ebp)
  101264:	ff 75 14             	pushl  0x14(%ebp)
  101267:	52                   	push   %edx
  101268:	50                   	push   %eax
  101269:	e8 ca fd ff ff       	call   101038 <vesa_put_pixel>
  10126e:	83 c4 18             	add    $0x18,%esp
  101271:	8b 45 0c             	mov    0xc(%ebp),%eax
  101274:	2b 45 fc             	sub    -0x4(%ebp),%eax
  101277:	8b 4d 08             	mov    0x8(%ebp),%ecx
  10127a:	8b 55 f8             	mov    -0x8(%ebp),%edx
  10127d:	01 ca                	add    %ecx,%edx
  10127f:	83 ec 04             	sub    $0x4,%esp
  101282:	ff 75 1c             	pushl  0x1c(%ebp)
  101285:	ff 75 18             	pushl  0x18(%ebp)
  101288:	ff 75 14             	pushl  0x14(%ebp)
  10128b:	50                   	push   %eax
  10128c:	52                   	push   %edx
  10128d:	e8 a6 fd ff ff       	call   101038 <vesa_put_pixel>
  101292:	83 c4 18             	add    $0x18,%esp
  101295:	8b 45 0c             	mov    0xc(%ebp),%eax
  101298:	2b 45 fc             	sub    -0x4(%ebp),%eax
  10129b:	89 c2                	mov    %eax,%edx
  10129d:	8b 45 08             	mov    0x8(%ebp),%eax
  1012a0:	2b 45 f8             	sub    -0x8(%ebp),%eax
  1012a3:	83 ec 04             	sub    $0x4,%esp
  1012a6:	ff 75 1c             	pushl  0x1c(%ebp)
  1012a9:	ff 75 18             	pushl  0x18(%ebp)
  1012ac:	ff 75 14             	pushl  0x14(%ebp)
  1012af:	52                   	push   %edx
  1012b0:	50                   	push   %eax
  1012b1:	e8 82 fd ff ff       	call   101038 <vesa_put_pixel>
  1012b6:	83 c4 18             	add    $0x18,%esp
  1012b9:	e9 61 01 00 00       	jmp    10141f <vesa_draw_circle+0x2b7>
  1012be:	83 45 fc 01          	addl   $0x1,-0x4(%ebp)
  1012c2:	83 7d f4 00          	cmpl   $0x0,-0xc(%ebp)
  1012c6:	7e 1e                	jle    1012e6 <vesa_draw_circle+0x17e>
  1012c8:	83 6d f8 01          	subl   $0x1,-0x8(%ebp)
  1012cc:	8b 45 fc             	mov    -0x4(%ebp),%eax
  1012cf:	2b 45 f8             	sub    -0x8(%ebp),%eax
  1012d2:	8d 14 85 00 00 00 00 	lea    0x0(,%eax,4),%edx
  1012d9:	8b 45 f4             	mov    -0xc(%ebp),%eax
  1012dc:	01 d0                	add    %edx,%eax
  1012de:	83 c0 0a             	add    $0xa,%eax
  1012e1:	89 45 f4             	mov    %eax,-0xc(%ebp)
  1012e4:	eb 15                	jmp    1012fb <vesa_draw_circle+0x193>
  1012e6:	8b 45 fc             	mov    -0x4(%ebp),%eax
  1012e9:	8d 14 85 00 00 00 00 	lea    0x0(,%eax,4),%edx
  1012f0:	8b 45 f4             	mov    -0xc(%ebp),%eax
  1012f3:	01 d0                	add    %edx,%eax
  1012f5:	83 c0 06             	add    $0x6,%eax
  1012f8:	89 45 f4             	mov    %eax,-0xc(%ebp)
  1012fb:	8b 55 0c             	mov    0xc(%ebp),%edx
  1012fe:	8b 45 f8             	mov    -0x8(%ebp),%eax
  101301:	01 c2                	add    %eax,%edx
  101303:	8b 4d 08             	mov    0x8(%ebp),%ecx
  101306:	8b 45 fc             	mov    -0x4(%ebp),%eax
  101309:	01 c8                	add    %ecx,%eax
  10130b:	83 ec 04             	sub    $0x4,%esp
  10130e:	ff 75 1c             	pushl  0x1c(%ebp)
  101311:	ff 75 18             	pushl  0x18(%ebp)
  101314:	ff 75 14             	pushl  0x14(%ebp)
  101317:	52                   	push   %edx
  101318:	50                   	push   %eax
  101319:	e8 1a fd ff ff       	call   101038 <vesa_put_pixel>
  10131e:	83 c4 18             	add    $0x18,%esp
  101321:	8b 55 0c             	mov    0xc(%ebp),%edx
  101324:	8b 45 f8             	mov    -0x8(%ebp),%eax
  101327:	01 c2                	add    %eax,%edx
  101329:	8b 45 08             	mov    0x8(%ebp),%eax
  10132c:	2b 45 fc             	sub    -0x4(%ebp),%eax
  10132f:	83 ec 04             	sub    $0x4,%esp
  101332:	ff 75 1c             	pushl  0x1c(%ebp)
  101335:	ff 75 18             	pushl  0x18(%ebp)
  101338:	ff 75 14             	pushl  0x14(%ebp)
  10133b:	52                   	push   %edx
  10133c:	50                   	push   %eax
  10133d:	e8 f6 fc ff ff       	call   101038 <vesa_put_pixel>
  101342:	83 c4 18             	add    $0x18,%esp
  101345:	8b 45 0c             	mov    0xc(%ebp),%eax
  101348:	2b 45 f8             	sub    -0x8(%ebp),%eax
  10134b:	8b 4d 08             	mov    0x8(%ebp),%ecx
  10134e:	8b 55 fc             	mov    -0x4(%ebp),%edx
  101351:	01 ca                	add    %ecx,%edx
  101353:	83 ec 04             	sub    $0x4,%esp
  101356:	ff 75 1c             	pushl  0x1c(%ebp)
  101359:	ff 75 18             	pushl  0x18(%ebp)
  10135c:	ff 75 14             	pushl  0x14(%ebp)
  10135f:	50                   	push   %eax
  101360:	52                   	push   %edx
  101361:	e8 d2 fc ff ff       	call   101038 <vesa_put_pixel>
  101366:	83 c4 18             	add    $0x18,%esp
  101369:	8b 45 0c             	mov    0xc(%ebp),%eax
  10136c:	2b 45 f8             	sub    -0x8(%ebp),%eax
  10136f:	89 c2                	mov    %eax,%edx
  101371:	8b 45 08             	mov    0x8(%ebp),%eax
  101374:	2b 45 fc             	sub    -0x4(%ebp),%eax
  101377:	83 ec 04             	sub    $0x4,%esp
  10137a:	ff 75 1c             	pushl  0x1c(%ebp)
  10137d:	ff 75 18             	pushl  0x18(%ebp)
  101380:	ff 75 14             	pushl  0x14(%ebp)
  101383:	52                   	push   %edx
  101384:	50                   	push   %eax
  101385:	e8 ae fc ff ff       	call   101038 <vesa_put_pixel>
  10138a:	83 c4 18             	add    $0x18,%esp
  10138d:	8b 55 0c             	mov    0xc(%ebp),%edx
  101390:	8b 45 fc             	mov    -0x4(%ebp),%eax
  101393:	01 c2                	add    %eax,%edx
  101395:	8b 4d 08             	mov    0x8(%ebp),%ecx
  101398:	8b 45 f8             	mov    -0x8(%ebp),%eax
  10139b:	01 c8                	add    %ecx,%eax
  10139d:	83 ec 04             	sub    $0x4,%esp
  1013a0:	ff 75 1c             	pushl  0x1c(%ebp)
  1013a3:	ff 75 18             	pushl  0x18(%ebp)
  1013a6:	ff 75 14             	pushl  0x14(%ebp)
  1013a9:	52                   	push   %edx
  1013aa:	50                   	push   %eax
  1013ab:	e8 88 fc ff ff       	call   101038 <vesa_put_pixel>
  1013b0:	83 c4 18             	add    $0x18,%esp
  1013b3:	8b 55 0c             	mov    0xc(%ebp),%edx
  1013b6:	8b 45 fc             	mov    -0x4(%ebp),%eax
  1013b9:	01 c2                	add    %eax,%edx
  1013bb:	8b 45 08             	mov    0x8(%ebp),%eax
  1013be:	2b 45 f8             	sub    -0x8(%ebp),%eax
  1013c1:	83 ec 04             	sub    $0x4,%esp
  1013c4:	ff 75 1c             	pushl  0x1c(%ebp)
  1013c7:	ff 75 18             	pushl  0x18(%ebp)
  1013ca:	ff 75 14             	pushl  0x14(%ebp)
  1013cd:	52                   	push   %edx
  1013ce:	50                   	push   %eax
  1013cf:	e8 64 fc ff ff       	call   101038 <vesa_put_pixel>
  1013d4:	83 c4 18             	add    $0x18,%esp
  1013d7:	8b 45 0c             	mov    0xc(%ebp),%eax
  1013da:	2b 45 fc             	sub    -0x4(%ebp),%eax
  1013dd:	8b 4d 08             	mov    0x8(%ebp),%ecx
  1013e0:	8b 55 f8             	mov    -0x8(%ebp),%edx
  1013e3:	01 ca                	add    %ecx,%edx
  1013e5:	83 ec 04             	sub    $0x4,%esp
  1013e8:	ff 75 1c             	pushl  0x1c(%ebp)
  1013eb:	ff 75 18             	pushl  0x18(%ebp)
  1013ee:	ff 75 14             	pushl  0x14(%ebp)
  1013f1:	50                   	push   %eax
  1013f2:	52                   	push   %edx
  1013f3:	e8 40 fc ff ff       	call   101038 <vesa_put_pixel>
  1013f8:	83 c4 18             	add    $0x18,%esp
  1013fb:	8b 45 0c             	mov    0xc(%ebp),%eax
  1013fe:	2b 45 fc             	sub    -0x4(%ebp),%eax
  101401:	89 c2                	mov    %eax,%edx
  101403:	8b 45 08             	mov    0x8(%ebp),%eax
  101406:	2b 45 f8             	sub    -0x8(%ebp),%eax
  101409:	83 ec 04             	sub    $0x4,%esp
  10140c:	ff 75 1c             	pushl  0x1c(%ebp)
  10140f:	ff 75 18             	pushl  0x18(%ebp)
  101412:	ff 75 14             	pushl  0x14(%ebp)
  101415:	52                   	push   %edx
  101416:	50                   	push   %eax
  101417:	e8 1c fc ff ff       	call   101038 <vesa_put_pixel>
  10141c:	83 c4 18             	add    $0x18,%esp
  10141f:	8b 45 f8             	mov    -0x8(%ebp),%eax
  101422:	3b 45 fc             	cmp    -0x4(%ebp),%eax
  101425:	0f 8d 93 fe ff ff    	jge    1012be <vesa_draw_circle+0x156>
  10142b:	90                   	nop
  10142c:	90                   	nop
  10142d:	c9                   	leave  
  10142e:	c3                   	ret    

0010142f <vesa_draw_line>:
  10142f:	55                   	push   %ebp
  101430:	89 e5                	mov    %esp,%ebp
  101432:	83 ec 20             	sub    $0x20,%esp
  101435:	e8 ca 3b 00 00       	call   105004 <__x86.get_pc_thunk.ax>
  10143a:	05 c6 7b 00 00       	add    $0x7bc6,%eax
  10143f:	8b 45 10             	mov    0x10(%ebp),%eax
  101442:	2b 45 08             	sub    0x8(%ebp),%eax
  101445:	89 45 f0             	mov    %eax,-0x10(%ebp)
  101448:	8b 45 14             	mov    0x14(%ebp),%eax
  10144b:	2b 45 0c             	sub    0xc(%ebp),%eax
  10144e:	89 45 ec             	mov    %eax,-0x14(%ebp)
  101451:	8b 45 ec             	mov    -0x14(%ebp),%eax
  101454:	01 c0                	add    %eax,%eax
  101456:	2b 45 f0             	sub    -0x10(%ebp),%eax
  101459:	89 45 fc             	mov    %eax,-0x4(%ebp)
  10145c:	8b 45 0c             	mov    0xc(%ebp),%eax
  10145f:	89 45 f8             	mov    %eax,-0x8(%ebp)
  101462:	8b 45 08             	mov    0x8(%ebp),%eax
  101465:	89 45 f4             	mov    %eax,-0xc(%ebp)
  101468:	eb 38                	jmp    1014a2 <vesa_draw_line+0x73>
  10146a:	83 ec 04             	sub    $0x4,%esp
  10146d:	ff 75 20             	pushl  0x20(%ebp)
  101470:	ff 75 1c             	pushl  0x1c(%ebp)
  101473:	ff 75 18             	pushl  0x18(%ebp)
  101476:	ff 75 f8             	pushl  -0x8(%ebp)
  101479:	ff 75 f4             	pushl  -0xc(%ebp)
  10147c:	e8 b7 fb ff ff       	call   101038 <vesa_put_pixel>
  101481:	83 c4 18             	add    $0x18,%esp
  101484:	83 7d fc 00          	cmpl   $0x0,-0x4(%ebp)
  101488:	7e 0c                	jle    101496 <vesa_draw_line+0x67>
  10148a:	83 45 f8 01          	addl   $0x1,-0x8(%ebp)
  10148e:	8b 45 f0             	mov    -0x10(%ebp),%eax
  101491:	01 c0                	add    %eax,%eax
  101493:	29 45 fc             	sub    %eax,-0x4(%ebp)
  101496:	8b 45 ec             	mov    -0x14(%ebp),%eax
  101499:	01 c0                	add    %eax,%eax
  10149b:	01 45 fc             	add    %eax,-0x4(%ebp)
  10149e:	83 45 f4 01          	addl   $0x1,-0xc(%ebp)
  1014a2:	8b 45 f4             	mov    -0xc(%ebp),%eax
  1014a5:	3b 45 10             	cmp    0x10(%ebp),%eax
  1014a8:	7e c0                	jle    10146a <vesa_draw_line+0x3b>
  1014aa:	90                   	nop
  1014ab:	90                   	nop
  1014ac:	c9                   	leave  
  1014ad:	c3                   	ret    

001014ae <vesa_draw_char>:
  1014ae:	55                   	push   %ebp
  1014af:	89 e5                	mov    %esp,%ebp
  1014b1:	83 ec 18             	sub    $0x18,%esp
  1014b4:	e8 4b 3b 00 00       	call   105004 <__x86.get_pc_thunk.ax>
  1014b9:	05 47 7b 00 00       	add    $0x7b47,%eax
  1014be:	8b 55 08             	mov    0x8(%ebp),%edx
  1014c1:	88 55 ec             	mov    %dl,-0x14(%ebp)
  1014c4:	0f be 55 ec          	movsbl -0x14(%ebp),%edx
  1014c8:	c1 e2 04             	shl    $0x4,%edx
  1014cb:	8d 80 20 e1 ff ff    	lea    -0x1ee0(%eax),%eax
  1014d1:	01 d0                	add    %edx,%eax
  1014d3:	89 45 f4             	mov    %eax,-0xc(%ebp)
  1014d6:	c7 45 fc 00 00 00 00 	movl   $0x0,-0x4(%ebp)
  1014dd:	e9 88 00 00 00       	jmp    10156a <vesa_draw_char+0xbc>
  1014e2:	c7 45 f8 00 00 00 00 	movl   $0x0,-0x8(%ebp)
  1014e9:	eb 75                	jmp    101560 <vesa_draw_char+0xb2>
  1014eb:	8b 55 fc             	mov    -0x4(%ebp),%edx
  1014ee:	8b 45 f4             	mov    -0xc(%ebp),%eax
  1014f1:	01 d0                	add    %edx,%eax
  1014f3:	0f b6 00             	movzbl (%eax),%eax
  1014f6:	0f b6 d0             	movzbl %al,%edx
  1014f9:	b8 08 00 00 00       	mov    $0x8,%eax
  1014fe:	2b 45 f8             	sub    -0x8(%ebp),%eax
  101501:	89 c1                	mov    %eax,%ecx
  101503:	d3 fa                	sar    %cl,%edx
  101505:	89 d0                	mov    %edx,%eax
  101507:	83 e0 01             	and    $0x1,%eax
  10150a:	85 c0                	test   %eax,%eax
  10150c:	74 28                	je     101536 <vesa_draw_char+0x88>
  10150e:	8b 55 10             	mov    0x10(%ebp),%edx
  101511:	8b 45 fc             	mov    -0x4(%ebp),%eax
  101514:	01 c2                	add    %eax,%edx
  101516:	8b 4d 0c             	mov    0xc(%ebp),%ecx
  101519:	8b 45 f8             	mov    -0x8(%ebp),%eax
  10151c:	01 c8                	add    %ecx,%eax
  10151e:	83 ec 04             	sub    $0x4,%esp
  101521:	ff 75 1c             	pushl  0x1c(%ebp)
  101524:	ff 75 18             	pushl  0x18(%ebp)
  101527:	ff 75 14             	pushl  0x14(%ebp)
  10152a:	52                   	push   %edx
  10152b:	50                   	push   %eax
  10152c:	e8 07 fb ff ff       	call   101038 <vesa_put_pixel>
  101531:	83 c4 18             	add    $0x18,%esp
  101534:	eb 26                	jmp    10155c <vesa_draw_char+0xae>
  101536:	8b 55 10             	mov    0x10(%ebp),%edx
  101539:	8b 45 fc             	mov    -0x4(%ebp),%eax
  10153c:	01 c2                	add    %eax,%edx
  10153e:	8b 4d 0c             	mov    0xc(%ebp),%ecx
  101541:	8b 45 f8             	mov    -0x8(%ebp),%eax
  101544:	01 c8                	add    %ecx,%eax
  101546:	83 ec 04             	sub    $0x4,%esp
  101549:	ff 75 28             	pushl  0x28(%ebp)
  10154c:	ff 75 24             	pushl  0x24(%ebp)
  10154f:	ff 75 20             	pushl  0x20(%ebp)
  101552:	52                   	push   %edx
  101553:	50                   	push   %eax
  101554:	e8 df fa ff ff       	call   101038 <vesa_put_pixel>
  101559:	83 c4 18             	add    $0x18,%esp
  10155c:	83 45 f8 01          	addl   $0x1,-0x8(%ebp)
  101560:	83 7d f8 07          	cmpl   $0x7,-0x8(%ebp)
  101564:	7e 85                	jle    1014eb <vesa_draw_char+0x3d>
  101566:	83 45 fc 01          	addl   $0x1,-0x4(%ebp)
  10156a:	83 7d fc 0f          	cmpl   $0xf,-0x4(%ebp)
  10156e:	0f 8e 6e ff ff ff    	jle    1014e2 <vesa_draw_char+0x34>
  101574:	90                   	nop
  101575:	90                   	nop
  101576:	c9                   	leave  
  101577:	c3                   	ret    

00101578 <pio_outb>:
  101578:	55                   	push   %ebp
  101579:	89 e5                	mov    %esp,%ebp
  10157b:	83 ec 08             	sub    $0x8,%esp
  10157e:	e8 81 3a 00 00       	call   105004 <__x86.get_pc_thunk.ax>
  101583:	05 7d 7a 00 00       	add    $0x7a7d,%eax
  101588:	8b 45 08             	mov    0x8(%ebp),%eax
  10158b:	8b 55 0c             	mov    0xc(%ebp),%edx
  10158e:	66 89 45 fc          	mov    %ax,-0x4(%ebp)
  101592:	89 d0                	mov    %edx,%eax
  101594:	88 45 f8             	mov    %al,-0x8(%ebp)
  101597:	0f b7 55 fc          	movzwl -0x4(%ebp),%edx
  10159b:	0f b6 45 f8          	movzbl -0x8(%ebp),%eax
  10159f:	ee                   	out    %al,(%dx)
  1015a0:	90                   	nop
  1015a1:	c9                   	leave  
  1015a2:	c3                   	ret    

001015a3 <pio_outs>:
  1015a3:	55                   	push   %ebp
  1015a4:	89 e5                	mov    %esp,%ebp
  1015a6:	83 ec 08             	sub    $0x8,%esp
  1015a9:	e8 56 3a 00 00       	call   105004 <__x86.get_pc_thunk.ax>
  1015ae:	05 52 7a 00 00       	add    $0x7a52,%eax
  1015b3:	8b 55 08             	mov    0x8(%ebp),%edx
  1015b6:	8b 45 0c             	mov    0xc(%ebp),%eax
  1015b9:	66 89 55 fc          	mov    %dx,-0x4(%ebp)
  1015bd:	66 89 45 f8          	mov    %ax,-0x8(%ebp)
  1015c1:	0f b7 55 fc          	movzwl -0x4(%ebp),%edx
  1015c5:	0f b7 45 f8          	movzwl -0x8(%ebp),%eax
  1015c9:	66 ef                	out    %ax,(%dx)
  1015cb:	90                   	nop
  1015cc:	c9                   	leave  
  1015cd:	c3                   	ret    

001015ce <pio_outl>:
  1015ce:	55                   	push   %ebp
  1015cf:	89 e5                	mov    %esp,%ebp
  1015d1:	83 ec 04             	sub    $0x4,%esp
  1015d4:	e8 2b 3a 00 00       	call   105004 <__x86.get_pc_thunk.ax>
  1015d9:	05 27 7a 00 00       	add    $0x7a27,%eax
  1015de:	8b 45 08             	mov    0x8(%ebp),%eax
  1015e1:	66 89 45 fc          	mov    %ax,-0x4(%ebp)
  1015e5:	0f b7 55 fc          	movzwl -0x4(%ebp),%edx
  1015e9:	8b 45 0c             	mov    0xc(%ebp),%eax
  1015ec:	ef                   	out    %eax,(%dx)
  1015ed:	90                   	nop
  1015ee:	c9                   	leave  
  1015ef:	c3                   	ret    

001015f0 <pio_inb>:
  1015f0:	55                   	push   %ebp
  1015f1:	89 e5                	mov    %esp,%ebp
  1015f3:	83 ec 14             	sub    $0x14,%esp
  1015f6:	e8 09 3a 00 00       	call   105004 <__x86.get_pc_thunk.ax>
  1015fb:	05 05 7a 00 00       	add    $0x7a05,%eax
  101600:	8b 45 08             	mov    0x8(%ebp),%eax
  101603:	66 89 45 ec          	mov    %ax,-0x14(%ebp)
  101607:	0f b7 45 ec          	movzwl -0x14(%ebp),%eax
  10160b:	89 c2                	mov    %eax,%edx
  10160d:	ec                   	in     (%dx),%al
  10160e:	88 45 ff             	mov    %al,-0x1(%ebp)
  101611:	0f b6 45 ff          	movzbl -0x1(%ebp),%eax
  101615:	c9                   	leave  
  101616:	c3                   	ret    

00101617 <pio_ins>:
  101617:	55                   	push   %ebp
  101618:	89 e5                	mov    %esp,%ebp
  10161a:	83 ec 14             	sub    $0x14,%esp
  10161d:	e8 e2 39 00 00       	call   105004 <__x86.get_pc_thunk.ax>
  101622:	05 de 79 00 00       	add    $0x79de,%eax
  101627:	8b 45 08             	mov    0x8(%ebp),%eax
  10162a:	66 89 45 ec          	mov    %ax,-0x14(%ebp)
  10162e:	0f b7 45 ec          	movzwl -0x14(%ebp),%eax
  101632:	89 c2                	mov    %eax,%edx
  101634:	66 ed                	in     (%dx),%ax
  101636:	66 89 45 fe          	mov    %ax,-0x2(%ebp)
  10163a:	0f b7 45 fe          	movzwl -0x2(%ebp),%eax
  10163e:	c9                   	leave  
  10163f:	c3                   	ret    

00101640 <pio_inl>:
  101640:	55                   	push   %ebp
  101641:	89 e5                	mov    %esp,%ebp
  101643:	83 ec 14             	sub    $0x14,%esp
  101646:	e8 b9 39 00 00       	call   105004 <__x86.get_pc_thunk.ax>
  10164b:	05 b5 79 00 00       	add    $0x79b5,%eax
  101650:	8b 45 08             	mov    0x8(%ebp),%eax
  101653:	66 89 45 ec          	mov    %ax,-0x14(%ebp)
  101657:	0f b7 45 ec          	movzwl -0x14(%ebp),%eax
  10165b:	89 c2                	mov    %eax,%edx
  10165d:	ed                   	in     (%dx),%eax
  10165e:	89 45 fc             	mov    %eax,-0x4(%ebp)
  101661:	8b 45 fc             	mov    -0x4(%ebp),%eax
  101664:	c9                   	leave  
  101665:	c3                   	ret    

00101666 <pio_sleep>:
  101666:	55                   	push   %ebp
  101667:	89 e5                	mov    %esp,%ebp
  101669:	e8 96 39 00 00       	call   105004 <__x86.get_pc_thunk.ax>
  10166e:	05 92 79 00 00       	add    $0x7992,%eax
  101673:	6a 00                	push   $0x0
  101675:	68 80 00 00 00       	push   $0x80
  10167a:	e8 f9 fe ff ff       	call   101578 <pio_outb>
  10167f:	83 c4 08             	add    $0x8,%esp
  101682:	90                   	nop
  101683:	c9                   	leave  
  101684:	c3                   	ret    

00101685 <isr_register_interrupt_handler>:
  101685:	55                   	push   %ebp
  101686:	89 e5                	mov    %esp,%ebp
  101688:	e8 77 39 00 00       	call   105004 <__x86.get_pc_thunk.ax>
  10168d:	05 73 79 00 00       	add    $0x7973,%eax
  101692:	81 7d 08 ff 00 00 00 	cmpl   $0xff,0x8(%ebp)
  101699:	7f 0d                	jg     1016a8 <isr_register_interrupt_handler+0x23>
  10169b:	8b 55 08             	mov    0x8(%ebp),%edx
  10169e:	8b 4d 0c             	mov    0xc(%ebp),%ecx
  1016a1:	89 8c 90 00 06 00 00 	mov    %ecx,0x600(%eax,%edx,4)
  1016a8:	90                   	nop
  1016a9:	5d                   	pop    %ebp
  1016aa:	c3                   	ret    

001016ab <isr_end_interrupt>:
  1016ab:	55                   	push   %ebp
  1016ac:	89 e5                	mov    %esp,%ebp
  1016ae:	53                   	push   %ebx
  1016af:	83 ec 04             	sub    $0x4,%esp
  1016b2:	e8 4d 39 00 00       	call   105004 <__x86.get_pc_thunk.ax>
  1016b7:	05 49 79 00 00       	add    $0x7949,%eax
  1016bc:	8b 55 08             	mov    0x8(%ebp),%edx
  1016bf:	0f b6 d2             	movzbl %dl,%edx
  1016c2:	83 ec 0c             	sub    $0xc,%esp
  1016c5:	52                   	push   %edx
  1016c6:	89 c3                	mov    %eax,%ebx
  1016c8:	e8 13 2d 00 00       	call   1043e0 <pic_eoi>
  1016cd:	83 c4 10             	add    $0x10,%esp
  1016d0:	90                   	nop
  1016d1:	8b 5d fc             	mov    -0x4(%ebp),%ebx
  1016d4:	c9                   	leave  
  1016d5:	c3                   	ret    

001016d6 <isr_irq_handler>:
  1016d6:	55                   	push   %ebp
  1016d7:	89 e5                	mov    %esp,%ebp
  1016d9:	53                   	push   %ebx
  1016da:	83 ec 14             	sub    $0x14,%esp
  1016dd:	e8 1e 39 00 00       	call   105000 <__kernel_text_section_end>
  1016e2:	81 c3 1e 79 00 00    	add    $0x791e,%ebx
  1016e8:	8b 45 08             	mov    0x8(%ebp),%eax
  1016eb:	8b 40 24             	mov    0x24(%eax),%eax
  1016ee:	8b 84 83 00 06 00 00 	mov    0x600(%ebx,%eax,4),%eax
  1016f5:	85 c0                	test   %eax,%eax
  1016f7:	74 1e                	je     101717 <isr_irq_handler+0x41>
  1016f9:	8b 45 08             	mov    0x8(%ebp),%eax
  1016fc:	8b 40 24             	mov    0x24(%eax),%eax
  1016ff:	8b 84 83 00 06 00 00 	mov    0x600(%ebx,%eax,4),%eax
  101706:	89 45 f4             	mov    %eax,-0xc(%ebp)
  101709:	83 ec 0c             	sub    $0xc,%esp
  10170c:	ff 75 08             	pushl  0x8(%ebp)
  10170f:	8b 45 f4             	mov    -0xc(%ebp),%eax
  101712:	ff d0                	call   *%eax
  101714:	83 c4 10             	add    $0x10,%esp
  101717:	8b 45 08             	mov    0x8(%ebp),%eax
  10171a:	8b 40 24             	mov    0x24(%eax),%eax
  10171d:	0f b6 c0             	movzbl %al,%eax
  101720:	83 ec 0c             	sub    $0xc,%esp
  101723:	50                   	push   %eax
  101724:	e8 b7 2c 00 00       	call   1043e0 <pic_eoi>
  101729:	83 c4 10             	add    $0x10,%esp
  10172c:	90                   	nop
  10172d:	8b 5d fc             	mov    -0x4(%ebp),%ebx
  101730:	c9                   	leave  
  101731:	c3                   	ret    

00101732 <isr_exception_handler>:
  101732:	55                   	push   %ebp
  101733:	89 e5                	mov    %esp,%ebp
  101735:	53                   	push   %ebx
  101736:	83 ec 14             	sub    $0x14,%esp
  101739:	e8 c2 38 00 00       	call   105000 <__kernel_text_section_end>
  10173e:	81 c3 c2 78 00 00    	add    $0x78c2,%ebx
  101744:	8b 45 2c             	mov    0x2c(%ebp),%eax
  101747:	83 f8 1f             	cmp    $0x1f,%eax
  10174a:	77 22                	ja     10176e <isr_exception_handler+0x3c>
  10174c:	8b 45 2c             	mov    0x2c(%ebp),%eax
  10174f:	8b 94 83 20 00 00 00 	mov    0x20(%ebx,%eax,4),%edx
  101756:	8b 45 2c             	mov    0x2c(%ebp),%eax
  101759:	83 ec 04             	sub    $0x4,%esp
  10175c:	52                   	push   %edx
  10175d:	50                   	push   %eax
  10175e:	8d 83 4c c5 ff ff    	lea    -0x3ab4(%ebx),%eax
  101764:	50                   	push   %eax
  101765:	e8 7b f4 ff ff       	call   100be5 <printf>
  10176a:	83 c4 10             	add    $0x10,%esp
  10176d:	f4                   	hlt    
  10176e:	8b 45 2c             	mov    0x2c(%ebp),%eax
  101771:	8b 84 83 00 06 00 00 	mov    0x600(%ebx,%eax,4),%eax
  101778:	85 c0                	test   %eax,%eax
  10177a:	74 1c                	je     101798 <isr_exception_handler+0x66>
  10177c:	8b 45 2c             	mov    0x2c(%ebp),%eax
  10177f:	8b 84 83 00 06 00 00 	mov    0x600(%ebx,%eax,4),%eax
  101786:	89 45 f4             	mov    %eax,-0xc(%ebp)
  101789:	83 ec 0c             	sub    $0xc,%esp
  10178c:	8d 45 08             	lea    0x8(%ebp),%eax
  10178f:	50                   	push   %eax
  101790:	8b 45 f4             	mov    -0xc(%ebp),%eax
  101793:	ff d0                	call   *%eax
  101795:	83 c4 10             	add    $0x10,%esp
  101798:	90                   	nop
  101799:	8b 5d fc             	mov    -0x4(%ebp),%ebx
  10179c:	c9                   	leave  
  10179d:	c3                   	ret    

0010179e <idt_set_entry>:
  10179e:	55                   	push   %ebp
  10179f:	89 e5                	mov    %esp,%ebp
  1017a1:	83 ec 18             	sub    $0x18,%esp
  1017a4:	e8 5b 38 00 00       	call   105004 <__x86.get_pc_thunk.ax>
  1017a9:	05 57 78 00 00       	add    $0x7857,%eax
  1017ae:	8b 55 10             	mov    0x10(%ebp),%edx
  1017b1:	8b 4d 14             	mov    0x14(%ebp),%ecx
  1017b4:	66 89 55 ec          	mov    %dx,-0x14(%ebp)
  1017b8:	89 ca                	mov    %ecx,%edx
  1017ba:	88 55 e8             	mov    %dl,-0x18(%ebp)
  1017bd:	8b 55 08             	mov    0x8(%ebp),%edx
  1017c0:	c1 e2 03             	shl    $0x3,%edx
  1017c3:	8d 80 00 0a 00 00    	lea    0xa00(%eax),%eax
  1017c9:	01 d0                	add    %edx,%eax
  1017cb:	89 45 fc             	mov    %eax,-0x4(%ebp)
  1017ce:	8b 45 0c             	mov    0xc(%ebp),%eax
  1017d1:	89 c2                	mov    %eax,%edx
  1017d3:	8b 45 fc             	mov    -0x4(%ebp),%eax
  1017d6:	66 89 10             	mov    %dx,(%eax)
  1017d9:	8b 45 fc             	mov    -0x4(%ebp),%eax
  1017dc:	0f b7 55 ec          	movzwl -0x14(%ebp),%edx
  1017e0:	66 89 50 02          	mov    %dx,0x2(%eax)
  1017e4:	8b 45 fc             	mov    -0x4(%ebp),%eax
  1017e7:	c6 40 04 00          	movb   $0x0,0x4(%eax)
  1017eb:	0f b6 45 e8          	movzbl -0x18(%ebp),%eax
  1017ef:	83 c8 60             	or     $0x60,%eax
  1017f2:	89 c2                	mov    %eax,%edx
  1017f4:	8b 45 fc             	mov    -0x4(%ebp),%eax
  1017f7:	88 50 05             	mov    %dl,0x5(%eax)
  1017fa:	8b 45 0c             	mov    0xc(%ebp),%eax
  1017fd:	c1 e8 10             	shr    $0x10,%eax
  101800:	89 c2                	mov    %eax,%edx
  101802:	8b 45 fc             	mov    -0x4(%ebp),%eax
  101805:	66 89 50 06          	mov    %dx,0x6(%eax)
  101809:	90                   	nop
  10180a:	c9                   	leave  
  10180b:	c3                   	ret    

0010180c <idt_enable>:
  10180c:	55                   	push   %ebp
  10180d:	89 e5                	mov    %esp,%ebp
  10180f:	53                   	push   %ebx
  101810:	83 ec 04             	sub    $0x4,%esp
  101813:	e8 e8 37 00 00       	call   105000 <__kernel_text_section_end>
  101818:	81 c3 e8 77 00 00    	add    $0x77e8,%ebx
  10181e:	8d 83 00 0a 00 00    	lea    0xa00(%ebx),%eax
  101824:	89 83 02 12 00 00    	mov    %eax,0x1202(%ebx)
  10182a:	66 c7 83 00 12 00 00 	movw   $0x7ff,0x1200(%ebx)
  101831:	ff 07 
  101833:	e8 c2 2a 00 00       	call   1042fa <pic_init>
  101838:	c7 c0 f6 1f 10 00    	mov    $0x101ff6,%eax
  10183e:	68 8e 00 00 00       	push   $0x8e
  101843:	6a 08                	push   $0x8
  101845:	50                   	push   %eax
  101846:	6a 00                	push   $0x0
  101848:	e8 51 ff ff ff       	call   10179e <idt_set_entry>
  10184d:	83 c4 10             	add    $0x10,%esp
  101850:	c7 c0 fd 1f 10 00    	mov    $0x101ffd,%eax
  101856:	68 8e 00 00 00       	push   $0x8e
  10185b:	6a 08                	push   $0x8
  10185d:	50                   	push   %eax
  10185e:	6a 01                	push   $0x1
  101860:	e8 39 ff ff ff       	call   10179e <idt_set_entry>
  101865:	83 c4 10             	add    $0x10,%esp
  101868:	c7 c0 04 20 10 00    	mov    $0x102004,%eax
  10186e:	68 8e 00 00 00       	push   $0x8e
  101873:	6a 08                	push   $0x8
  101875:	50                   	push   %eax
  101876:	6a 02                	push   $0x2
  101878:	e8 21 ff ff ff       	call   10179e <idt_set_entry>
  10187d:	83 c4 10             	add    $0x10,%esp
  101880:	c7 c0 0b 20 10 00    	mov    $0x10200b,%eax
  101886:	68 8e 00 00 00       	push   $0x8e
  10188b:	6a 08                	push   $0x8
  10188d:	50                   	push   %eax
  10188e:	6a 03                	push   $0x3
  101890:	e8 09 ff ff ff       	call   10179e <idt_set_entry>
  101895:	83 c4 10             	add    $0x10,%esp
  101898:	c7 c0 12 20 10 00    	mov    $0x102012,%eax
  10189e:	68 8e 00 00 00       	push   $0x8e
  1018a3:	6a 08                	push   $0x8
  1018a5:	50                   	push   %eax
  1018a6:	6a 04                	push   $0x4
  1018a8:	e8 f1 fe ff ff       	call   10179e <idt_set_entry>
  1018ad:	83 c4 10             	add    $0x10,%esp
  1018b0:	c7 c0 19 20 10 00    	mov    $0x102019,%eax
  1018b6:	68 8e 00 00 00       	push   $0x8e
  1018bb:	6a 08                	push   $0x8
  1018bd:	50                   	push   %eax
  1018be:	6a 05                	push   $0x5
  1018c0:	e8 d9 fe ff ff       	call   10179e <idt_set_entry>
  1018c5:	83 c4 10             	add    $0x10,%esp
  1018c8:	c7 c0 20 20 10 00    	mov    $0x102020,%eax
  1018ce:	68 8e 00 00 00       	push   $0x8e
  1018d3:	6a 08                	push   $0x8
  1018d5:	50                   	push   %eax
  1018d6:	6a 06                	push   $0x6
  1018d8:	e8 c1 fe ff ff       	call   10179e <idt_set_entry>
  1018dd:	83 c4 10             	add    $0x10,%esp
  1018e0:	c7 c0 27 20 10 00    	mov    $0x102027,%eax
  1018e6:	68 8e 00 00 00       	push   $0x8e
  1018eb:	6a 08                	push   $0x8
  1018ed:	50                   	push   %eax
  1018ee:	6a 07                	push   $0x7
  1018f0:	e8 a9 fe ff ff       	call   10179e <idt_set_entry>
  1018f5:	83 c4 10             	add    $0x10,%esp
  1018f8:	c7 c0 2e 20 10 00    	mov    $0x10202e,%eax
  1018fe:	68 8e 00 00 00       	push   $0x8e
  101903:	6a 08                	push   $0x8
  101905:	50                   	push   %eax
  101906:	6a 08                	push   $0x8
  101908:	e8 91 fe ff ff       	call   10179e <idt_set_entry>
  10190d:	83 c4 10             	add    $0x10,%esp
  101910:	c7 c0 33 20 10 00    	mov    $0x102033,%eax
  101916:	68 8e 00 00 00       	push   $0x8e
  10191b:	6a 08                	push   $0x8
  10191d:	50                   	push   %eax
  10191e:	6a 09                	push   $0x9
  101920:	e8 79 fe ff ff       	call   10179e <idt_set_entry>
  101925:	83 c4 10             	add    $0x10,%esp
  101928:	c7 c0 3a 20 10 00    	mov    $0x10203a,%eax
  10192e:	68 8e 00 00 00       	push   $0x8e
  101933:	6a 08                	push   $0x8
  101935:	50                   	push   %eax
  101936:	6a 0a                	push   $0xa
  101938:	e8 61 fe ff ff       	call   10179e <idt_set_entry>
  10193d:	83 c4 10             	add    $0x10,%esp
  101940:	c7 c0 3f 20 10 00    	mov    $0x10203f,%eax
  101946:	68 8e 00 00 00       	push   $0x8e
  10194b:	6a 08                	push   $0x8
  10194d:	50                   	push   %eax
  10194e:	6a 0b                	push   $0xb
  101950:	e8 49 fe ff ff       	call   10179e <idt_set_entry>
  101955:	83 c4 10             	add    $0x10,%esp
  101958:	c7 c0 44 20 10 00    	mov    $0x102044,%eax
  10195e:	68 8e 00 00 00       	push   $0x8e
  101963:	6a 08                	push   $0x8
  101965:	50                   	push   %eax
  101966:	6a 0c                	push   $0xc
  101968:	e8 31 fe ff ff       	call   10179e <idt_set_entry>
  10196d:	83 c4 10             	add    $0x10,%esp
  101970:	c7 c0 49 20 10 00    	mov    $0x102049,%eax
  101976:	68 8e 00 00 00       	push   $0x8e
  10197b:	6a 08                	push   $0x8
  10197d:	50                   	push   %eax
  10197e:	6a 0d                	push   $0xd
  101980:	e8 19 fe ff ff       	call   10179e <idt_set_entry>
  101985:	83 c4 10             	add    $0x10,%esp
  101988:	c7 c0 4e 20 10 00    	mov    $0x10204e,%eax
  10198e:	68 8e 00 00 00       	push   $0x8e
  101993:	6a 08                	push   $0x8
  101995:	50                   	push   %eax
  101996:	6a 0e                	push   $0xe
  101998:	e8 01 fe ff ff       	call   10179e <idt_set_entry>
  10199d:	83 c4 10             	add    $0x10,%esp
  1019a0:	c7 c0 56 20 10 00    	mov    $0x102056,%eax
  1019a6:	68 8e 00 00 00       	push   $0x8e
  1019ab:	6a 08                	push   $0x8
  1019ad:	50                   	push   %eax
  1019ae:	6a 0f                	push   $0xf
  1019b0:	e8 e9 fd ff ff       	call   10179e <idt_set_entry>
  1019b5:	83 c4 10             	add    $0x10,%esp
  1019b8:	c7 c0 60 20 10 00    	mov    $0x102060,%eax
  1019be:	68 8e 00 00 00       	push   $0x8e
  1019c3:	6a 08                	push   $0x8
  1019c5:	50                   	push   %eax
  1019c6:	6a 10                	push   $0x10
  1019c8:	e8 d1 fd ff ff       	call   10179e <idt_set_entry>
  1019cd:	83 c4 10             	add    $0x10,%esp
  1019d0:	c7 c0 6a 20 10 00    	mov    $0x10206a,%eax
  1019d6:	68 8e 00 00 00       	push   $0x8e
  1019db:	6a 08                	push   $0x8
  1019dd:	50                   	push   %eax
  1019de:	6a 11                	push   $0x11
  1019e0:	e8 b9 fd ff ff       	call   10179e <idt_set_entry>
  1019e5:	83 c4 10             	add    $0x10,%esp
  1019e8:	c7 c0 74 20 10 00    	mov    $0x102074,%eax
  1019ee:	68 8e 00 00 00       	push   $0x8e
  1019f3:	6a 08                	push   $0x8
  1019f5:	50                   	push   %eax
  1019f6:	6a 12                	push   $0x12
  1019f8:	e8 a1 fd ff ff       	call   10179e <idt_set_entry>
  1019fd:	83 c4 10             	add    $0x10,%esp
  101a00:	c7 c0 7e 20 10 00    	mov    $0x10207e,%eax
  101a06:	68 8e 00 00 00       	push   $0x8e
  101a0b:	6a 08                	push   $0x8
  101a0d:	50                   	push   %eax
  101a0e:	6a 13                	push   $0x13
  101a10:	e8 89 fd ff ff       	call   10179e <idt_set_entry>
  101a15:	83 c4 10             	add    $0x10,%esp
  101a18:	c7 c0 88 20 10 00    	mov    $0x102088,%eax
  101a1e:	68 8e 00 00 00       	push   $0x8e
  101a23:	6a 08                	push   $0x8
  101a25:	50                   	push   %eax
  101a26:	6a 14                	push   $0x14
  101a28:	e8 71 fd ff ff       	call   10179e <idt_set_entry>
  101a2d:	83 c4 10             	add    $0x10,%esp
  101a30:	c7 c0 92 20 10 00    	mov    $0x102092,%eax
  101a36:	68 8e 00 00 00       	push   $0x8e
  101a3b:	6a 08                	push   $0x8
  101a3d:	50                   	push   %eax
  101a3e:	6a 15                	push   $0x15
  101a40:	e8 59 fd ff ff       	call   10179e <idt_set_entry>
  101a45:	83 c4 10             	add    $0x10,%esp
  101a48:	c7 c0 9c 20 10 00    	mov    $0x10209c,%eax
  101a4e:	68 8e 00 00 00       	push   $0x8e
  101a53:	6a 08                	push   $0x8
  101a55:	50                   	push   %eax
  101a56:	6a 16                	push   $0x16
  101a58:	e8 41 fd ff ff       	call   10179e <idt_set_entry>
  101a5d:	83 c4 10             	add    $0x10,%esp
  101a60:	c7 c0 a6 20 10 00    	mov    $0x1020a6,%eax
  101a66:	68 8e 00 00 00       	push   $0x8e
  101a6b:	6a 08                	push   $0x8
  101a6d:	50                   	push   %eax
  101a6e:	6a 17                	push   $0x17
  101a70:	e8 29 fd ff ff       	call   10179e <idt_set_entry>
  101a75:	83 c4 10             	add    $0x10,%esp
  101a78:	c7 c0 b0 20 10 00    	mov    $0x1020b0,%eax
  101a7e:	68 8e 00 00 00       	push   $0x8e
  101a83:	6a 08                	push   $0x8
  101a85:	50                   	push   %eax
  101a86:	6a 18                	push   $0x18
  101a88:	e8 11 fd ff ff       	call   10179e <idt_set_entry>
  101a8d:	83 c4 10             	add    $0x10,%esp
  101a90:	c7 c0 ba 20 10 00    	mov    $0x1020ba,%eax
  101a96:	68 8e 00 00 00       	push   $0x8e
  101a9b:	6a 08                	push   $0x8
  101a9d:	50                   	push   %eax
  101a9e:	6a 19                	push   $0x19
  101aa0:	e8 f9 fc ff ff       	call   10179e <idt_set_entry>
  101aa5:	83 c4 10             	add    $0x10,%esp
  101aa8:	c7 c0 c4 20 10 00    	mov    $0x1020c4,%eax
  101aae:	68 8e 00 00 00       	push   $0x8e
  101ab3:	6a 08                	push   $0x8
  101ab5:	50                   	push   %eax
  101ab6:	6a 1a                	push   $0x1a
  101ab8:	e8 e1 fc ff ff       	call   10179e <idt_set_entry>
  101abd:	83 c4 10             	add    $0x10,%esp
  101ac0:	c7 c0 ce 20 10 00    	mov    $0x1020ce,%eax
  101ac6:	68 8e 00 00 00       	push   $0x8e
  101acb:	6a 08                	push   $0x8
  101acd:	50                   	push   %eax
  101ace:	6a 1b                	push   $0x1b
  101ad0:	e8 c9 fc ff ff       	call   10179e <idt_set_entry>
  101ad5:	83 c4 10             	add    $0x10,%esp
  101ad8:	c7 c0 d8 20 10 00    	mov    $0x1020d8,%eax
  101ade:	68 8e 00 00 00       	push   $0x8e
  101ae3:	6a 08                	push   $0x8
  101ae5:	50                   	push   %eax
  101ae6:	6a 1c                	push   $0x1c
  101ae8:	e8 b1 fc ff ff       	call   10179e <idt_set_entry>
  101aed:	83 c4 10             	add    $0x10,%esp
  101af0:	c7 c0 e2 20 10 00    	mov    $0x1020e2,%eax
  101af6:	68 8e 00 00 00       	push   $0x8e
  101afb:	6a 08                	push   $0x8
  101afd:	50                   	push   %eax
  101afe:	6a 1d                	push   $0x1d
  101b00:	e8 99 fc ff ff       	call   10179e <idt_set_entry>
  101b05:	83 c4 10             	add    $0x10,%esp
  101b08:	c7 c0 ec 20 10 00    	mov    $0x1020ec,%eax
  101b0e:	68 8e 00 00 00       	push   $0x8e
  101b13:	6a 08                	push   $0x8
  101b15:	50                   	push   %eax
  101b16:	6a 1e                	push   $0x1e
  101b18:	e8 81 fc ff ff       	call   10179e <idt_set_entry>
  101b1d:	83 c4 10             	add    $0x10,%esp
  101b20:	c7 c0 f6 20 10 00    	mov    $0x1020f6,%eax
  101b26:	68 8e 00 00 00       	push   $0x8e
  101b2b:	6a 08                	push   $0x8
  101b2d:	50                   	push   %eax
  101b2e:	6a 1f                	push   $0x1f
  101b30:	e8 69 fc ff ff       	call   10179e <idt_set_entry>
  101b35:	83 c4 10             	add    $0x10,%esp
  101b38:	c7 c0 b7 44 10 00    	mov    $0x1044b7,%eax
  101b3e:	68 8e 00 00 00       	push   $0x8e
  101b43:	6a 08                	push   $0x8
  101b45:	50                   	push   %eax
  101b46:	6a 20                	push   $0x20
  101b48:	e8 51 fc ff ff       	call   10179e <idt_set_entry>
  101b4d:	83 c4 10             	add    $0x10,%esp
  101b50:	c7 c0 be 44 10 00    	mov    $0x1044be,%eax
  101b56:	68 8e 00 00 00       	push   $0x8e
  101b5b:	6a 08                	push   $0x8
  101b5d:	50                   	push   %eax
  101b5e:	6a 21                	push   $0x21
  101b60:	e8 39 fc ff ff       	call   10179e <idt_set_entry>
  101b65:	83 c4 10             	add    $0x10,%esp
  101b68:	c7 c0 c5 44 10 00    	mov    $0x1044c5,%eax
  101b6e:	68 8e 00 00 00       	push   $0x8e
  101b73:	6a 08                	push   $0x8
  101b75:	50                   	push   %eax
  101b76:	6a 22                	push   $0x22
  101b78:	e8 21 fc ff ff       	call   10179e <idt_set_entry>
  101b7d:	83 c4 10             	add    $0x10,%esp
  101b80:	c7 c0 cc 44 10 00    	mov    $0x1044cc,%eax
  101b86:	68 8e 00 00 00       	push   $0x8e
  101b8b:	6a 08                	push   $0x8
  101b8d:	50                   	push   %eax
  101b8e:	6a 23                	push   $0x23
  101b90:	e8 09 fc ff ff       	call   10179e <idt_set_entry>
  101b95:	83 c4 10             	add    $0x10,%esp
  101b98:	c7 c0 d3 44 10 00    	mov    $0x1044d3,%eax
  101b9e:	68 8e 00 00 00       	push   $0x8e
  101ba3:	6a 08                	push   $0x8
  101ba5:	50                   	push   %eax
  101ba6:	6a 24                	push   $0x24
  101ba8:	e8 f1 fb ff ff       	call   10179e <idt_set_entry>
  101bad:	83 c4 10             	add    $0x10,%esp
  101bb0:	c7 c0 da 44 10 00    	mov    $0x1044da,%eax
  101bb6:	68 8e 00 00 00       	push   $0x8e
  101bbb:	6a 08                	push   $0x8
  101bbd:	50                   	push   %eax
  101bbe:	6a 25                	push   $0x25
  101bc0:	e8 d9 fb ff ff       	call   10179e <idt_set_entry>
  101bc5:	83 c4 10             	add    $0x10,%esp
  101bc8:	c7 c0 e1 44 10 00    	mov    $0x1044e1,%eax
  101bce:	68 8e 00 00 00       	push   $0x8e
  101bd3:	6a 08                	push   $0x8
  101bd5:	50                   	push   %eax
  101bd6:	6a 26                	push   $0x26
  101bd8:	e8 c1 fb ff ff       	call   10179e <idt_set_entry>
  101bdd:	83 c4 10             	add    $0x10,%esp
  101be0:	c7 c0 e8 44 10 00    	mov    $0x1044e8,%eax
  101be6:	68 8e 00 00 00       	push   $0x8e
  101beb:	6a 08                	push   $0x8
  101bed:	50                   	push   %eax
  101bee:	6a 27                	push   $0x27
  101bf0:	e8 a9 fb ff ff       	call   10179e <idt_set_entry>
  101bf5:	83 c4 10             	add    $0x10,%esp
  101bf8:	c7 c0 ef 44 10 00    	mov    $0x1044ef,%eax
  101bfe:	68 8e 00 00 00       	push   $0x8e
  101c03:	6a 08                	push   $0x8
  101c05:	50                   	push   %eax
  101c06:	6a 28                	push   $0x28
  101c08:	e8 91 fb ff ff       	call   10179e <idt_set_entry>
  101c0d:	83 c4 10             	add    $0x10,%esp
  101c10:	c7 c0 f6 44 10 00    	mov    $0x1044f6,%eax
  101c16:	68 8e 00 00 00       	push   $0x8e
  101c1b:	6a 08                	push   $0x8
  101c1d:	50                   	push   %eax
  101c1e:	6a 29                	push   $0x29
  101c20:	e8 79 fb ff ff       	call   10179e <idt_set_entry>
  101c25:	83 c4 10             	add    $0x10,%esp
  101c28:	c7 c0 fd 44 10 00    	mov    $0x1044fd,%eax
  101c2e:	68 8e 00 00 00       	push   $0x8e
  101c33:	6a 08                	push   $0x8
  101c35:	50                   	push   %eax
  101c36:	6a 2a                	push   $0x2a
  101c38:	e8 61 fb ff ff       	call   10179e <idt_set_entry>
  101c3d:	83 c4 10             	add    $0x10,%esp
  101c40:	c7 c0 04 45 10 00    	mov    $0x104504,%eax
  101c46:	68 8e 00 00 00       	push   $0x8e
  101c4b:	6a 08                	push   $0x8
  101c4d:	50                   	push   %eax
  101c4e:	6a 2b                	push   $0x2b
  101c50:	e8 49 fb ff ff       	call   10179e <idt_set_entry>
  101c55:	83 c4 10             	add    $0x10,%esp
  101c58:	c7 c0 0b 45 10 00    	mov    $0x10450b,%eax
  101c5e:	68 8e 00 00 00       	push   $0x8e
  101c63:	6a 08                	push   $0x8
  101c65:	50                   	push   %eax
  101c66:	6a 2c                	push   $0x2c
  101c68:	e8 31 fb ff ff       	call   10179e <idt_set_entry>
  101c6d:	83 c4 10             	add    $0x10,%esp
  101c70:	c7 c0 15 45 10 00    	mov    $0x104515,%eax
  101c76:	68 8e 00 00 00       	push   $0x8e
  101c7b:	6a 08                	push   $0x8
  101c7d:	50                   	push   %eax
  101c7e:	6a 2d                	push   $0x2d
  101c80:	e8 19 fb ff ff       	call   10179e <idt_set_entry>
  101c85:	83 c4 10             	add    $0x10,%esp
  101c88:	c7 c0 1f 45 10 00    	mov    $0x10451f,%eax
  101c8e:	68 8e 00 00 00       	push   $0x8e
  101c93:	6a 08                	push   $0x8
  101c95:	50                   	push   %eax
  101c96:	6a 2e                	push   $0x2e
  101c98:	e8 01 fb ff ff       	call   10179e <idt_set_entry>
  101c9d:	83 c4 10             	add    $0x10,%esp
  101ca0:	c7 c0 29 45 10 00    	mov    $0x104529,%eax
  101ca6:	68 8e 00 00 00       	push   $0x8e
  101cab:	6a 08                	push   $0x8
  101cad:	50                   	push   %eax
  101cae:	6a 2f                	push   $0x2f
  101cb0:	e8 e9 fa ff ff       	call   10179e <idt_set_entry>
  101cb5:	83 c4 10             	add    $0x10,%esp
  101cb8:	c7 c0 00 21 10 00    	mov    $0x102100,%eax
  101cbe:	68 8e 00 00 00       	push   $0x8e
  101cc3:	6a 08                	push   $0x8
  101cc5:	50                   	push   %eax
  101cc6:	68 80 00 00 00       	push   $0x80
  101ccb:	e8 ce fa ff ff       	call   10179e <idt_set_entry>
  101cd0:	83 c4 10             	add    $0x10,%esp
  101cd3:	8d 83 00 12 00 00    	lea    0x1200(%ebx),%eax
  101cd9:	83 ec 0c             	sub    $0xc,%esp
  101cdc:	50                   	push   %eax
  101cdd:	e8 4e 27 00 00       	call   104430 <load_idt>
  101ce2:	83 c4 10             	add    $0x10,%esp
  101ce5:	fb                   	sti    
  101ce6:	90                   	nop
  101ce7:	8b 5d fc             	mov    -0x4(%ebp),%ebx
  101cea:	c9                   	leave  
  101ceb:	c3                   	ret    

00101cec <syscall_interrupt_handler>:
  101cec:	55                   	push   %ebp
  101ced:	89 e5                	mov    %esp,%ebp
  101cef:	57                   	push   %edi
  101cf0:	56                   	push   %esi
  101cf1:	53                   	push   %ebx
  101cf2:	83 ec 2c             	sub    $0x2c,%esp
  101cf5:	e8 06 33 00 00       	call   105000 <__kernel_text_section_end>
  101cfa:	81 c3 06 73 00 00    	add    $0x7306,%ebx
  101d00:	8b 45 08             	mov    0x8(%ebp),%eax
  101d03:	8b 40 20             	mov    0x20(%eax),%eax
  101d06:	8b 84 83 a0 00 00 00 	mov    0xa0(%ebx,%eax,4),%eax
  101d0d:	89 45 e4             	mov    %eax,-0x1c(%ebp)
  101d10:	8b 45 08             	mov    0x8(%ebp),%eax
  101d13:	8b 40 20             	mov    0x20(%eax),%eax
  101d16:	50                   	push   %eax
  101d17:	8d 83 60 c5 ff ff    	lea    -0x3aa0(%ebx),%eax
  101d1d:	50                   	push   %eax
  101d1e:	8d 83 6f c5 ff ff    	lea    -0x3a91(%ebx),%eax
  101d24:	50                   	push   %eax
  101d25:	6a 00                	push   $0x0
  101d27:	e8 45 0b 00 00       	call   102871 <quantum_info>
  101d2c:	83 c4 10             	add    $0x10,%esp
  101d2f:	83 7d e4 00          	cmpl   $0x0,-0x1c(%ebp)
  101d33:	75 21                	jne    101d56 <syscall_interrupt_handler+0x6a>
  101d35:	8b 45 08             	mov    0x8(%ebp),%eax
  101d38:	8b 40 20             	mov    0x20(%eax),%eax
  101d3b:	50                   	push   %eax
  101d3c:	8d 83 78 c5 ff ff    	lea    -0x3a88(%ebx),%eax
  101d42:	50                   	push   %eax
  101d43:	8d 83 6f c5 ff ff    	lea    -0x3a91(%ebx),%eax
  101d49:	50                   	push   %eax
  101d4a:	6a 01                	push   $0x1
  101d4c:	e8 20 0b 00 00       	call   102871 <quantum_info>
  101d51:	83 c4 10             	add    $0x10,%esp
  101d54:	eb 76                	jmp    101dcc <syscall_interrupt_handler+0xe0>
  101d56:	8b 45 08             	mov    0x8(%ebp),%eax
  101d59:	8b 40 0c             	mov    0xc(%eax),%eax
  101d5c:	89 c1                	mov    %eax,%ecx
  101d5e:	8b 45 08             	mov    0x8(%ebp),%eax
  101d61:	8b 40 04             	mov    0x4(%eax),%eax
  101d64:	89 45 d4             	mov    %eax,-0x2c(%ebp)
  101d67:	8b 45 08             	mov    0x8(%ebp),%eax
  101d6a:	8b 40 08             	mov    0x8(%eax),%eax
  101d6d:	89 45 d0             	mov    %eax,-0x30(%ebp)
  101d70:	8b 45 08             	mov    0x8(%ebp),%eax
  101d73:	8b 40 18             	mov    0x18(%eax),%eax
  101d76:	89 c7                	mov    %eax,%edi
  101d78:	8b 45 08             	mov    0x8(%ebp),%eax
  101d7b:	8b 40 1c             	mov    0x1c(%eax),%eax
  101d7e:	89 c6                	mov    %eax,%esi
  101d80:	8b 45 08             	mov    0x8(%ebp),%eax
  101d83:	8b 40 14             	mov    0x14(%eax),%eax
  101d86:	89 c2                	mov    %eax,%edx
  101d88:	8b 45 08             	mov    0x8(%ebp),%eax
  101d8b:	8b 40 20             	mov    0x20(%eax),%eax
  101d8e:	83 ec 04             	sub    $0x4,%esp
  101d91:	51                   	push   %ecx
  101d92:	ff 75 d4             	pushl  -0x2c(%ebp)
  101d95:	ff 75 d0             	pushl  -0x30(%ebp)
  101d98:	57                   	push   %edi
  101d99:	56                   	push   %esi
  101d9a:	52                   	push   %edx
  101d9b:	50                   	push   %eax
  101d9c:	8b 45 e4             	mov    -0x1c(%ebp),%eax
  101d9f:	ff d0                	call   *%eax
  101da1:	83 c4 20             	add    $0x20,%esp
  101da4:	89 45 e0             	mov    %eax,-0x20(%ebp)
  101da7:	8b 45 08             	mov    0x8(%ebp),%eax
  101daa:	8b 40 20             	mov    0x20(%eax),%eax
  101dad:	83 ec 0c             	sub    $0xc,%esp
  101db0:	ff 75 e0             	pushl  -0x20(%ebp)
  101db3:	50                   	push   %eax
  101db4:	8d 83 a2 c5 ff ff    	lea    -0x3a5e(%ebx),%eax
  101dba:	50                   	push   %eax
  101dbb:	8d 83 6f c5 ff ff    	lea    -0x3a91(%ebx),%eax
  101dc1:	50                   	push   %eax
  101dc2:	6a 00                	push   $0x0
  101dc4:	e8 a8 0a 00 00       	call   102871 <quantum_info>
  101dc9:	83 c4 20             	add    $0x20,%esp
  101dcc:	8d 65 f4             	lea    -0xc(%ebp),%esp
  101dcf:	5b                   	pop    %ebx
  101dd0:	5e                   	pop    %esi
  101dd1:	5f                   	pop    %edi
  101dd2:	5d                   	pop    %ebp
  101dd3:	c3                   	ret    

00101dd4 <quantum_syscalls_init>:
  101dd4:	55                   	push   %ebp
  101dd5:	89 e5                	mov    %esp,%ebp
  101dd7:	53                   	push   %ebx
  101dd8:	83 ec 04             	sub    $0x4,%esp
  101ddb:	e8 20 32 00 00       	call   105000 <__kernel_text_section_end>
  101de0:	81 c3 20 72 00 00    	add    $0x7220,%ebx
  101de6:	83 ec 08             	sub    $0x8,%esp
  101de9:	8d 83 ec 8c ff ff    	lea    -0x7314(%ebx),%eax
  101def:	50                   	push   %eax
  101df0:	68 80 00 00 00       	push   $0x80
  101df5:	e8 8b f8 ff ff       	call   101685 <isr_register_interrupt_handler>
  101dfa:	83 c4 10             	add    $0x10,%esp
  101dfd:	68 80 00 00 00       	push   $0x80
  101e02:	8d 83 bc c5 ff ff    	lea    -0x3a44(%ebx),%eax
  101e08:	50                   	push   %eax
  101e09:	8d 83 6f c5 ff ff    	lea    -0x3a91(%ebx),%eax
  101e0f:	50                   	push   %eax
  101e10:	6a 00                	push   $0x0
  101e12:	e8 5a 0a 00 00       	call   102871 <quantum_info>
  101e17:	83 c4 10             	add    $0x10,%esp
  101e1a:	90                   	nop
  101e1b:	8b 5d fc             	mov    -0x4(%ebp),%ebx
  101e1e:	c9                   	leave  
  101e1f:	c3                   	ret    

00101e20 <sys_read>:
  101e20:	55                   	push   %ebp
  101e21:	89 e5                	mov    %esp,%ebp
  101e23:	e8 dc 31 00 00       	call   105004 <__x86.get_pc_thunk.ax>
  101e28:	05 d8 71 00 00       	add    $0x71d8,%eax
  101e2d:	b8 00 00 00 00       	mov    $0x0,%eax
  101e32:	5d                   	pop    %ebp
  101e33:	c3                   	ret    

00101e34 <sys_write>:
  101e34:	55                   	push   %ebp
  101e35:	89 e5                	mov    %esp,%ebp
  101e37:	53                   	push   %ebx
  101e38:	83 ec 14             	sub    $0x14,%esp
  101e3b:	e8 c0 31 00 00       	call   105000 <__kernel_text_section_end>
  101e40:	81 c3 c0 71 00 00    	add    $0x71c0,%ebx
  101e46:	8b 45 10             	mov    0x10(%ebp),%eax
  101e49:	89 45 f0             	mov    %eax,-0x10(%ebp)
  101e4c:	c7 45 f4 00 00 00 00 	movl   $0x0,-0xc(%ebp)
  101e53:	eb 1e                	jmp    101e73 <sys_write+0x3f>
  101e55:	8b 55 f4             	mov    -0xc(%ebp),%edx
  101e58:	8b 45 f0             	mov    -0x10(%ebp),%eax
  101e5b:	01 d0                	add    %edx,%eax
  101e5d:	0f b6 00             	movzbl (%eax),%eax
  101e60:	0f be c0             	movsbl %al,%eax
  101e63:	83 ec 0c             	sub    $0xc,%esp
  101e66:	50                   	push   %eax
  101e67:	e8 a6 ec ff ff       	call   100b12 <putc>
  101e6c:	83 c4 10             	add    $0x10,%esp
  101e6f:	83 45 f4 01          	addl   $0x1,-0xc(%ebp)
  101e73:	8b 45 f4             	mov    -0xc(%ebp),%eax
  101e76:	3b 45 14             	cmp    0x14(%ebp),%eax
  101e79:	7c da                	jl     101e55 <sys_write+0x21>
  101e7b:	b8 00 00 00 00       	mov    $0x0,%eax
  101e80:	8b 5d fc             	mov    -0x4(%ebp),%ebx
  101e83:	c9                   	leave  
  101e84:	c3                   	ret    

00101e85 <gdt_set_entry>:
  101e85:	55                   	push   %ebp
  101e86:	89 e5                	mov    %esp,%ebp
  101e88:	83 ec 18             	sub    $0x18,%esp
  101e8b:	e8 74 31 00 00       	call   105004 <__x86.get_pc_thunk.ax>
  101e90:	05 70 71 00 00       	add    $0x7170,%eax
  101e95:	8b 4d 14             	mov    0x14(%ebp),%ecx
  101e98:	8b 55 18             	mov    0x18(%ebp),%edx
  101e9b:	88 4d ec             	mov    %cl,-0x14(%ebp)
  101e9e:	88 55 e8             	mov    %dl,-0x18(%ebp)
  101ea1:	8b 55 08             	mov    0x8(%ebp),%edx
  101ea4:	c1 e2 03             	shl    $0x3,%edx
  101ea7:	8d 80 20 12 00 00    	lea    0x1220(%eax),%eax
  101ead:	01 d0                	add    %edx,%eax
  101eaf:	89 45 fc             	mov    %eax,-0x4(%ebp)
  101eb2:	8b 45 10             	mov    0x10(%ebp),%eax
  101eb5:	89 c2                	mov    %eax,%edx
  101eb7:	8b 45 fc             	mov    -0x4(%ebp),%eax
  101eba:	66 89 10             	mov    %dx,(%eax)
  101ebd:	8b 45 0c             	mov    0xc(%ebp),%eax
  101ec0:	89 c2                	mov    %eax,%edx
  101ec2:	8b 45 fc             	mov    -0x4(%ebp),%eax
  101ec5:	66 89 50 02          	mov    %dx,0x2(%eax)
  101ec9:	8b 45 0c             	mov    0xc(%ebp),%eax
  101ecc:	c1 e8 10             	shr    $0x10,%eax
  101ecf:	89 c2                	mov    %eax,%edx
  101ed1:	8b 45 fc             	mov    -0x4(%ebp),%eax
  101ed4:	88 50 04             	mov    %dl,0x4(%eax)
  101ed7:	8b 45 fc             	mov    -0x4(%ebp),%eax
  101eda:	0f b6 55 ec          	movzbl -0x14(%ebp),%edx
  101ede:	88 50 05             	mov    %dl,0x5(%eax)
  101ee1:	8b 45 10             	mov    0x10(%ebp),%eax
  101ee4:	c1 e8 10             	shr    $0x10,%eax
  101ee7:	83 e0 0f             	and    $0xf,%eax
  101eea:	89 c2                	mov    %eax,%edx
  101eec:	8b 45 fc             	mov    -0x4(%ebp),%eax
  101eef:	88 50 06             	mov    %dl,0x6(%eax)
  101ef2:	8b 45 fc             	mov    -0x4(%ebp),%eax
  101ef5:	0f b6 40 06          	movzbl 0x6(%eax),%eax
  101ef9:	89 c2                	mov    %eax,%edx
  101efb:	0f b6 45 e8          	movzbl -0x18(%ebp),%eax
  101eff:	83 e0 f0             	and    $0xfffffff0,%eax
  101f02:	09 d0                	or     %edx,%eax
  101f04:	89 c2                	mov    %eax,%edx
  101f06:	8b 45 fc             	mov    -0x4(%ebp),%eax
  101f09:	88 50 06             	mov    %dl,0x6(%eax)
  101f0c:	8b 45 0c             	mov    0xc(%ebp),%eax
  101f0f:	c1 e8 18             	shr    $0x18,%eax
  101f12:	89 c2                	mov    %eax,%edx
  101f14:	8b 45 fc             	mov    -0x4(%ebp),%eax
  101f17:	88 50 07             	mov    %dl,0x7(%eax)
  101f1a:	90                   	nop
  101f1b:	c9                   	leave  
  101f1c:	c3                   	ret    

00101f1d <gdt_enable>:
  101f1d:	55                   	push   %ebp
  101f1e:	89 e5                	mov    %esp,%ebp
  101f20:	53                   	push   %ebx
  101f21:	83 ec 04             	sub    $0x4,%esp
  101f24:	e8 d7 30 00 00       	call   105000 <__kernel_text_section_end>
  101f29:	81 c3 d7 70 00 00    	add    $0x70d7,%ebx
  101f2f:	66 c7 83 60 12 00 00 	movw   $0x3f,0x1260(%ebx)
  101f36:	3f 00 
  101f38:	8d 83 20 12 00 00    	lea    0x1220(%ebx),%eax
  101f3e:	89 83 62 12 00 00    	mov    %eax,0x1262(%ebx)
  101f44:	6a 00                	push   $0x0
  101f46:	6a 00                	push   $0x0
  101f48:	6a 00                	push   $0x0
  101f4a:	6a 00                	push   $0x0
  101f4c:	6a 00                	push   $0x0
  101f4e:	e8 32 ff ff ff       	call   101e85 <gdt_set_entry>
  101f53:	83 c4 14             	add    $0x14,%esp
  101f56:	68 cf 00 00 00       	push   $0xcf
  101f5b:	68 9a 00 00 00       	push   $0x9a
  101f60:	6a ff                	push   $0xffffffff
  101f62:	6a 00                	push   $0x0
  101f64:	6a 01                	push   $0x1
  101f66:	e8 1a ff ff ff       	call   101e85 <gdt_set_entry>
  101f6b:	83 c4 14             	add    $0x14,%esp
  101f6e:	68 cf 00 00 00       	push   $0xcf
  101f73:	68 92 00 00 00       	push   $0x92
  101f78:	6a ff                	push   $0xffffffff
  101f7a:	6a 00                	push   $0x0
  101f7c:	6a 02                	push   $0x2
  101f7e:	e8 02 ff ff ff       	call   101e85 <gdt_set_entry>
  101f83:	83 c4 14             	add    $0x14,%esp
  101f86:	68 cf 00 00 00       	push   $0xcf
  101f8b:	68 fa 00 00 00       	push   $0xfa
  101f90:	6a ff                	push   $0xffffffff
  101f92:	6a 00                	push   $0x0
  101f94:	6a 03                	push   $0x3
  101f96:	e8 ea fe ff ff       	call   101e85 <gdt_set_entry>
  101f9b:	83 c4 14             	add    $0x14,%esp
  101f9e:	68 cf 00 00 00       	push   $0xcf
  101fa3:	68 f2 00 00 00       	push   $0xf2
  101fa8:	6a ff                	push   $0xffffffff
  101faa:	6a 00                	push   $0x0
  101fac:	6a 04                	push   $0x4
  101fae:	e8 d2 fe ff ff       	call   101e85 <gdt_set_entry>
  101fb3:	83 c4 14             	add    $0x14,%esp
  101fb6:	8d 83 60 12 00 00    	lea    0x1260(%ebx),%eax
  101fbc:	83 ec 0c             	sub    $0xc,%esp
  101fbf:	50                   	push   %eax
  101fc0:	e8 4b 01 00 00       	call   102110 <load_gdt>
  101fc5:	83 c4 10             	add    $0x10,%esp
  101fc8:	90                   	nop
  101fc9:	8b 5d fc             	mov    -0x4(%ebp),%ebx
  101fcc:	c9                   	leave  
  101fcd:	c3                   	ret    
  101fce:	66 90                	xchg   %ax,%ax

00101fd0 <exception_handler>:
  101fd0:	60                   	pusha  
  101fd1:	66 8c d8             	mov    %ds,%ax
  101fd4:	50                   	push   %eax
  101fd5:	66 b8 10 00          	mov    $0x10,%ax
  101fd9:	66 89 c2             	mov    %ax,%dx
  101fdc:	8e c0                	mov    %eax,%es
  101fde:	8e e0                	mov    %eax,%fs
  101fe0:	8e e8                	mov    %eax,%gs
  101fe2:	e8 4b f7 ff ff       	call   101732 <isr_exception_handler>
  101fe7:	5b                   	pop    %ebx
  101fe8:	8e db                	mov    %ebx,%ds
  101fea:	8e c3                	mov    %ebx,%es
  101fec:	8e e3                	mov    %ebx,%fs
  101fee:	8e eb                	mov    %ebx,%gs
  101ff0:	61                   	popa   
  101ff1:	83 c4 08             	add    $0x8,%esp
  101ff4:	fb                   	sti    
  101ff5:	cf                   	iret   

00101ff6 <exception_0>:
  101ff6:	fa                   	cli    
  101ff7:	6a 00                	push   $0x0
  101ff9:	6a 00                	push   $0x0
  101ffb:	eb d3                	jmp    101fd0 <exception_handler>

00101ffd <exception_1>:
  101ffd:	fa                   	cli    
  101ffe:	6a 00                	push   $0x0
  102000:	6a 01                	push   $0x1
  102002:	eb cc                	jmp    101fd0 <exception_handler>

00102004 <exception_2>:
  102004:	fa                   	cli    
  102005:	6a 00                	push   $0x0
  102007:	6a 02                	push   $0x2
  102009:	eb c5                	jmp    101fd0 <exception_handler>

0010200b <exception_3>:
  10200b:	fa                   	cli    
  10200c:	6a 00                	push   $0x0
  10200e:	6a 03                	push   $0x3
  102010:	eb be                	jmp    101fd0 <exception_handler>

00102012 <exception_4>:
  102012:	fa                   	cli    
  102013:	6a 00                	push   $0x0
  102015:	6a 04                	push   $0x4
  102017:	eb b7                	jmp    101fd0 <exception_handler>

00102019 <exception_5>:
  102019:	fa                   	cli    
  10201a:	6a 00                	push   $0x0
  10201c:	6a 05                	push   $0x5
  10201e:	eb b0                	jmp    101fd0 <exception_handler>

00102020 <exception_6>:
  102020:	fa                   	cli    
  102021:	6a 00                	push   $0x0
  102023:	6a 06                	push   $0x6
  102025:	eb a9                	jmp    101fd0 <exception_handler>

00102027 <exception_7>:
  102027:	fa                   	cli    
  102028:	6a 00                	push   $0x0
  10202a:	6a 07                	push   $0x7
  10202c:	eb a2                	jmp    101fd0 <exception_handler>

0010202e <exception_8>:
  10202e:	fa                   	cli    
  10202f:	6a 08                	push   $0x8
  102031:	eb 9d                	jmp    101fd0 <exception_handler>

00102033 <exception_9>:
  102033:	fa                   	cli    
  102034:	6a 00                	push   $0x0
  102036:	6a 09                	push   $0x9
  102038:	eb 96                	jmp    101fd0 <exception_handler>

0010203a <exception_10>:
  10203a:	fa                   	cli    
  10203b:	6a 0a                	push   $0xa
  10203d:	eb 91                	jmp    101fd0 <exception_handler>

0010203f <exception_11>:
  10203f:	fa                   	cli    
  102040:	6a 0b                	push   $0xb
  102042:	eb 8c                	jmp    101fd0 <exception_handler>

00102044 <exception_12>:
  102044:	fa                   	cli    
  102045:	6a 0c                	push   $0xc
  102047:	eb 87                	jmp    101fd0 <exception_handler>

00102049 <exception_13>:
  102049:	fa                   	cli    
  10204a:	6a 0d                	push   $0xd
  10204c:	eb 82                	jmp    101fd0 <exception_handler>

0010204e <exception_14>:
  10204e:	fa                   	cli    
  10204f:	6a 0e                	push   $0xe
  102051:	e9 7a ff ff ff       	jmp    101fd0 <exception_handler>

00102056 <exception_15>:
  102056:	fa                   	cli    
  102057:	6a 00                	push   $0x0
  102059:	6a 0f                	push   $0xf
  10205b:	e9 70 ff ff ff       	jmp    101fd0 <exception_handler>

00102060 <exception_16>:
  102060:	fa                   	cli    
  102061:	6a 00                	push   $0x0
  102063:	6a 10                	push   $0x10
  102065:	e9 66 ff ff ff       	jmp    101fd0 <exception_handler>

0010206a <exception_17>:
  10206a:	fa                   	cli    
  10206b:	6a 00                	push   $0x0
  10206d:	6a 11                	push   $0x11
  10206f:	e9 5c ff ff ff       	jmp    101fd0 <exception_handler>

00102074 <exception_18>:
  102074:	fa                   	cli    
  102075:	6a 00                	push   $0x0
  102077:	6a 12                	push   $0x12
  102079:	e9 52 ff ff ff       	jmp    101fd0 <exception_handler>

0010207e <exception_19>:
  10207e:	fa                   	cli    
  10207f:	6a 00                	push   $0x0
  102081:	6a 13                	push   $0x13
  102083:	e9 48 ff ff ff       	jmp    101fd0 <exception_handler>

00102088 <exception_20>:
  102088:	fa                   	cli    
  102089:	6a 00                	push   $0x0
  10208b:	6a 14                	push   $0x14
  10208d:	e9 3e ff ff ff       	jmp    101fd0 <exception_handler>

00102092 <exception_21>:
  102092:	fa                   	cli    
  102093:	6a 00                	push   $0x0
  102095:	6a 15                	push   $0x15
  102097:	e9 34 ff ff ff       	jmp    101fd0 <exception_handler>

0010209c <exception_22>:
  10209c:	fa                   	cli    
  10209d:	6a 00                	push   $0x0
  10209f:	6a 16                	push   $0x16
  1020a1:	e9 2a ff ff ff       	jmp    101fd0 <exception_handler>

001020a6 <exception_23>:
  1020a6:	fa                   	cli    
  1020a7:	6a 00                	push   $0x0
  1020a9:	6a 17                	push   $0x17
  1020ab:	e9 20 ff ff ff       	jmp    101fd0 <exception_handler>

001020b0 <exception_24>:
  1020b0:	fa                   	cli    
  1020b1:	6a 00                	push   $0x0
  1020b3:	6a 18                	push   $0x18
  1020b5:	e9 16 ff ff ff       	jmp    101fd0 <exception_handler>

001020ba <exception_25>:
  1020ba:	fa                   	cli    
  1020bb:	6a 00                	push   $0x0
  1020bd:	6a 19                	push   $0x19
  1020bf:	e9 0c ff ff ff       	jmp    101fd0 <exception_handler>

001020c4 <exception_26>:
  1020c4:	fa                   	cli    
  1020c5:	6a 00                	push   $0x0
  1020c7:	6a 1a                	push   $0x1a
  1020c9:	e9 02 ff ff ff       	jmp    101fd0 <exception_handler>

001020ce <exception_27>:
  1020ce:	fa                   	cli    
  1020cf:	6a 00                	push   $0x0
  1020d1:	6a 1b                	push   $0x1b
  1020d3:	e9 f8 fe ff ff       	jmp    101fd0 <exception_handler>

001020d8 <exception_28>:
  1020d8:	fa                   	cli    
  1020d9:	6a 00                	push   $0x0
  1020db:	6a 1c                	push   $0x1c
  1020dd:	e9 ee fe ff ff       	jmp    101fd0 <exception_handler>

001020e2 <exception_29>:
  1020e2:	fa                   	cli    
  1020e3:	6a 00                	push   $0x0
  1020e5:	6a 1d                	push   $0x1d
  1020e7:	e9 e4 fe ff ff       	jmp    101fd0 <exception_handler>

001020ec <exception_30>:
  1020ec:	fa                   	cli    
  1020ed:	6a 00                	push   $0x0
  1020ef:	6a 1e                	push   $0x1e
  1020f1:	e9 da fe ff ff       	jmp    101fd0 <exception_handler>

001020f6 <exception_31>:
  1020f6:	fa                   	cli    
  1020f7:	6a 00                	push   $0x0
  1020f9:	6a 1f                	push   $0x1f
  1020fb:	e9 d0 fe ff ff       	jmp    101fd0 <exception_handler>

00102100 <exception_128>:
  102100:	fa                   	cli    
  102101:	6a 00                	push   $0x0
  102103:	68 80 00 00 00       	push   $0x80
  102108:	e9 c3 fe ff ff       	jmp    101fd0 <exception_handler>
  10210d:	66 90                	xchg   %ax,%ax
  10210f:	90                   	nop

00102110 <load_gdt>:
  102110:	8b 44 24 04          	mov    0x4(%esp),%eax
  102114:	0f 01 10             	lgdtl  (%eax)
  102117:	66 b8 10 00          	mov    $0x10,%ax
  10211b:	8e d8                	mov    %eax,%ds
  10211d:	8e c0                	mov    %eax,%es
  10211f:	8e e0                	mov    %eax,%fs
  102121:	8e e8                	mov    %eax,%gs
  102123:	8e d0                	mov    %eax,%ss
  102125:	fa                   	cli    
  102126:	0f 20 c0             	mov    %cr0,%eax
  102129:	83 c8 01             	or     $0x1,%eax
  10212c:	0f 22 c0             	mov    %eax,%cr0
  10212f:	ea 36 21 10 00 08 00 	ljmp   $0x8,$0x102136

00102136 <far_jump>:
  102136:	c3                   	ret    

00102137 <pmm_mmap_set>:
  102137:	55                   	push   %ebp
  102138:	89 e5                	mov    %esp,%ebp
  10213a:	57                   	push   %edi
  10213b:	56                   	push   %esi
  10213c:	53                   	push   %ebx
  10213d:	e8 ca 2e 00 00       	call   10500c <__x86.get_pc_thunk.dx>
  102142:	81 c2 be 6e 00 00    	add    $0x6ebe,%edx
  102148:	8b b2 78 12 00 00    	mov    0x1278(%edx),%esi
  10214e:	8b 45 08             	mov    0x8(%ebp),%eax
  102151:	8d 48 1f             	lea    0x1f(%eax),%ecx
  102154:	85 c0                	test   %eax,%eax
  102156:	0f 48 c1             	cmovs  %ecx,%eax
  102159:	c1 f8 05             	sar    $0x5,%eax
  10215c:	89 c3                	mov    %eax,%ebx
  10215e:	89 d8                	mov    %ebx,%eax
  102160:	c1 e0 02             	shl    $0x2,%eax
  102163:	01 f0                	add    %esi,%eax
  102165:	8b 30                	mov    (%eax),%esi
  102167:	8b 45 08             	mov    0x8(%ebp),%eax
  10216a:	89 c1                	mov    %eax,%ecx
  10216c:	c1 f9 1f             	sar    $0x1f,%ecx
  10216f:	c1 e9 1b             	shr    $0x1b,%ecx
  102172:	01 c8                	add    %ecx,%eax
  102174:	83 e0 1f             	and    $0x1f,%eax
  102177:	29 c8                	sub    %ecx,%eax
  102179:	bf 01 00 00 00       	mov    $0x1,%edi
  10217e:	89 c1                	mov    %eax,%ecx
  102180:	d3 e7                	shl    %cl,%edi
  102182:	89 f8                	mov    %edi,%eax
  102184:	89 c1                	mov    %eax,%ecx
  102186:	8b 82 78 12 00 00    	mov    0x1278(%edx),%eax
  10218c:	89 da                	mov    %ebx,%edx
  10218e:	c1 e2 02             	shl    $0x2,%edx
  102191:	01 d0                	add    %edx,%eax
  102193:	09 ce                	or     %ecx,%esi
  102195:	89 f2                	mov    %esi,%edx
  102197:	89 10                	mov    %edx,(%eax)
  102199:	90                   	nop
  10219a:	5b                   	pop    %ebx
  10219b:	5e                   	pop    %esi
  10219c:	5f                   	pop    %edi
  10219d:	5d                   	pop    %ebp
  10219e:	c3                   	ret    

0010219f <pmm_mmap_unset>:
  10219f:	55                   	push   %ebp
  1021a0:	89 e5                	mov    %esp,%ebp
  1021a2:	57                   	push   %edi
  1021a3:	56                   	push   %esi
  1021a4:	53                   	push   %ebx
  1021a5:	e8 62 2e 00 00       	call   10500c <__x86.get_pc_thunk.dx>
  1021aa:	81 c2 56 6e 00 00    	add    $0x6e56,%edx
  1021b0:	8b b2 78 12 00 00    	mov    0x1278(%edx),%esi
  1021b6:	8b 45 08             	mov    0x8(%ebp),%eax
  1021b9:	8d 48 1f             	lea    0x1f(%eax),%ecx
  1021bc:	85 c0                	test   %eax,%eax
  1021be:	0f 48 c1             	cmovs  %ecx,%eax
  1021c1:	c1 f8 05             	sar    $0x5,%eax
  1021c4:	89 c3                	mov    %eax,%ebx
  1021c6:	89 d8                	mov    %ebx,%eax
  1021c8:	c1 e0 02             	shl    $0x2,%eax
  1021cb:	01 f0                	add    %esi,%eax
  1021cd:	8b 30                	mov    (%eax),%esi
  1021cf:	8b 45 08             	mov    0x8(%ebp),%eax
  1021d2:	89 c1                	mov    %eax,%ecx
  1021d4:	c1 f9 1f             	sar    $0x1f,%ecx
  1021d7:	c1 e9 1b             	shr    $0x1b,%ecx
  1021da:	01 c8                	add    %ecx,%eax
  1021dc:	83 e0 1f             	and    $0x1f,%eax
  1021df:	29 c8                	sub    %ecx,%eax
  1021e1:	bf 01 00 00 00       	mov    $0x1,%edi
  1021e6:	89 c1                	mov    %eax,%ecx
  1021e8:	d3 e7                	shl    %cl,%edi
  1021ea:	89 f8                	mov    %edi,%eax
  1021ec:	f7 d0                	not    %eax
  1021ee:	89 c1                	mov    %eax,%ecx
  1021f0:	8b 82 78 12 00 00    	mov    0x1278(%edx),%eax
  1021f6:	89 da                	mov    %ebx,%edx
  1021f8:	c1 e2 02             	shl    $0x2,%edx
  1021fb:	01 d0                	add    %edx,%eax
  1021fd:	21 ce                	and    %ecx,%esi
  1021ff:	89 f2                	mov    %esi,%edx
  102201:	89 10                	mov    %edx,(%eax)
  102203:	90                   	nop
  102204:	5b                   	pop    %ebx
  102205:	5e                   	pop    %esi
  102206:	5f                   	pop    %edi
  102207:	5d                   	pop    %ebp
  102208:	c3                   	ret    

00102209 <pmm_mmap_get>:
  102209:	55                   	push   %ebp
  10220a:	89 e5                	mov    %esp,%ebp
  10220c:	53                   	push   %ebx
  10220d:	e8 f2 2d 00 00       	call   105004 <__x86.get_pc_thunk.ax>
  102212:	05 ee 6d 00 00       	add    $0x6dee,%eax
  102217:	8b 88 78 12 00 00    	mov    0x1278(%eax),%ecx
  10221d:	8b 45 08             	mov    0x8(%ebp),%eax
  102220:	8d 50 1f             	lea    0x1f(%eax),%edx
  102223:	85 c0                	test   %eax,%eax
  102225:	0f 48 c2             	cmovs  %edx,%eax
  102228:	c1 f8 05             	sar    $0x5,%eax
  10222b:	c1 e0 02             	shl    $0x2,%eax
  10222e:	01 c8                	add    %ecx,%eax
  102230:	8b 00                	mov    (%eax),%eax
  102232:	89 c3                	mov    %eax,%ebx
  102234:	8b 45 08             	mov    0x8(%ebp),%eax
  102237:	99                   	cltd   
  102238:	c1 ea 1b             	shr    $0x1b,%edx
  10223b:	01 d0                	add    %edx,%eax
  10223d:	83 e0 1f             	and    $0x1f,%eax
  102240:	29 d0                	sub    %edx,%eax
  102242:	ba 01 00 00 00       	mov    $0x1,%edx
  102247:	89 c1                	mov    %eax,%ecx
  102249:	d3 e2                	shl    %cl,%edx
  10224b:	89 d0                	mov    %edx,%eax
  10224d:	21 d8                	and    %ebx,%eax
  10224f:	8b 5d fc             	mov    -0x4(%ebp),%ebx
  102252:	c9                   	leave  
  102253:	c3                   	ret    

00102254 <pmm_first_free>:
  102254:	55                   	push   %ebp
  102255:	89 e5                	mov    %esp,%ebp
  102257:	53                   	push   %ebx
  102258:	83 ec 10             	sub    $0x10,%esp
  10225b:	e8 a4 2d 00 00       	call   105004 <__x86.get_pc_thunk.ax>
  102260:	05 a0 6d 00 00       	add    $0x6da0,%eax
  102265:	c7 45 f8 00 00 00 00 	movl   $0x0,-0x8(%ebp)
  10226c:	eb 65                	jmp    1022d3 <pmm_first_free+0x7f>
  10226e:	8b 88 78 12 00 00    	mov    0x1278(%eax),%ecx
  102274:	8b 55 f8             	mov    -0x8(%ebp),%edx
  102277:	c1 e2 02             	shl    $0x2,%edx
  10227a:	01 ca                	add    %ecx,%edx
  10227c:	8b 12                	mov    (%edx),%edx
  10227e:	83 fa ff             	cmp    $0xffffffff,%edx
  102281:	74 4c                	je     1022cf <pmm_first_free+0x7b>
  102283:	c7 45 f4 00 00 00 00 	movl   $0x0,-0xc(%ebp)
  10228a:	eb 3d                	jmp    1022c9 <pmm_first_free+0x75>
  10228c:	8b 55 f4             	mov    -0xc(%ebp),%edx
  10228f:	bb 01 00 00 00       	mov    $0x1,%ebx
  102294:	89 d1                	mov    %edx,%ecx
  102296:	d3 e3                	shl    %cl,%ebx
  102298:	89 da                	mov    %ebx,%edx
  10229a:	89 55 f0             	mov    %edx,-0x10(%ebp)
  10229d:	8b 88 78 12 00 00    	mov    0x1278(%eax),%ecx
  1022a3:	8b 55 f8             	mov    -0x8(%ebp),%edx
  1022a6:	c1 e2 02             	shl    $0x2,%edx
  1022a9:	01 ca                	add    %ecx,%edx
  1022ab:	8b 0a                	mov    (%edx),%ecx
  1022ad:	8b 55 f0             	mov    -0x10(%ebp),%edx
  1022b0:	21 ca                	and    %ecx,%edx
  1022b2:	85 d2                	test   %edx,%edx
  1022b4:	75 0f                	jne    1022c5 <pmm_first_free+0x71>
  1022b6:	8b 45 f8             	mov    -0x8(%ebp),%eax
  1022b9:	c1 e0 05             	shl    $0x5,%eax
  1022bc:	89 c2                	mov    %eax,%edx
  1022be:	8b 45 f4             	mov    -0xc(%ebp),%eax
  1022c1:	01 d0                	add    %edx,%eax
  1022c3:	eb 1e                	jmp    1022e3 <pmm_first_free+0x8f>
  1022c5:	83 45 f4 01          	addl   $0x1,-0xc(%ebp)
  1022c9:	83 7d f4 1f          	cmpl   $0x1f,-0xc(%ebp)
  1022cd:	76 bd                	jbe    10228c <pmm_first_free+0x38>
  1022cf:	83 45 f8 01          	addl   $0x1,-0x8(%ebp)
  1022d3:	8b 90 6c 12 00 00    	mov    0x126c(%eax),%edx
  1022d9:	39 55 f8             	cmp    %edx,-0x8(%ebp)
  1022dc:	72 90                	jb     10226e <pmm_first_free+0x1a>
  1022de:	b8 ff ff ff ff       	mov    $0xffffffff,%eax
  1022e3:	8b 5d fc             	mov    -0x4(%ebp),%ebx
  1022e6:	c9                   	leave  
  1022e7:	c3                   	ret    

001022e8 <pmm_next_free>:
  1022e8:	55                   	push   %ebp
  1022e9:	89 e5                	mov    %esp,%ebp
  1022eb:	53                   	push   %ebx
  1022ec:	83 ec 20             	sub    $0x20,%esp
  1022ef:	e8 10 2d 00 00       	call   105004 <__x86.get_pc_thunk.ax>
  1022f4:	05 0c 6d 00 00       	add    $0x6d0c,%eax
  1022f9:	c7 45 ec 00 00 00 00 	movl   $0x0,-0x14(%ebp)
  102300:	83 7d 08 00          	cmpl   $0x0,0x8(%ebp)
  102304:	75 0a                	jne    102310 <pmm_next_free+0x28>
  102306:	b8 ff ff ff ff       	mov    $0xffffffff,%eax
  10230b:	e9 c4 00 00 00       	jmp    1023d4 <pmm_next_free+0xec>
  102310:	83 7d 08 01          	cmpl   $0x1,0x8(%ebp)
  102314:	75 0a                	jne    102320 <pmm_next_free+0x38>
  102316:	e8 39 ff ff ff       	call   102254 <pmm_first_free>
  10231b:	e9 b4 00 00 00       	jmp    1023d4 <pmm_next_free+0xec>
  102320:	c7 45 f8 00 00 00 00 	movl   $0x0,-0x8(%ebp)
  102327:	e9 94 00 00 00       	jmp    1023c0 <pmm_next_free+0xd8>
  10232c:	8b 88 78 12 00 00    	mov    0x1278(%eax),%ecx
  102332:	8b 55 f8             	mov    -0x8(%ebp),%edx
  102335:	c1 e2 02             	shl    $0x2,%edx
  102338:	01 ca                	add    %ecx,%edx
  10233a:	8b 12                	mov    (%edx),%edx
  10233c:	83 fa ff             	cmp    $0xffffffff,%edx
  10233f:	74 7b                	je     1023bc <pmm_next_free+0xd4>
  102341:	c7 45 f4 00 00 00 00 	movl   $0x0,-0xc(%ebp)
  102348:	eb 6c                	jmp    1023b6 <pmm_next_free+0xce>
  10234a:	8b 55 f4             	mov    -0xc(%ebp),%edx
  10234d:	bb 01 00 00 00       	mov    $0x1,%ebx
  102352:	89 d1                	mov    %edx,%ecx
  102354:	d3 e3                	shl    %cl,%ebx
  102356:	89 da                	mov    %ebx,%edx
  102358:	89 55 e8             	mov    %edx,-0x18(%ebp)
  10235b:	8b 88 78 12 00 00    	mov    0x1278(%eax),%ecx
  102361:	8b 55 f8             	mov    -0x8(%ebp),%edx
  102364:	c1 e2 02             	shl    $0x2,%edx
  102367:	01 ca                	add    %ecx,%edx
  102369:	8b 0a                	mov    (%edx),%ecx
  10236b:	8b 55 e8             	mov    -0x18(%ebp),%edx
  10236e:	21 ca                	and    %ecx,%edx
  102370:	85 d2                	test   %edx,%edx
  102372:	75 3e                	jne    1023b2 <pmm_next_free+0xca>
  102374:	8b 55 f4             	mov    -0xc(%ebp),%edx
  102377:	89 55 f0             	mov    %edx,-0x10(%ebp)
  10237a:	eb 30                	jmp    1023ac <pmm_next_free+0xc4>
  10237c:	8b 55 f0             	mov    -0x10(%ebp),%edx
  10237f:	bb 01 00 00 00       	mov    $0x1,%ebx
  102384:	89 d1                	mov    %edx,%ecx
  102386:	d3 e3                	shl    %cl,%ebx
  102388:	89 da                	mov    %ebx,%edx
  10238a:	89 55 e8             	mov    %edx,-0x18(%ebp)
  10238d:	83 45 ec 01          	addl   $0x1,-0x14(%ebp)
  102391:	8b 55 ec             	mov    -0x14(%ebp),%edx
  102394:	3b 55 08             	cmp    0x8(%ebp),%edx
  102397:	75 0f                	jne    1023a8 <pmm_next_free+0xc0>
  102399:	8b 45 f8             	mov    -0x8(%ebp),%eax
  10239c:	c1 e0 05             	shl    $0x5,%eax
  10239f:	89 c2                	mov    %eax,%edx
  1023a1:	8b 45 f4             	mov    -0xc(%ebp),%eax
  1023a4:	01 d0                	add    %edx,%eax
  1023a6:	eb 2c                	jmp    1023d4 <pmm_next_free+0xec>
  1023a8:	83 45 f0 01          	addl   $0x1,-0x10(%ebp)
  1023ac:	83 7d f0 1f          	cmpl   $0x1f,-0x10(%ebp)
  1023b0:	76 ca                	jbe    10237c <pmm_next_free+0x94>
  1023b2:	83 45 f4 01          	addl   $0x1,-0xc(%ebp)
  1023b6:	83 7d f4 1f          	cmpl   $0x1f,-0xc(%ebp)
  1023ba:	76 8e                	jbe    10234a <pmm_next_free+0x62>
  1023bc:	83 45 f8 01          	addl   $0x1,-0x8(%ebp)
  1023c0:	8b 90 6c 12 00 00    	mov    0x126c(%eax),%edx
  1023c6:	39 55 f8             	cmp    %edx,-0x8(%ebp)
  1023c9:	0f 82 5d ff ff ff    	jb     10232c <pmm_next_free+0x44>
  1023cf:	b8 ff ff ff ff       	mov    $0xffffffff,%eax
  1023d4:	8b 5d fc             	mov    -0x4(%ebp),%ebx
  1023d7:	c9                   	leave  
  1023d8:	c3                   	ret    

001023d9 <pmm_initialize>:
  1023d9:	55                   	push   %ebp
  1023da:	89 e5                	mov    %esp,%ebp
  1023dc:	53                   	push   %ebx
  1023dd:	83 ec 04             	sub    $0x4,%esp
  1023e0:	e8 1b 2c 00 00       	call   105000 <__kernel_text_section_end>
  1023e5:	81 c3 1b 6c 00 00    	add    $0x6c1b,%ebx
  1023eb:	8b 45 0c             	mov    0xc(%ebp),%eax
  1023ee:	89 83 68 12 00 00    	mov    %eax,0x1268(%ebx)
  1023f4:	8b 45 08             	mov    0x8(%ebp),%eax
  1023f7:	89 83 78 12 00 00    	mov    %eax,0x1278(%ebx)
  1023fd:	8b 45 0c             	mov    0xc(%ebp),%eax
  102400:	c1 e8 0c             	shr    $0xc,%eax
  102403:	89 83 6c 12 00 00    	mov    %eax,0x126c(%ebx)
  102409:	8b 83 6c 12 00 00    	mov    0x126c(%ebx),%eax
  10240f:	89 83 70 12 00 00    	mov    %eax,0x1270(%ebx)
  102415:	8b 83 6c 12 00 00    	mov    0x126c(%ebx),%eax
  10241b:	8d 14 85 00 00 00 00 	lea    0x0(,%eax,4),%edx
  102422:	8b 83 78 12 00 00    	mov    0x1278(%ebx),%eax
  102428:	83 ec 04             	sub    $0x4,%esp
  10242b:	52                   	push   %edx
  10242c:	6a ff                	push   $0xffffffff
  10242e:	50                   	push   %eax
  10242f:	e8 eb 0b 00 00       	call   10301f <kmemset>
  102434:	83 c4 10             	add    $0x10,%esp
  102437:	8b 93 78 12 00 00    	mov    0x1278(%ebx),%edx
  10243d:	8b 83 6c 12 00 00    	mov    0x126c(%ebx),%eax
  102443:	c1 e0 02             	shl    $0x2,%eax
  102446:	01 d0                	add    %edx,%eax
  102448:	89 83 74 12 00 00    	mov    %eax,0x1274(%ebx)
  10244e:	90                   	nop
  10244f:	8b 5d fc             	mov    -0x4(%ebp),%ebx
  102452:	c9                   	leave  
  102453:	c3                   	ret    

00102454 <pmm_initialize_region>:
  102454:	55                   	push   %ebp
  102455:	89 e5                	mov    %esp,%ebp
  102457:	53                   	push   %ebx
  102458:	83 ec 10             	sub    $0x10,%esp
  10245b:	e8 a0 2b 00 00       	call   105000 <__kernel_text_section_end>
  102460:	81 c3 a0 6b 00 00    	add    $0x6ba0,%ebx
  102466:	8b 45 08             	mov    0x8(%ebp),%eax
  102469:	c1 e8 0c             	shr    $0xc,%eax
  10246c:	89 45 f8             	mov    %eax,-0x8(%ebp)
  10246f:	8b 45 0c             	mov    0xc(%ebp),%eax
  102472:	c1 e8 0c             	shr    $0xc,%eax
  102475:	89 45 f4             	mov    %eax,-0xc(%ebp)
  102478:	eb 25                	jmp    10249f <pmm_initialize_region+0x4b>
  10247a:	8b 45 f8             	mov    -0x8(%ebp),%eax
  10247d:	8d 50 01             	lea    0x1(%eax),%edx
  102480:	89 55 f8             	mov    %edx,-0x8(%ebp)
  102483:	50                   	push   %eax
  102484:	e8 16 fd ff ff       	call   10219f <pmm_mmap_unset>
  102489:	83 c4 04             	add    $0x4,%esp
  10248c:	8b 83 70 12 00 00    	mov    0x1270(%ebx),%eax
  102492:	83 e8 01             	sub    $0x1,%eax
  102495:	89 83 70 12 00 00    	mov    %eax,0x1270(%ebx)
  10249b:	83 6d f4 01          	subl   $0x1,-0xc(%ebp)
  10249f:	83 7d f4 00          	cmpl   $0x0,-0xc(%ebp)
  1024a3:	79 d5                	jns    10247a <pmm_initialize_region+0x26>
  1024a5:	90                   	nop
  1024a6:	90                   	nop
  1024a7:	8b 5d fc             	mov    -0x4(%ebp),%ebx
  1024aa:	c9                   	leave  
  1024ab:	c3                   	ret    

001024ac <pmm_uninitialize_region>:
  1024ac:	55                   	push   %ebp
  1024ad:	89 e5                	mov    %esp,%ebp
  1024af:	53                   	push   %ebx
  1024b0:	83 ec 10             	sub    $0x10,%esp
  1024b3:	e8 48 2b 00 00       	call   105000 <__kernel_text_section_end>
  1024b8:	81 c3 48 6b 00 00    	add    $0x6b48,%ebx
  1024be:	8b 45 08             	mov    0x8(%ebp),%eax
  1024c1:	c1 e8 0c             	shr    $0xc,%eax
  1024c4:	89 45 f8             	mov    %eax,-0x8(%ebp)
  1024c7:	8b 45 0c             	mov    0xc(%ebp),%eax
  1024ca:	c1 e8 0c             	shr    $0xc,%eax
  1024cd:	89 45 f4             	mov    %eax,-0xc(%ebp)
  1024d0:	eb 25                	jmp    1024f7 <pmm_uninitialize_region+0x4b>
  1024d2:	8b 45 f8             	mov    -0x8(%ebp),%eax
  1024d5:	8d 50 01             	lea    0x1(%eax),%edx
  1024d8:	89 55 f8             	mov    %edx,-0x8(%ebp)
  1024db:	50                   	push   %eax
  1024dc:	e8 56 fc ff ff       	call   102137 <pmm_mmap_set>
  1024e1:	83 c4 04             	add    $0x4,%esp
  1024e4:	8b 83 70 12 00 00    	mov    0x1270(%ebx),%eax
  1024ea:	83 c0 01             	add    $0x1,%eax
  1024ed:	89 83 70 12 00 00    	mov    %eax,0x1270(%ebx)
  1024f3:	83 6d f4 01          	subl   $0x1,-0xc(%ebp)
  1024f7:	83 7d f4 00          	cmpl   $0x0,-0xc(%ebp)
  1024fb:	79 d5                	jns    1024d2 <pmm_uninitialize_region+0x26>
  1024fd:	90                   	nop
  1024fe:	90                   	nop
  1024ff:	8b 5d fc             	mov    -0x4(%ebp),%ebx
  102502:	c9                   	leave  
  102503:	c3                   	ret    

00102504 <pmm_allocate_block>:
  102504:	55                   	push   %ebp
  102505:	89 e5                	mov    %esp,%ebp
  102507:	53                   	push   %ebx
  102508:	83 ec 10             	sub    $0x10,%esp
  10250b:	e8 f0 2a 00 00       	call   105000 <__kernel_text_section_end>
  102510:	81 c3 f0 6a 00 00    	add    $0x6af0,%ebx
  102516:	8b 93 6c 12 00 00    	mov    0x126c(%ebx),%edx
  10251c:	8b 83 70 12 00 00    	mov    0x1270(%ebx),%eax
  102522:	39 c2                	cmp    %eax,%edx
  102524:	75 07                	jne    10252d <pmm_allocate_block+0x29>
  102526:	b8 00 00 00 00       	mov    $0x0,%eax
  10252b:	eb 45                	jmp    102572 <pmm_allocate_block+0x6e>
  10252d:	e8 22 fd ff ff       	call   102254 <pmm_first_free>
  102532:	89 45 f8             	mov    %eax,-0x8(%ebp)
  102535:	83 7d f8 ff          	cmpl   $0xffffffff,-0x8(%ebp)
  102539:	75 07                	jne    102542 <pmm_allocate_block+0x3e>
  10253b:	b8 00 00 00 00       	mov    $0x0,%eax
  102540:	eb 30                	jmp    102572 <pmm_allocate_block+0x6e>
  102542:	ff 75 f8             	pushl  -0x8(%ebp)
  102545:	e8 ed fb ff ff       	call   102137 <pmm_mmap_set>
  10254a:	83 c4 04             	add    $0x4,%esp
  10254d:	8b 45 f8             	mov    -0x8(%ebp),%eax
  102550:	c1 e0 0c             	shl    $0xc,%eax
  102553:	89 c2                	mov    %eax,%edx
  102555:	8b 83 74 12 00 00    	mov    0x1274(%ebx),%eax
  10255b:	01 d0                	add    %edx,%eax
  10255d:	89 45 f4             	mov    %eax,-0xc(%ebp)
  102560:	8b 83 70 12 00 00    	mov    0x1270(%ebx),%eax
  102566:	83 c0 01             	add    $0x1,%eax
  102569:	89 83 70 12 00 00    	mov    %eax,0x1270(%ebx)
  10256f:	8b 45 f4             	mov    -0xc(%ebp),%eax
  102572:	8b 5d fc             	mov    -0x4(%ebp),%ebx
  102575:	c9                   	leave  
  102576:	c3                   	ret    

00102577 <pmm_allocate_blocks>:
  102577:	55                   	push   %ebp
  102578:	89 e5                	mov    %esp,%ebp
  10257a:	53                   	push   %ebx
  10257b:	83 ec 10             	sub    $0x10,%esp
  10257e:	e8 7d 2a 00 00       	call   105000 <__kernel_text_section_end>
  102583:	81 c3 7d 6a 00 00    	add    $0x6a7d,%ebx
  102589:	8b 93 6c 12 00 00    	mov    0x126c(%ebx),%edx
  10258f:	8b 83 70 12 00 00    	mov    0x1270(%ebx),%eax
  102595:	39 c2                	cmp    %eax,%edx
  102597:	75 07                	jne    1025a0 <pmm_allocate_blocks+0x29>
  102599:	b8 00 00 00 00       	mov    $0x0,%eax
  10259e:	eb 68                	jmp    102608 <pmm_allocate_blocks+0x91>
  1025a0:	ff 75 08             	pushl  0x8(%ebp)
  1025a3:	e8 40 fd ff ff       	call   1022e8 <pmm_next_free>
  1025a8:	83 c4 04             	add    $0x4,%esp
  1025ab:	89 45 f4             	mov    %eax,-0xc(%ebp)
  1025ae:	83 7d f4 ff          	cmpl   $0xffffffff,-0xc(%ebp)
  1025b2:	75 07                	jne    1025bb <pmm_allocate_blocks+0x44>
  1025b4:	b8 00 00 00 00       	mov    $0x0,%eax
  1025b9:	eb 4d                	jmp    102608 <pmm_allocate_blocks+0x91>
  1025bb:	c7 45 f8 00 00 00 00 	movl   $0x0,-0x8(%ebp)
  1025c2:	eb 15                	jmp    1025d9 <pmm_allocate_blocks+0x62>
  1025c4:	8b 55 f4             	mov    -0xc(%ebp),%edx
  1025c7:	8b 45 f8             	mov    -0x8(%ebp),%eax
  1025ca:	01 d0                	add    %edx,%eax
  1025cc:	50                   	push   %eax
  1025cd:	e8 65 fb ff ff       	call   102137 <pmm_mmap_set>
  1025d2:	83 c4 04             	add    $0x4,%esp
  1025d5:	83 45 f8 01          	addl   $0x1,-0x8(%ebp)
  1025d9:	8b 45 f8             	mov    -0x8(%ebp),%eax
  1025dc:	3b 45 08             	cmp    0x8(%ebp),%eax
  1025df:	72 e3                	jb     1025c4 <pmm_allocate_blocks+0x4d>
  1025e1:	8b 45 f4             	mov    -0xc(%ebp),%eax
  1025e4:	c1 e0 0c             	shl    $0xc,%eax
  1025e7:	89 c2                	mov    %eax,%edx
  1025e9:	8b 83 74 12 00 00    	mov    0x1274(%ebx),%eax
  1025ef:	01 d0                	add    %edx,%eax
  1025f1:	89 45 f0             	mov    %eax,-0x10(%ebp)
  1025f4:	8b 93 70 12 00 00    	mov    0x1270(%ebx),%edx
  1025fa:	8b 45 08             	mov    0x8(%ebp),%eax
  1025fd:	01 d0                	add    %edx,%eax
  1025ff:	89 83 70 12 00 00    	mov    %eax,0x1270(%ebx)
  102605:	8b 45 f0             	mov    -0x10(%ebp),%eax
  102608:	8b 5d fc             	mov    -0x4(%ebp),%ebx
  10260b:	c9                   	leave  
  10260c:	c3                   	ret    

0010260d <pmm_free_block>:
  10260d:	55                   	push   %ebp
  10260e:	89 e5                	mov    %esp,%ebp
  102610:	53                   	push   %ebx
  102611:	83 ec 10             	sub    $0x10,%esp
  102614:	e8 e7 29 00 00       	call   105000 <__kernel_text_section_end>
  102619:	81 c3 e7 69 00 00    	add    $0x69e7,%ebx
  10261f:	8b 45 08             	mov    0x8(%ebp),%eax
  102622:	89 45 f8             	mov    %eax,-0x8(%ebp)
  102625:	8b 83 74 12 00 00    	mov    0x1274(%ebx),%eax
  10262b:	29 45 f8             	sub    %eax,-0x8(%ebp)
  10262e:	8b 45 f8             	mov    -0x8(%ebp),%eax
  102631:	c1 e8 0c             	shr    $0xc,%eax
  102634:	89 45 f4             	mov    %eax,-0xc(%ebp)
  102637:	ff 75 f4             	pushl  -0xc(%ebp)
  10263a:	e8 60 fb ff ff       	call   10219f <pmm_mmap_unset>
  10263f:	83 c4 04             	add    $0x4,%esp
  102642:	8b 83 70 12 00 00    	mov    0x1270(%ebx),%eax
  102648:	83 e8 01             	sub    $0x1,%eax
  10264b:	89 83 70 12 00 00    	mov    %eax,0x1270(%ebx)
  102651:	90                   	nop
  102652:	8b 5d fc             	mov    -0x4(%ebp),%ebx
  102655:	c9                   	leave  
  102656:	c3                   	ret    

00102657 <pmm_free_blocks>:
  102657:	55                   	push   %ebp
  102658:	89 e5                	mov    %esp,%ebp
  10265a:	53                   	push   %ebx
  10265b:	83 ec 10             	sub    $0x10,%esp
  10265e:	e8 9d 29 00 00       	call   105000 <__kernel_text_section_end>
  102663:	81 c3 9d 69 00 00    	add    $0x699d,%ebx
  102669:	8b 45 08             	mov    0x8(%ebp),%eax
  10266c:	89 45 f4             	mov    %eax,-0xc(%ebp)
  10266f:	8b 83 74 12 00 00    	mov    0x1274(%ebx),%eax
  102675:	29 45 f4             	sub    %eax,-0xc(%ebp)
  102678:	8b 45 f4             	mov    -0xc(%ebp),%eax
  10267b:	c1 e8 0c             	shr    $0xc,%eax
  10267e:	89 45 f0             	mov    %eax,-0x10(%ebp)
  102681:	c7 45 f8 00 00 00 00 	movl   $0x0,-0x8(%ebp)
  102688:	eb 15                	jmp    10269f <pmm_free_blocks+0x48>
  10268a:	8b 55 f0             	mov    -0x10(%ebp),%edx
  10268d:	8b 45 f8             	mov    -0x8(%ebp),%eax
  102690:	01 d0                	add    %edx,%eax
  102692:	50                   	push   %eax
  102693:	e8 07 fb ff ff       	call   10219f <pmm_mmap_unset>
  102698:	83 c4 04             	add    $0x4,%esp
  10269b:	83 45 f8 01          	addl   $0x1,-0x8(%ebp)
  10269f:	8b 45 f8             	mov    -0x8(%ebp),%eax
  1026a2:	3b 45 0c             	cmp    0xc(%ebp),%eax
  1026a5:	72 e3                	jb     10268a <pmm_free_blocks+0x33>
  1026a7:	8b 83 70 12 00 00    	mov    0x1270(%ebx),%eax
  1026ad:	2b 45 0c             	sub    0xc(%ebp),%eax
  1026b0:	89 83 70 12 00 00    	mov    %eax,0x1270(%ebx)
  1026b6:	90                   	nop
  1026b7:	8b 5d fc             	mov    -0x4(%ebp),%ebx
  1026ba:	c9                   	leave  
  1026bb:	c3                   	ret    

001026bc <quantum_get_kernel_mmap>:
  1026bc:	55                   	push   %ebp
  1026bd:	89 e5                	mov    %esp,%ebp
  1026bf:	83 ec 10             	sub    $0x10,%esp
  1026c2:	e8 3d 29 00 00       	call   105004 <__x86.get_pc_thunk.ax>
  1026c7:	05 39 69 00 00       	add    $0x6939,%eax
  1026cc:	83 7d 08 00          	cmpl   $0x0,0x8(%ebp)
  1026d0:	75 0a                	jne    1026dc <quantum_get_kernel_mmap+0x20>
  1026d2:	b8 ff ff ff ff       	mov    $0xffffffff,%eax
  1026d7:	e9 93 01 00 00       	jmp    10286f <quantum_get_kernel_mmap+0x1b3>
  1026dc:	c7 c2 00 00 00 00    	mov    $0x0,%edx
  1026e2:	89 d1                	mov    %edx,%ecx
  1026e4:	8b 55 08             	mov    0x8(%ebp),%edx
  1026e7:	89 0a                	mov    %ecx,(%edx)
  1026e9:	c7 c2 00 b0 10 00    	mov    $0x10b000,%edx
  1026ef:	89 d1                	mov    %edx,%ecx
  1026f1:	8b 55 08             	mov    0x8(%ebp),%edx
  1026f4:	89 4a 04             	mov    %ecx,0x4(%edx)
  1026f7:	c7 c2 00 b0 10 00    	mov    $0x10b000,%edx
  1026fd:	89 d1                	mov    %edx,%ecx
  1026ff:	c7 c2 00 00 00 00    	mov    $0x0,%edx
  102705:	29 d1                	sub    %edx,%ecx
  102707:	8b 55 08             	mov    0x8(%ebp),%edx
  10270a:	89 4a 08             	mov    %ecx,0x8(%edx)
  10270d:	c7 c2 00 00 10 00    	mov    $0x100000,%edx
  102713:	89 d1                	mov    %edx,%ecx
  102715:	8b 55 08             	mov    0x8(%ebp),%edx
  102718:	89 4a 0c             	mov    %ecx,0xc(%edx)
  10271b:	c7 c2 00 50 10 00    	mov    $0x105000,%edx
  102721:	89 d1                	mov    %edx,%ecx
  102723:	8b 55 08             	mov    0x8(%ebp),%edx
  102726:	89 4a 10             	mov    %ecx,0x10(%edx)
  102729:	c7 c2 00 50 10 00    	mov    $0x105000,%edx
  10272f:	89 d1                	mov    %edx,%ecx
  102731:	c7 c2 00 00 10 00    	mov    $0x100000,%edx
  102737:	29 d1                	sub    %edx,%ecx
  102739:	8b 55 08             	mov    0x8(%ebp),%edx
  10273c:	89 4a 14             	mov    %ecx,0x14(%edx)
  10273f:	c7 c2 00 70 10 00    	mov    $0x107000,%edx
  102745:	89 d1                	mov    %edx,%ecx
  102747:	8b 55 08             	mov    0x8(%ebp),%edx
  10274a:	89 4a 18             	mov    %ecx,0x18(%edx)
  10274d:	c7 c2 00 90 10 00    	mov    $0x109000,%edx
  102753:	89 d1                	mov    %edx,%ecx
  102755:	8b 55 08             	mov    0x8(%ebp),%edx
  102758:	89 4a 1c             	mov    %ecx,0x1c(%edx)
  10275b:	c7 c2 00 90 10 00    	mov    $0x109000,%edx
  102761:	89 d1                	mov    %edx,%ecx
  102763:	c7 c2 00 70 10 00    	mov    $0x107000,%edx
  102769:	29 d1                	sub    %edx,%ecx
  10276b:	8b 55 08             	mov    0x8(%ebp),%edx
  10276e:	89 4a 20             	mov    %ecx,0x20(%edx)
  102771:	c7 c2 10 50 10 00    	mov    $0x105010,%edx
  102777:	89 d1                	mov    %edx,%ecx
  102779:	8b 55 08             	mov    0x8(%ebp),%edx
  10277c:	89 4a 24             	mov    %ecx,0x24(%edx)
  10277f:	c7 c2 9c 5c 10 00    	mov    $0x105c9c,%edx
  102785:	89 d1                	mov    %edx,%ecx
  102787:	8b 55 08             	mov    0x8(%ebp),%edx
  10278a:	89 4a 28             	mov    %ecx,0x28(%edx)
  10278d:	c7 c2 9c 5c 10 00    	mov    $0x105c9c,%edx
  102793:	89 d1                	mov    %edx,%ecx
  102795:	c7 c2 10 50 10 00    	mov    $0x105010,%edx
  10279b:	29 d1                	sub    %edx,%ecx
  10279d:	8b 55 08             	mov    0x8(%ebp),%edx
  1027a0:	89 4a 2c             	mov    %ecx,0x2c(%edx)
  1027a3:	c7 c2 c0 95 10 00    	mov    $0x1095c0,%edx
  1027a9:	89 d1                	mov    %edx,%ecx
  1027ab:	8b 55 08             	mov    0x8(%ebp),%edx
  1027ae:	89 4a 30             	mov    %ecx,0x30(%edx)
  1027b1:	c7 c2 00 b0 10 00    	mov    $0x10b000,%edx
  1027b7:	89 d1                	mov    %edx,%ecx
  1027b9:	8b 55 08             	mov    0x8(%ebp),%edx
  1027bc:	89 4a 34             	mov    %ecx,0x34(%edx)
  1027bf:	c7 c2 00 b0 10 00    	mov    $0x10b000,%edx
  1027c5:	c7 c0 c0 95 10 00    	mov    $0x1095c0,%eax
  1027cb:	29 c2                	sub    %eax,%edx
  1027cd:	8b 45 08             	mov    0x8(%ebp),%eax
  1027d0:	89 50 38             	mov    %edx,0x38(%eax)
  1027d3:	8b 45 0c             	mov    0xc(%ebp),%eax
  1027d6:	8b 50 04             	mov    0x4(%eax),%edx
  1027d9:	8b 45 0c             	mov    0xc(%ebp),%eax
  1027dc:	8b 40 08             	mov    0x8(%eax),%eax
  1027df:	01 c2                	add    %eax,%edx
  1027e1:	8b 45 08             	mov    0x8(%ebp),%eax
  1027e4:	89 50 3c             	mov    %edx,0x3c(%eax)
  1027e7:	c7 45 fc 00 00 00 00 	movl   $0x0,-0x4(%ebp)
  1027ee:	eb 6f                	jmp    10285f <quantum_get_kernel_mmap+0x1a3>
  1027f0:	8b 45 0c             	mov    0xc(%ebp),%eax
  1027f3:	8b 50 30             	mov    0x30(%eax),%edx
  1027f6:	8b 45 fc             	mov    -0x4(%ebp),%eax
  1027f9:	01 d0                	add    %edx,%eax
  1027fb:	89 45 f8             	mov    %eax,-0x8(%ebp)
  1027fe:	8b 45 f8             	mov    -0x8(%ebp),%eax
  102801:	8b 40 14             	mov    0x14(%eax),%eax
  102804:	83 f8 01             	cmp    $0x1,%eax
  102807:	75 51                	jne    10285a <quantum_get_kernel_mmap+0x19e>
  102809:	8b 45 f8             	mov    -0x8(%ebp),%eax
  10280c:	8b 50 04             	mov    0x4(%eax),%edx
  10280f:	8b 45 08             	mov    0x8(%ebp),%eax
  102812:	8b 40 0c             	mov    0xc(%eax),%eax
  102815:	39 c2                	cmp    %eax,%edx
  102817:	75 42                	jne    10285b <quantum_get_kernel_mmap+0x19f>
  102819:	8b 45 08             	mov    0x8(%ebp),%eax
  10281c:	8b 40 04             	mov    0x4(%eax),%eax
  10281f:	8d 90 00 00 10 00    	lea    0x100000(%eax),%edx
  102825:	8b 45 08             	mov    0x8(%ebp),%eax
  102828:	89 50 40             	mov    %edx,0x40(%eax)
  10282b:	8b 45 f8             	mov    -0x8(%ebp),%eax
  10282e:	8b 50 04             	mov    0x4(%eax),%edx
  102831:	8b 45 f8             	mov    -0x8(%ebp),%eax
  102834:	8b 40 0c             	mov    0xc(%eax),%eax
  102837:	01 c2                	add    %eax,%edx
  102839:	8b 45 08             	mov    0x8(%ebp),%eax
  10283c:	89 50 44             	mov    %edx,0x44(%eax)
  10283f:	8b 45 08             	mov    0x8(%ebp),%eax
  102842:	8b 50 44             	mov    0x44(%eax),%edx
  102845:	8b 45 08             	mov    0x8(%ebp),%eax
  102848:	8b 40 40             	mov    0x40(%eax),%eax
  10284b:	29 c2                	sub    %eax,%edx
  10284d:	8b 45 08             	mov    0x8(%ebp),%eax
  102850:	89 50 48             	mov    %edx,0x48(%eax)
  102853:	b8 00 00 00 00       	mov    $0x0,%eax
  102858:	eb 15                	jmp    10286f <quantum_get_kernel_mmap+0x1b3>
  10285a:	90                   	nop
  10285b:	83 45 fc 18          	addl   $0x18,-0x4(%ebp)
  10285f:	8b 45 0c             	mov    0xc(%ebp),%eax
  102862:	8b 40 2c             	mov    0x2c(%eax),%eax
  102865:	39 45 fc             	cmp    %eax,-0x4(%ebp)
  102868:	72 86                	jb     1027f0 <quantum_get_kernel_mmap+0x134>
  10286a:	b8 ff ff ff ff       	mov    $0xffffffff,%eax
  10286f:	c9                   	leave  
  102870:	c3                   	ret    

00102871 <quantum_info>:
  102871:	55                   	push   %ebp
  102872:	89 e5                	mov    %esp,%ebp
  102874:	53                   	push   %ebx
  102875:	83 ec 14             	sub    $0x14,%esp
  102878:	e8 83 27 00 00       	call   105000 <__kernel_text_section_end>
  10287d:	81 c3 83 67 00 00    	add    $0x6783,%ebx
  102883:	83 ec 0c             	sub    $0xc,%esp
  102886:	8d 83 ec c5 ff ff    	lea    -0x3a14(%ebx),%eax
  10288c:	50                   	push   %eax
  10288d:	e8 53 e3 ff ff       	call   100be5 <printf>
  102892:	83 c4 10             	add    $0x10,%esp
  102895:	83 7d 08 00          	cmpl   $0x0,0x8(%ebp)
  102899:	75 16                	jne    1028b1 <quantum_info+0x40>
  10289b:	83 ec 04             	sub    $0x4,%esp
  10289e:	6a 00                	push   $0x0
  1028a0:	68 ff 00 00 00       	push   $0xff
  1028a5:	6a 00                	push   $0x0
  1028a7:	e8 91 e0 ff ff       	call   10093d <print_set_color>
  1028ac:	83 c4 10             	add    $0x10,%esp
  1028af:	eb 14                	jmp    1028c5 <quantum_info+0x54>
  1028b1:	83 ec 04             	sub    $0x4,%esp
  1028b4:	6a 00                	push   $0x0
  1028b6:	6a 00                	push   $0x0
  1028b8:	68 ff 00 00 00       	push   $0xff
  1028bd:	e8 7b e0 ff ff       	call   10093d <print_set_color>
  1028c2:	83 c4 10             	add    $0x10,%esp
  1028c5:	83 ec 08             	sub    $0x8,%esp
  1028c8:	ff 75 0c             	pushl  0xc(%ebp)
  1028cb:	8d 83 ee c5 ff ff    	lea    -0x3a12(%ebx),%eax
  1028d1:	50                   	push   %eax
  1028d2:	e8 0e e3 ff ff       	call   100be5 <printf>
  1028d7:	83 c4 10             	add    $0x10,%esp
  1028da:	83 ec 04             	sub    $0x4,%esp
  1028dd:	68 ff 00 00 00       	push   $0xff
  1028e2:	68 ff 00 00 00       	push   $0xff
  1028e7:	68 ff 00 00 00       	push   $0xff
  1028ec:	e8 4c e0 ff ff       	call   10093d <print_set_color>
  1028f1:	83 c4 10             	add    $0x10,%esp
  1028f4:	83 ec 0c             	sub    $0xc,%esp
  1028f7:	8d 83 f1 c5 ff ff    	lea    -0x3a0f(%ebx),%eax
  1028fd:	50                   	push   %eax
  1028fe:	e8 e2 e2 ff ff       	call   100be5 <printf>
  102903:	83 c4 10             	add    $0x10,%esp
  102906:	8d 45 14             	lea    0x14(%ebp),%eax
  102909:	89 45 f4             	mov    %eax,-0xc(%ebp)
  10290c:	8b 45 f4             	mov    -0xc(%ebp),%eax
  10290f:	83 ec 08             	sub    $0x8,%esp
  102912:	50                   	push   %eax
  102913:	ff 75 10             	pushl  0x10(%ebp)
  102916:	e8 ea e4 ff ff       	call   100e05 <printf_va>
  10291b:	83 c4 10             	add    $0x10,%esp
  10291e:	e8 21 e1 ff ff       	call   100a44 <insert_newline>
  102923:	90                   	nop
  102924:	8b 5d fc             	mov    -0x4(%ebp),%ebx
  102927:	c9                   	leave  
  102928:	c3                   	ret    

00102929 <quantum_gdt_init>:
  102929:	55                   	push   %ebp
  10292a:	89 e5                	mov    %esp,%ebp
  10292c:	53                   	push   %ebx
  10292d:	83 ec 04             	sub    $0x4,%esp
  102930:	e8 cf 26 00 00       	call   105004 <__x86.get_pc_thunk.ax>
  102935:	05 cb 66 00 00       	add    $0x66cb,%eax
  10293a:	89 c3                	mov    %eax,%ebx
  10293c:	e8 dc f5 ff ff       	call   101f1d <gdt_enable>
  102941:	90                   	nop
  102942:	8b 5d fc             	mov    -0x4(%ebp),%ebx
  102945:	c9                   	leave  
  102946:	c3                   	ret    

00102947 <quantum_idt_init>:
  102947:	55                   	push   %ebp
  102948:	89 e5                	mov    %esp,%ebp
  10294a:	53                   	push   %ebx
  10294b:	83 ec 04             	sub    $0x4,%esp
  10294e:	e8 b1 26 00 00       	call   105004 <__x86.get_pc_thunk.ax>
  102953:	05 ad 66 00 00       	add    $0x66ad,%eax
  102958:	89 c3                	mov    %eax,%ebx
  10295a:	e8 ad ee ff ff       	call   10180c <idt_enable>
  10295f:	90                   	nop
  102960:	8b 5d fc             	mov    -0x4(%ebp),%ebx
  102963:	c9                   	leave  
  102964:	c3                   	ret    

00102965 <quantum_memory_init>:
  102965:	55                   	push   %ebp
  102966:	89 e5                	mov    %esp,%ebp
  102968:	53                   	push   %ebx
  102969:	83 ec 14             	sub    $0x14,%esp
  10296c:	e8 8f 26 00 00       	call   105000 <__kernel_text_section_end>
  102971:	81 c3 8f 66 00 00    	add    $0x668f,%ebx
  102977:	83 ec 0c             	sub    $0xc,%esp
  10297a:	6a 14                	push   $0x14
  10297c:	e8 f6 fb ff ff       	call   102577 <pmm_allocate_blocks>
  102981:	83 c4 10             	add    $0x10,%esp
  102984:	89 45 f4             	mov    %eax,-0xc(%ebp)
  102987:	83 ec 0c             	sub    $0xc,%esp
  10298a:	6a 01                	push   $0x1
  10298c:	e8 57 f9 ff ff       	call   1022e8 <pmm_next_free>
  102991:	83 c4 10             	add    $0x10,%esp
  102994:	c1 e0 0c             	shl    $0xc,%eax
  102997:	89 c2                	mov    %eax,%edx
  102999:	8b 45 f4             	mov    -0xc(%ebp),%eax
  10299c:	01 d0                	add    %edx,%eax
  10299e:	89 45 f0             	mov    %eax,-0x10(%ebp)
  1029a1:	83 ec 0c             	sub    $0xc,%esp
  1029a4:	ff 75 f0             	pushl  -0x10(%ebp)
  1029a7:	ff 75 f4             	pushl  -0xc(%ebp)
  1029aa:	8d 83 f4 c5 ff ff    	lea    -0x3a0c(%ebx),%eax
  1029b0:	50                   	push   %eax
  1029b1:	8d 83 2c c6 ff ff    	lea    -0x39d4(%ebx),%eax
  1029b7:	50                   	push   %eax
  1029b8:	6a 00                	push   $0x0
  1029ba:	e8 b2 fe ff ff       	call   102871 <quantum_info>
  1029bf:	83 c4 20             	add    $0x20,%esp
  1029c2:	83 ec 08             	sub    $0x8,%esp
  1029c5:	ff 75 f0             	pushl  -0x10(%ebp)
  1029c8:	ff 75 f4             	pushl  -0xc(%ebp)
  1029cb:	e8 6c 02 00 00       	call   102c3c <kmem_initialize>
  1029d0:	83 c4 10             	add    $0x10,%esp
  1029d3:	90                   	nop
  1029d4:	8b 5d fc             	mov    -0x4(%ebp),%ebx
  1029d7:	c9                   	leave  
  1029d8:	c3                   	ret    

001029d9 <quantum_keyboard_init>:
  1029d9:	55                   	push   %ebp
  1029da:	89 e5                	mov    %esp,%ebp
  1029dc:	53                   	push   %ebx
  1029dd:	83 ec 04             	sub    $0x4,%esp
  1029e0:	e8 1f 26 00 00       	call   105004 <__x86.get_pc_thunk.ax>
  1029e5:	05 1b 66 00 00       	add    $0x661b,%eax
  1029ea:	89 c3                	mov    %eax,%ebx
  1029ec:	e8 e9 0a 00 00       	call   1034da <keyboard_enable>
  1029f1:	90                   	nop
  1029f2:	8b 5d fc             	mov    -0x4(%ebp),%ebx
  1029f5:	c9                   	leave  
  1029f6:	c3                   	ret    

001029f7 <display_kernel_memory_map>:
  1029f7:	55                   	push   %ebp
  1029f8:	89 e5                	mov    %esp,%ebp
  1029fa:	53                   	push   %ebx
  1029fb:	83 ec 04             	sub    $0x4,%esp
  1029fe:	e8 fd 25 00 00       	call   105000 <__kernel_text_section_end>
  102a03:	81 c3 fd 65 00 00    	add    $0x65fd,%ebx
  102a09:	83 ec 0c             	sub    $0xc,%esp
  102a0c:	8d 83 32 c6 ff ff    	lea    -0x39ce(%ebx),%eax
  102a12:	50                   	push   %eax
  102a13:	e8 cd e1 ff ff       	call   100be5 <printf>
  102a18:	83 c4 10             	add    $0x10,%esp
  102a1b:	8b 45 08             	mov    0x8(%ebp),%eax
  102a1e:	8b 48 08             	mov    0x8(%eax),%ecx
  102a21:	8b 45 08             	mov    0x8(%ebp),%eax
  102a24:	8b 50 04             	mov    0x4(%eax),%edx
  102a27:	8b 45 08             	mov    0x8(%ebp),%eax
  102a2a:	8b 00                	mov    (%eax),%eax
  102a2c:	51                   	push   %ecx
  102a2d:	52                   	push   %edx
  102a2e:	50                   	push   %eax
  102a2f:	8d 83 3c c6 ff ff    	lea    -0x39c4(%ebx),%eax
  102a35:	50                   	push   %eax
  102a36:	e8 aa e1 ff ff       	call   100be5 <printf>
  102a3b:	83 c4 10             	add    $0x10,%esp
  102a3e:	8b 45 08             	mov    0x8(%ebp),%eax
  102a41:	8b 48 14             	mov    0x14(%eax),%ecx
  102a44:	8b 45 08             	mov    0x8(%ebp),%eax
  102a47:	8b 50 10             	mov    0x10(%eax),%edx
  102a4a:	8b 45 08             	mov    0x8(%ebp),%eax
  102a4d:	8b 40 0c             	mov    0xc(%eax),%eax
  102a50:	51                   	push   %ecx
  102a51:	52                   	push   %edx
  102a52:	50                   	push   %eax
  102a53:	8d 83 78 c6 ff ff    	lea    -0x3988(%ebx),%eax
  102a59:	50                   	push   %eax
  102a5a:	e8 86 e1 ff ff       	call   100be5 <printf>
  102a5f:	83 c4 10             	add    $0x10,%esp
  102a62:	8b 45 08             	mov    0x8(%ebp),%eax
  102a65:	8b 48 20             	mov    0x20(%eax),%ecx
  102a68:	8b 45 08             	mov    0x8(%ebp),%eax
  102a6b:	8b 50 1c             	mov    0x1c(%eax),%edx
  102a6e:	8b 45 08             	mov    0x8(%ebp),%eax
  102a71:	8b 40 18             	mov    0x18(%eax),%eax
  102a74:	51                   	push   %ecx
  102a75:	52                   	push   %edx
  102a76:	50                   	push   %eax
  102a77:	8d 83 b0 c6 ff ff    	lea    -0x3950(%ebx),%eax
  102a7d:	50                   	push   %eax
  102a7e:	e8 62 e1 ff ff       	call   100be5 <printf>
  102a83:	83 c4 10             	add    $0x10,%esp
  102a86:	8b 45 08             	mov    0x8(%ebp),%eax
  102a89:	8b 48 2c             	mov    0x2c(%eax),%ecx
  102a8c:	8b 45 08             	mov    0x8(%ebp),%eax
  102a8f:	8b 50 28             	mov    0x28(%eax),%edx
  102a92:	8b 45 08             	mov    0x8(%ebp),%eax
  102a95:	8b 40 24             	mov    0x24(%eax),%eax
  102a98:	51                   	push   %ecx
  102a99:	52                   	push   %edx
  102a9a:	50                   	push   %eax
  102a9b:	8d 83 e8 c6 ff ff    	lea    -0x3918(%ebx),%eax
  102aa1:	50                   	push   %eax
  102aa2:	e8 3e e1 ff ff       	call   100be5 <printf>
  102aa7:	83 c4 10             	add    $0x10,%esp
  102aaa:	8b 45 08             	mov    0x8(%ebp),%eax
  102aad:	8b 48 38             	mov    0x38(%eax),%ecx
  102ab0:	8b 45 08             	mov    0x8(%ebp),%eax
  102ab3:	8b 50 34             	mov    0x34(%eax),%edx
  102ab6:	8b 45 08             	mov    0x8(%ebp),%eax
  102ab9:	8b 40 30             	mov    0x30(%eax),%eax
  102abc:	51                   	push   %ecx
  102abd:	52                   	push   %edx
  102abe:	50                   	push   %eax
  102abf:	8d 83 1c c7 ff ff    	lea    -0x38e4(%ebx),%eax
  102ac5:	50                   	push   %eax
  102ac6:	e8 1a e1 ff ff       	call   100be5 <printf>
  102acb:	83 c4 10             	add    $0x10,%esp
  102ace:	8b 45 08             	mov    0x8(%ebp),%eax
  102ad1:	8b 40 3c             	mov    0x3c(%eax),%eax
  102ad4:	83 ec 08             	sub    $0x8,%esp
  102ad7:	50                   	push   %eax
  102ad8:	8d 83 49 c7 ff ff    	lea    -0x38b7(%ebx),%eax
  102ade:	50                   	push   %eax
  102adf:	e8 01 e1 ff ff       	call   100be5 <printf>
  102ae4:	83 c4 10             	add    $0x10,%esp
  102ae7:	83 ec 0c             	sub    $0xc,%esp
  102aea:	8d 83 5e c7 ff ff    	lea    -0x38a2(%ebx),%eax
  102af0:	50                   	push   %eax
  102af1:	e8 ef e0 ff ff       	call   100be5 <printf>
  102af6:	83 c4 10             	add    $0x10,%esp
  102af9:	8b 45 08             	mov    0x8(%ebp),%eax
  102afc:	8b 48 48             	mov    0x48(%eax),%ecx
  102aff:	8b 45 08             	mov    0x8(%ebp),%eax
  102b02:	8b 50 44             	mov    0x44(%eax),%edx
  102b05:	8b 45 08             	mov    0x8(%ebp),%eax
  102b08:	8b 40 40             	mov    0x40(%eax),%eax
  102b0b:	51                   	push   %ecx
  102b0c:	52                   	push   %edx
  102b0d:	50                   	push   %eax
  102b0e:	8d 83 6c c7 ff ff    	lea    -0x3894(%ebx),%eax
  102b14:	50                   	push   %eax
  102b15:	e8 cb e0 ff ff       	call   100be5 <printf>
  102b1a:	83 c4 10             	add    $0x10,%esp
  102b1d:	90                   	nop
  102b1e:	8b 5d fc             	mov    -0x4(%ebp),%ebx
  102b21:	c9                   	leave  
  102b22:	c3                   	ret    

00102b23 <quantum_pmm_init>:
  102b23:	55                   	push   %ebp
  102b24:	89 e5                	mov    %esp,%ebp
  102b26:	53                   	push   %ebx
  102b27:	83 ec 64             	sub    $0x64,%esp
  102b2a:	e8 d1 24 00 00       	call   105000 <__kernel_text_section_end>
  102b2f:	81 c3 d1 64 00 00    	add    $0x64d1,%ebx
  102b35:	8b 45 08             	mov    0x8(%ebp),%eax
  102b38:	89 45 f4             	mov    %eax,-0xc(%ebp)
  102b3b:	ff 75 f4             	pushl  -0xc(%ebp)
  102b3e:	8d 45 a4             	lea    -0x5c(%ebp),%eax
  102b41:	50                   	push   %eax
  102b42:	e8 75 fb ff ff       	call   1026bc <quantum_get_kernel_mmap>
  102b47:	83 c4 08             	add    $0x8,%esp
  102b4a:	89 45 f0             	mov    %eax,-0x10(%ebp)
  102b4d:	83 7d f0 00          	cmpl   $0x0,-0x10(%ebp)
  102b51:	74 1d                	je     102b70 <quantum_pmm_init+0x4d>
  102b53:	83 ec 04             	sub    $0x4,%esp
  102b56:	8d 83 9c c7 ff ff    	lea    -0x3864(%ebx),%eax
  102b5c:	50                   	push   %eax
  102b5d:	8d 83 2c c6 ff ff    	lea    -0x39d4(%ebx),%eax
  102b63:	50                   	push   %eax
  102b64:	6a 01                	push   $0x1
  102b66:	e8 06 fd ff ff       	call   102871 <quantum_info>
  102b6b:	83 c4 10             	add    $0x10,%esp
  102b6e:	eb 4b                	jmp    102bbb <quantum_pmm_init+0x98>
  102b70:	8b 55 ec             	mov    -0x14(%ebp),%edx
  102b73:	8b 45 e4             	mov    -0x1c(%ebp),%eax
  102b76:	83 ec 08             	sub    $0x8,%esp
  102b79:	52                   	push   %edx
  102b7a:	50                   	push   %eax
  102b7b:	e8 59 f8 ff ff       	call   1023d9 <pmm_initialize>
  102b80:	83 c4 10             	add    $0x10,%esp
  102b83:	8b 45 e4             	mov    -0x1c(%ebp),%eax
  102b86:	83 ec 08             	sub    $0x8,%esp
  102b89:	68 00 00 10 00       	push   $0x100000
  102b8e:	50                   	push   %eax
  102b8f:	e8 c0 f8 ff ff       	call   102454 <pmm_initialize_region>
  102b94:	83 c4 10             	add    $0x10,%esp
  102b97:	8b 45 e4             	mov    -0x1c(%ebp),%eax
  102b9a:	83 ec 0c             	sub    $0xc,%esp
  102b9d:	68 00 00 10 00       	push   $0x100000
  102ba2:	50                   	push   %eax
  102ba3:	8d 83 b8 c7 ff ff    	lea    -0x3848(%ebx),%eax
  102ba9:	50                   	push   %eax
  102baa:	8d 83 2c c6 ff ff    	lea    -0x39d4(%ebx),%eax
  102bb0:	50                   	push   %eax
  102bb1:	6a 00                	push   $0x0
  102bb3:	e8 b9 fc ff ff       	call   102871 <quantum_info>
  102bb8:	83 c4 20             	add    $0x20,%esp
  102bbb:	8b 5d fc             	mov    -0x4(%ebp),%ebx
  102bbe:	c9                   	leave  
  102bbf:	c3                   	ret    

00102bc0 <quantum_vfs_init>:
  102bc0:	55                   	push   %ebp
  102bc1:	89 e5                	mov    %esp,%ebp
  102bc3:	53                   	push   %ebx
  102bc4:	83 ec 04             	sub    $0x4,%esp
  102bc7:	e8 34 24 00 00       	call   105000 <__kernel_text_section_end>
  102bcc:	81 c3 34 64 00 00    	add    $0x6434,%ebx
  102bd2:	83 ec 0c             	sub    $0xc,%esp
  102bd5:	6a 01                	push   $0x1
  102bd7:	e8 3e 0d 00 00       	call   10391a <vfs_initialize>
  102bdc:	83 c4 10             	add    $0x10,%esp
  102bdf:	83 ec 04             	sub    $0x4,%esp
  102be2:	8d 83 e3 c7 ff ff    	lea    -0x381d(%ebx),%eax
  102be8:	50                   	push   %eax
  102be9:	8d 83 f4 c7 ff ff    	lea    -0x380c(%ebx),%eax
  102bef:	50                   	push   %eax
  102bf0:	6a 00                	push   $0x0
  102bf2:	e8 7a fc ff ff       	call   102871 <quantum_info>
  102bf7:	83 c4 10             	add    $0x10,%esp
  102bfa:	90                   	nop
  102bfb:	8b 5d fc             	mov    -0x4(%ebp),%ebx
  102bfe:	c9                   	leave  
  102bff:	c3                   	ret    

00102c00 <quantum_migrate_to_kernel_mode>:
  102c00:	55                   	push   %ebp
  102c01:	89 e5                	mov    %esp,%ebp
  102c03:	53                   	push   %ebx
  102c04:	83 ec 04             	sub    $0x4,%esp
  102c07:	e8 f8 23 00 00       	call   105004 <__x86.get_pc_thunk.ax>
  102c0c:	05 f4 63 00 00       	add    $0x63f4,%eax
  102c11:	89 c3                	mov    %eax,%ebx
  102c13:	e8 bf 15 00 00       	call   1041d7 <kmode_initialize>
  102c18:	90                   	nop
  102c19:	8b 5d fc             	mov    -0x4(%ebp),%ebx
  102c1c:	c9                   	leave  
  102c1d:	c3                   	ret    

00102c1e <quantum_migrate_to_userspace>:
  102c1e:	55                   	push   %ebp
  102c1f:	89 e5                	mov    %esp,%ebp
  102c21:	53                   	push   %ebx
  102c22:	83 ec 04             	sub    $0x4,%esp
  102c25:	e8 da 23 00 00       	call   105004 <__x86.get_pc_thunk.ax>
  102c2a:	05 d6 63 00 00       	add    $0x63d6,%eax
  102c2f:	89 c3                	mov    %eax,%ebx
  102c31:	e8 cb d4 ff ff       	call   100101 <userspace_initialize>
  102c36:	90                   	nop
  102c37:	8b 5d fc             	mov    -0x4(%ebp),%ebx
  102c3a:	c9                   	leave  
  102c3b:	c3                   	ret    

00102c3c <kmem_initialize>:
  102c3c:	55                   	push   %ebp
  102c3d:	89 e5                	mov    %esp,%ebp
  102c3f:	53                   	push   %ebx
  102c40:	83 ec 04             	sub    $0x4,%esp
  102c43:	e8 b8 23 00 00       	call   105000 <__kernel_text_section_end>
  102c48:	81 c3 b8 63 00 00    	add    $0x63b8,%ebx
  102c4e:	83 ec 04             	sub    $0x4,%esp
  102c51:	8d 83 fa c7 ff ff    	lea    -0x3806(%ebx),%eax
  102c57:	50                   	push   %eax
  102c58:	8d 83 14 c8 ff ff    	lea    -0x37ec(%ebx),%eax
  102c5e:	50                   	push   %eax
  102c5f:	6a 00                	push   $0x0
  102c61:	e8 0b fc ff ff       	call   102871 <quantum_info>
  102c66:	83 c4 10             	add    $0x10,%esp
  102c69:	8b 93 7c 12 00 00    	mov    0x127c(%ebx),%edx
  102c6f:	8b 83 80 12 00 00    	mov    0x1280(%ebx),%eax
  102c75:	39 c2                	cmp    %eax,%edx
  102c77:	77 2a                	ja     102ca3 <kmem_initialize+0x67>
  102c79:	8b 45 08             	mov    0x8(%ebp),%eax
  102c7c:	89 83 7c 12 00 00    	mov    %eax,0x127c(%ebx)
  102c82:	8b 45 0c             	mov    0xc(%ebp),%eax
  102c85:	89 83 80 12 00 00    	mov    %eax,0x1280(%ebx)
  102c8b:	8b 45 0c             	mov    0xc(%ebp),%eax
  102c8e:	2b 45 08             	sub    0x8(%ebp),%eax
  102c91:	89 83 84 12 00 00    	mov    %eax,0x1284(%ebx)
  102c97:	c7 83 88 12 00 00 00 	movl   $0x0,0x1288(%ebx)
  102c9e:	00 00 00 
  102ca1:	eb 01                	jmp    102ca4 <kmem_initialize+0x68>
  102ca3:	90                   	nop
  102ca4:	8b 5d fc             	mov    -0x4(%ebp),%ebx
  102ca7:	c9                   	leave  
  102ca8:	c3                   	ret    

00102ca9 <kbrk>:
  102ca9:	55                   	push   %ebp
  102caa:	89 e5                	mov    %esp,%ebp
  102cac:	53                   	push   %ebx
  102cad:	83 ec 10             	sub    $0x10,%esp
  102cb0:	e8 4f 23 00 00       	call   105004 <__x86.get_pc_thunk.ax>
  102cb5:	05 4b 63 00 00       	add    $0x634b,%eax
  102cba:	c7 45 f8 00 00 00 00 	movl   $0x0,-0x8(%ebp)
  102cc1:	83 7d 08 00          	cmpl   $0x0,0x8(%ebp)
  102cc5:	7f 07                	jg     102cce <kbrk+0x25>
  102cc7:	b8 00 00 00 00       	mov    $0x0,%eax
  102ccc:	eb 4a                	jmp    102d18 <kbrk+0x6f>
  102cce:	8b 90 84 12 00 00    	mov    0x1284(%eax),%edx
  102cd4:	8b 88 88 12 00 00    	mov    0x1288(%eax),%ecx
  102cda:	29 ca                	sub    %ecx,%edx
  102cdc:	39 55 08             	cmp    %edx,0x8(%ebp)
  102cdf:	7c 07                	jl     102ce8 <kbrk+0x3f>
  102ce1:	b8 00 00 00 00       	mov    $0x0,%eax
  102ce6:	eb 30                	jmp    102d18 <kbrk+0x6f>
  102ce8:	8b 88 7c 12 00 00    	mov    0x127c(%eax),%ecx
  102cee:	8b 98 88 12 00 00    	mov    0x1288(%eax),%ebx
  102cf4:	8b 55 08             	mov    0x8(%ebp),%edx
  102cf7:	01 da                	add    %ebx,%edx
  102cf9:	83 c2 04             	add    $0x4,%edx
  102cfc:	01 ca                	add    %ecx,%edx
  102cfe:	89 55 f8             	mov    %edx,-0x8(%ebp)
  102d01:	8b 4d 08             	mov    0x8(%ebp),%ecx
  102d04:	8b 90 88 12 00 00    	mov    0x1288(%eax),%edx
  102d0a:	01 ca                	add    %ecx,%edx
  102d0c:	83 c2 04             	add    $0x4,%edx
  102d0f:	89 90 88 12 00 00    	mov    %edx,0x1288(%eax)
  102d15:	8b 45 f8             	mov    -0x8(%ebp),%eax
  102d18:	8b 5d fc             	mov    -0x4(%ebp),%ebx
  102d1b:	c9                   	leave  
  102d1c:	c3                   	ret    

00102d1d <kmem_is_free>:
  102d1d:	55                   	push   %ebp
  102d1e:	89 e5                	mov    %esp,%ebp
  102d20:	e8 df 22 00 00       	call   105004 <__x86.get_pc_thunk.ax>
  102d25:	05 db 62 00 00       	add    $0x62db,%eax
  102d2a:	83 7d 08 00          	cmpl   $0x0,0x8(%ebp)
  102d2e:	75 07                	jne    102d37 <kmem_is_free+0x1a>
  102d30:	b8 00 00 00 00       	mov    $0x0,%eax
  102d35:	eb 0f                	jmp    102d46 <kmem_is_free+0x29>
  102d37:	8b 45 08             	mov    0x8(%ebp),%eax
  102d3a:	0f b6 40 04          	movzbl 0x4(%eax),%eax
  102d3e:	3c 01                	cmp    $0x1,%al
  102d40:	0f 94 c0             	sete   %al
  102d43:	0f b6 c0             	movzbl %al,%eax
  102d46:	5d                   	pop    %ebp
  102d47:	c3                   	ret    

00102d48 <kmem_get_worst_fit>:
  102d48:	55                   	push   %ebp
  102d49:	89 e5                	mov    %esp,%ebp
  102d4b:	83 ec 10             	sub    $0x10,%esp
  102d4e:	e8 b1 22 00 00       	call   105004 <__x86.get_pc_thunk.ax>
  102d53:	05 ad 62 00 00       	add    $0x62ad,%eax
  102d58:	8b 80 8c 12 00 00    	mov    0x128c(%eax),%eax
  102d5e:	89 45 fc             	mov    %eax,-0x4(%ebp)
  102d61:	eb 27                	jmp    102d8a <kmem_get_worst_fit+0x42>
  102d63:	ff 75 fc             	pushl  -0x4(%ebp)
  102d66:	e8 b2 ff ff ff       	call   102d1d <kmem_is_free>
  102d6b:	83 c4 04             	add    $0x4,%esp
  102d6e:	85 c0                	test   %eax,%eax
  102d70:	74 0f                	je     102d81 <kmem_get_worst_fit+0x39>
  102d72:	8b 45 fc             	mov    -0x4(%ebp),%eax
  102d75:	8b 00                	mov    (%eax),%eax
  102d77:	39 45 08             	cmp    %eax,0x8(%ebp)
  102d7a:	7f 05                	jg     102d81 <kmem_get_worst_fit+0x39>
  102d7c:	8b 45 fc             	mov    -0x4(%ebp),%eax
  102d7f:	eb 14                	jmp    102d95 <kmem_get_worst_fit+0x4d>
  102d81:	8b 45 fc             	mov    -0x4(%ebp),%eax
  102d84:	8b 40 08             	mov    0x8(%eax),%eax
  102d87:	89 45 fc             	mov    %eax,-0x4(%ebp)
  102d8a:	83 7d fc 00          	cmpl   $0x0,-0x4(%ebp)
  102d8e:	75 d3                	jne    102d63 <kmem_get_worst_fit+0x1b>
  102d90:	b8 00 00 00 00       	mov    $0x0,%eax
  102d95:	c9                   	leave  
  102d96:	c3                   	ret    

00102d97 <kmem_new_block>:
  102d97:	55                   	push   %ebp
  102d98:	89 e5                	mov    %esp,%ebp
  102d9a:	83 ec 10             	sub    $0x10,%esp
  102d9d:	e8 62 22 00 00       	call   105004 <__x86.get_pc_thunk.ax>
  102da2:	05 5e 62 00 00       	add    $0x625e,%eax
  102da7:	8b 80 8c 12 00 00    	mov    0x128c(%eax),%eax
  102dad:	89 45 fc             	mov    %eax,-0x4(%ebp)
  102db0:	eb 09                	jmp    102dbb <kmem_new_block+0x24>
  102db2:	8b 45 fc             	mov    -0x4(%ebp),%eax
  102db5:	8b 40 08             	mov    0x8(%eax),%eax
  102db8:	89 45 fc             	mov    %eax,-0x4(%ebp)
  102dbb:	8b 45 fc             	mov    -0x4(%ebp),%eax
  102dbe:	8b 40 08             	mov    0x8(%eax),%eax
  102dc1:	85 c0                	test   %eax,%eax
  102dc3:	75 ed                	jne    102db2 <kmem_new_block+0x1b>
  102dc5:	6a 10                	push   $0x10
  102dc7:	e8 dd fe ff ff       	call   102ca9 <kbrk>
  102dcc:	83 c4 04             	add    $0x4,%esp
  102dcf:	89 45 f8             	mov    %eax,-0x8(%ebp)
  102dd2:	8b 45 f8             	mov    -0x8(%ebp),%eax
  102dd5:	c6 40 04 00          	movb   $0x0,0x4(%eax)
  102dd9:	8b 55 08             	mov    0x8(%ebp),%edx
  102ddc:	8b 45 f8             	mov    -0x8(%ebp),%eax
  102ddf:	89 10                	mov    %edx,(%eax)
  102de1:	ff 75 08             	pushl  0x8(%ebp)
  102de4:	e8 c0 fe ff ff       	call   102ca9 <kbrk>
  102de9:	83 c4 04             	add    $0x4,%esp
  102dec:	8b 55 f8             	mov    -0x8(%ebp),%edx
  102def:	89 42 0c             	mov    %eax,0xc(%edx)
  102df2:	8b 45 f8             	mov    -0x8(%ebp),%eax
  102df5:	c7 40 08 00 00 00 00 	movl   $0x0,0x8(%eax)
  102dfc:	8b 45 fc             	mov    -0x4(%ebp),%eax
  102dff:	8b 55 f8             	mov    -0x8(%ebp),%edx
  102e02:	89 50 08             	mov    %edx,0x8(%eax)
  102e05:	8b 45 f8             	mov    -0x8(%ebp),%eax
  102e08:	c9                   	leave  
  102e09:	c3                   	ret    

00102e0a <kmalloc>:
  102e0a:	55                   	push   %ebp
  102e0b:	89 e5                	mov    %esp,%ebp
  102e0d:	56                   	push   %esi
  102e0e:	53                   	push   %ebx
  102e0f:	83 ec 10             	sub    $0x10,%esp
  102e12:	e8 e9 21 00 00       	call   105000 <__kernel_text_section_end>
  102e17:	81 c3 e9 61 00 00    	add    $0x61e9,%ebx
  102e1d:	83 7d 08 00          	cmpl   $0x0,0x8(%ebp)
  102e21:	7f 0a                	jg     102e2d <kmalloc+0x23>
  102e23:	b8 00 00 00 00       	mov    $0x0,%eax
  102e28:	e9 b2 00 00 00       	jmp    102edf <kmalloc+0xd5>
  102e2d:	8b 83 8c 12 00 00    	mov    0x128c(%ebx),%eax
  102e33:	85 c0                	test   %eax,%eax
  102e35:	75 51                	jne    102e88 <kmalloc+0x7e>
  102e37:	6a 10                	push   $0x10
  102e39:	e8 6b fe ff ff       	call   102ca9 <kbrk>
  102e3e:	83 c4 04             	add    $0x4,%esp
  102e41:	89 83 8c 12 00 00    	mov    %eax,0x128c(%ebx)
  102e47:	8b 83 8c 12 00 00    	mov    0x128c(%ebx),%eax
  102e4d:	c6 40 04 00          	movb   $0x0,0x4(%eax)
  102e51:	8b 83 8c 12 00 00    	mov    0x128c(%ebx),%eax
  102e57:	8b 55 08             	mov    0x8(%ebp),%edx
  102e5a:	89 10                	mov    %edx,(%eax)
  102e5c:	8b b3 8c 12 00 00    	mov    0x128c(%ebx),%esi
  102e62:	ff 75 08             	pushl  0x8(%ebp)
  102e65:	e8 3f fe ff ff       	call   102ca9 <kbrk>
  102e6a:	83 c4 04             	add    $0x4,%esp
  102e6d:	89 46 0c             	mov    %eax,0xc(%esi)
  102e70:	8b 83 8c 12 00 00    	mov    0x128c(%ebx),%eax
  102e76:	c7 40 08 00 00 00 00 	movl   $0x0,0x8(%eax)
  102e7d:	8b 83 8c 12 00 00    	mov    0x128c(%ebx),%eax
  102e83:	8b 40 0c             	mov    0xc(%eax),%eax
  102e86:	eb 57                	jmp    102edf <kmalloc+0xd5>
  102e88:	ff 75 08             	pushl  0x8(%ebp)
  102e8b:	e8 b8 fe ff ff       	call   102d48 <kmem_get_worst_fit>
  102e90:	83 c4 04             	add    $0x4,%esp
  102e93:	89 45 f4             	mov    %eax,-0xc(%ebp)
  102e96:	83 7d f4 00          	cmpl   $0x0,-0xc(%ebp)
  102e9a:	75 36                	jne    102ed2 <kmalloc+0xc8>
  102e9c:	ff 75 08             	pushl  0x8(%ebp)
  102e9f:	e8 f3 fe ff ff       	call   102d97 <kmem_new_block>
  102ea4:	83 c4 04             	add    $0x4,%esp
  102ea7:	89 45 f0             	mov    %eax,-0x10(%ebp)
  102eaa:	8b 45 f0             	mov    -0x10(%ebp),%eax
  102ead:	c6 40 04 00          	movb   $0x0,0x4(%eax)
  102eb1:	8b 55 08             	mov    0x8(%ebp),%edx
  102eb4:	8b 45 f0             	mov    -0x10(%ebp),%eax
  102eb7:	89 10                	mov    %edx,(%eax)
  102eb9:	ff 75 08             	pushl  0x8(%ebp)
  102ebc:	e8 e8 fd ff ff       	call   102ca9 <kbrk>
  102ec1:	83 c4 04             	add    $0x4,%esp
  102ec4:	8b 55 f0             	mov    -0x10(%ebp),%edx
  102ec7:	89 42 0c             	mov    %eax,0xc(%edx)
  102eca:	8b 45 f0             	mov    -0x10(%ebp),%eax
  102ecd:	8b 40 0c             	mov    0xc(%eax),%eax
  102ed0:	eb 0d                	jmp    102edf <kmalloc+0xd5>
  102ed2:	8b 45 f4             	mov    -0xc(%ebp),%eax
  102ed5:	c6 40 04 00          	movb   $0x0,0x4(%eax)
  102ed9:	8b 45 f4             	mov    -0xc(%ebp),%eax
  102edc:	8b 40 0c             	mov    0xc(%eax),%eax
  102edf:	8d 65 f8             	lea    -0x8(%ebp),%esp
  102ee2:	5b                   	pop    %ebx
  102ee3:	5e                   	pop    %esi
  102ee4:	5d                   	pop    %ebp
  102ee5:	c3                   	ret    

00102ee6 <kcalloc>:
  102ee6:	55                   	push   %ebp
  102ee7:	89 e5                	mov    %esp,%ebp
  102ee9:	83 ec 18             	sub    $0x18,%esp
  102eec:	e8 13 21 00 00       	call   105004 <__x86.get_pc_thunk.ax>
  102ef1:	05 0f 61 00 00       	add    $0x610f,%eax
  102ef6:	83 7d 08 00          	cmpl   $0x0,0x8(%ebp)
  102efa:	7e 06                	jle    102f02 <kcalloc+0x1c>
  102efc:	83 7d 0c 00          	cmpl   $0x0,0xc(%ebp)
  102f00:	7f 07                	jg     102f09 <kcalloc+0x23>
  102f02:	b8 00 00 00 00       	mov    $0x0,%eax
  102f07:	eb 2e                	jmp    102f37 <kcalloc+0x51>
  102f09:	8b 45 0c             	mov    0xc(%ebp),%eax
  102f0c:	0f af 45 08          	imul   0x8(%ebp),%eax
  102f10:	50                   	push   %eax
  102f11:	e8 f4 fe ff ff       	call   102e0a <kmalloc>
  102f16:	83 c4 04             	add    $0x4,%esp
  102f19:	89 45 f4             	mov    %eax,-0xc(%ebp)
  102f1c:	8b 45 0c             	mov    0xc(%ebp),%eax
  102f1f:	0f af 45 08          	imul   0x8(%ebp),%eax
  102f23:	83 ec 04             	sub    $0x4,%esp
  102f26:	50                   	push   %eax
  102f27:	6a 00                	push   $0x0
  102f29:	ff 75 f4             	pushl  -0xc(%ebp)
  102f2c:	e8 ee 00 00 00       	call   10301f <kmemset>
  102f31:	83 c4 10             	add    $0x10,%esp
  102f34:	8b 45 f4             	mov    -0xc(%ebp),%eax
  102f37:	c9                   	leave  
  102f38:	c3                   	ret    

00102f39 <krealloc>:
  102f39:	55                   	push   %ebp
  102f3a:	89 e5                	mov    %esp,%ebp
  102f3c:	83 ec 18             	sub    $0x18,%esp
  102f3f:	e8 c0 20 00 00       	call   105004 <__x86.get_pc_thunk.ax>
  102f44:	05 bc 60 00 00       	add    $0x60bc,%eax
  102f49:	8b 80 8c 12 00 00    	mov    0x128c(%eax),%eax
  102f4f:	89 45 f4             	mov    %eax,-0xc(%ebp)
  102f52:	eb 71                	jmp    102fc5 <krealloc+0x8c>
  102f54:	8b 45 f4             	mov    -0xc(%ebp),%eax
  102f57:	8b 40 0c             	mov    0xc(%eax),%eax
  102f5a:	39 45 08             	cmp    %eax,0x8(%ebp)
  102f5d:	75 5d                	jne    102fbc <krealloc+0x83>
  102f5f:	ff 75 0c             	pushl  0xc(%ebp)
  102f62:	e8 30 fe ff ff       	call   102d97 <kmem_new_block>
  102f67:	83 c4 04             	add    $0x4,%esp
  102f6a:	89 45 f0             	mov    %eax,-0x10(%ebp)
  102f6d:	8b 45 f4             	mov    -0xc(%ebp),%eax
  102f70:	8b 00                	mov    (%eax),%eax
  102f72:	39 45 0c             	cmp    %eax,0xc(%ebp)
  102f75:	7d 1b                	jge    102f92 <krealloc+0x59>
  102f77:	8b 55 0c             	mov    0xc(%ebp),%edx
  102f7a:	8b 45 f0             	mov    -0x10(%ebp),%eax
  102f7d:	8b 40 0c             	mov    0xc(%eax),%eax
  102f80:	83 ec 04             	sub    $0x4,%esp
  102f83:	52                   	push   %edx
  102f84:	ff 75 08             	pushl  0x8(%ebp)
  102f87:	50                   	push   %eax
  102f88:	e8 45 00 00 00       	call   102fd2 <kmemcpy>
  102f8d:	83 c4 10             	add    $0x10,%esp
  102f90:	eb 1b                	jmp    102fad <krealloc+0x74>
  102f92:	8b 45 f4             	mov    -0xc(%ebp),%eax
  102f95:	8b 10                	mov    (%eax),%edx
  102f97:	8b 45 f0             	mov    -0x10(%ebp),%eax
  102f9a:	8b 40 0c             	mov    0xc(%eax),%eax
  102f9d:	83 ec 04             	sub    $0x4,%esp
  102fa0:	52                   	push   %edx
  102fa1:	ff 75 08             	pushl  0x8(%ebp)
  102fa4:	50                   	push   %eax
  102fa5:	e8 28 00 00 00       	call   102fd2 <kmemcpy>
  102faa:	83 c4 10             	add    $0x10,%esp
  102fad:	8b 45 f4             	mov    -0xc(%ebp),%eax
  102fb0:	c6 40 04 01          	movb   $0x1,0x4(%eax)
  102fb4:	8b 45 f0             	mov    -0x10(%ebp),%eax
  102fb7:	8b 40 0c             	mov    0xc(%eax),%eax
  102fba:	eb 14                	jmp    102fd0 <krealloc+0x97>
  102fbc:	8b 45 f4             	mov    -0xc(%ebp),%eax
  102fbf:	8b 40 08             	mov    0x8(%eax),%eax
  102fc2:	89 45 f4             	mov    %eax,-0xc(%ebp)
  102fc5:	83 7d f4 00          	cmpl   $0x0,-0xc(%ebp)
  102fc9:	75 89                	jne    102f54 <krealloc+0x1b>
  102fcb:	b8 00 00 00 00       	mov    $0x0,%eax
  102fd0:	c9                   	leave  
  102fd1:	c3                   	ret    

00102fd2 <kmemcpy>:
  102fd2:	55                   	push   %ebp
  102fd3:	89 e5                	mov    %esp,%ebp
  102fd5:	83 ec 10             	sub    $0x10,%esp
  102fd8:	e8 27 20 00 00       	call   105004 <__x86.get_pc_thunk.ax>
  102fdd:	05 23 60 00 00       	add    $0x6023,%eax
  102fe2:	8b 45 08             	mov    0x8(%ebp),%eax
  102fe5:	89 45 f4             	mov    %eax,-0xc(%ebp)
  102fe8:	8b 45 08             	mov    0x8(%ebp),%eax
  102feb:	89 45 fc             	mov    %eax,-0x4(%ebp)
  102fee:	8b 45 0c             	mov    0xc(%ebp),%eax
  102ff1:	89 45 f8             	mov    %eax,-0x8(%ebp)
  102ff4:	eb 17                	jmp    10300d <kmemcpy+0x3b>
  102ff6:	8b 55 f8             	mov    -0x8(%ebp),%edx
  102ff9:	8d 42 01             	lea    0x1(%edx),%eax
  102ffc:	89 45 f8             	mov    %eax,-0x8(%ebp)
  102fff:	8b 45 fc             	mov    -0x4(%ebp),%eax
  103002:	8d 48 01             	lea    0x1(%eax),%ecx
  103005:	89 4d fc             	mov    %ecx,-0x4(%ebp)
  103008:	0f b6 12             	movzbl (%edx),%edx
  10300b:	88 10                	mov    %dl,(%eax)
  10300d:	8b 45 10             	mov    0x10(%ebp),%eax
  103010:	8d 50 ff             	lea    -0x1(%eax),%edx
  103013:	89 55 10             	mov    %edx,0x10(%ebp)
  103016:	85 c0                	test   %eax,%eax
  103018:	75 dc                	jne    102ff6 <kmemcpy+0x24>
  10301a:	8b 45 f4             	mov    -0xc(%ebp),%eax
  10301d:	c9                   	leave  
  10301e:	c3                   	ret    

0010301f <kmemset>:
  10301f:	55                   	push   %ebp
  103020:	89 e5                	mov    %esp,%ebp
  103022:	83 ec 14             	sub    $0x14,%esp
  103025:	e8 da 1f 00 00       	call   105004 <__x86.get_pc_thunk.ax>
  10302a:	05 d6 5f 00 00       	add    $0x5fd6,%eax
  10302f:	8b 45 0c             	mov    0xc(%ebp),%eax
  103032:	88 45 ec             	mov    %al,-0x14(%ebp)
  103035:	8b 45 08             	mov    0x8(%ebp),%eax
  103038:	89 45 fc             	mov    %eax,-0x4(%ebp)
  10303b:	eb 13                	jmp    103050 <kmemset+0x31>
  10303d:	8b 45 fc             	mov    -0x4(%ebp),%eax
  103040:	8d 50 01             	lea    0x1(%eax),%edx
  103043:	89 55 fc             	mov    %edx,-0x4(%ebp)
  103046:	0f b6 55 ec          	movzbl -0x14(%ebp),%edx
  10304a:	88 10                	mov    %dl,(%eax)
  10304c:	83 6d 10 01          	subl   $0x1,0x10(%ebp)
  103050:	83 7d 10 00          	cmpl   $0x0,0x10(%ebp)
  103054:	75 e7                	jne    10303d <kmemset+0x1e>
  103056:	8b 45 08             	mov    0x8(%ebp),%eax
  103059:	c9                   	leave  
  10305a:	c3                   	ret    

0010305b <kfree>:
  10305b:	55                   	push   %ebp
  10305c:	89 e5                	mov    %esp,%ebp
  10305e:	83 ec 10             	sub    $0x10,%esp
  103061:	e8 9e 1f 00 00       	call   105004 <__x86.get_pc_thunk.ax>
  103066:	05 9a 5f 00 00       	add    $0x5f9a,%eax
  10306b:	8b 80 8c 12 00 00    	mov    0x128c(%eax),%eax
  103071:	89 45 fc             	mov    %eax,-0x4(%ebp)
  103074:	eb 1d                	jmp    103093 <kfree+0x38>
  103076:	8b 45 fc             	mov    -0x4(%ebp),%eax
  103079:	8b 40 0c             	mov    0xc(%eax),%eax
  10307c:	39 45 08             	cmp    %eax,0x8(%ebp)
  10307f:	75 09                	jne    10308a <kfree+0x2f>
  103081:	8b 45 fc             	mov    -0x4(%ebp),%eax
  103084:	c6 40 04 01          	movb   $0x1,0x4(%eax)
  103088:	eb 0f                	jmp    103099 <kfree+0x3e>
  10308a:	8b 45 fc             	mov    -0x4(%ebp),%eax
  10308d:	8b 40 08             	mov    0x8(%eax),%eax
  103090:	89 45 fc             	mov    %eax,-0x4(%ebp)
  103093:	83 7d fc 00          	cmpl   $0x0,-0x4(%ebp)
  103097:	75 dd                	jne    103076 <kfree+0x1b>
  103099:	c9                   	leave  
  10309a:	c3                   	ret    

0010309b <keyboard_alternate>:
  10309b:	55                   	push   %ebp
  10309c:	89 e5                	mov    %esp,%ebp
  10309e:	83 ec 04             	sub    $0x4,%esp
  1030a1:	e8 66 1f 00 00       	call   10500c <__x86.get_pc_thunk.dx>
  1030a6:	81 c2 5a 5f 00 00    	add    $0x5f5a,%edx
  1030ac:	8b 45 08             	mov    0x8(%ebp),%eax
  1030af:	88 45 fc             	mov    %al,-0x4(%ebp)
  1030b2:	0f be 45 fc          	movsbl -0x4(%ebp),%eax
  1030b6:	83 e8 27             	sub    $0x27,%eax
  1030b9:	83 f8 39             	cmp    $0x39,%eax
  1030bc:	0f 87 aa 00 00 00    	ja     10316c <.L2>
  1030c2:	c1 e0 02             	shl    $0x2,%eax
  1030c5:	8b 84 10 20 c8 ff ff 	mov    -0x37e0(%eax,%edx,1),%eax
  1030cc:	01 d0                	add    %edx,%eax
  1030ce:	ff e0                	jmp    *%eax

001030d0 <.L3>:
  1030d0:	b8 7e 00 00 00       	mov    $0x7e,%eax
  1030d5:	e9 96 00 00 00       	jmp    103170 <.L2+0x4>

001030da <.L18>:
  1030da:	b8 21 00 00 00       	mov    $0x21,%eax
  1030df:	e9 8c 00 00 00       	jmp    103170 <.L2+0x4>

001030e4 <.L17>:
  1030e4:	b8 40 00 00 00       	mov    $0x40,%eax
  1030e9:	e9 82 00 00 00       	jmp    103170 <.L2+0x4>

001030ee <.L16>:
  1030ee:	b8 23 00 00 00       	mov    $0x23,%eax
  1030f3:	eb 7b                	jmp    103170 <.L2+0x4>

001030f5 <.L15>:
  1030f5:	b8 24 00 00 00       	mov    $0x24,%eax
  1030fa:	eb 74                	jmp    103170 <.L2+0x4>

001030fc <.L14>:
  1030fc:	b8 25 00 00 00       	mov    $0x25,%eax
  103101:	eb 6d                	jmp    103170 <.L2+0x4>

00103103 <.L13>:
  103103:	b8 5e 00 00 00       	mov    $0x5e,%eax
  103108:	eb 66                	jmp    103170 <.L2+0x4>

0010310a <.L12>:
  10310a:	b8 26 00 00 00       	mov    $0x26,%eax
  10310f:	eb 5f                	jmp    103170 <.L2+0x4>

00103111 <.L11>:
  103111:	b8 2a 00 00 00       	mov    $0x2a,%eax
  103116:	eb 58                	jmp    103170 <.L2+0x4>

00103118 <.L10>:
  103118:	b8 28 00 00 00       	mov    $0x28,%eax
  10311d:	eb 51                	jmp    103170 <.L2+0x4>

0010311f <.L19>:
  10311f:	b8 29 00 00 00       	mov    $0x29,%eax
  103124:	eb 4a                	jmp    103170 <.L2+0x4>

00103126 <.L22>:
  103126:	b8 5f 00 00 00       	mov    $0x5f,%eax
  10312b:	eb 43                	jmp    103170 <.L2+0x4>

0010312d <.L8>:
  10312d:	b8 2b 00 00 00       	mov    $0x2b,%eax
  103132:	eb 3c                	jmp    103170 <.L2+0x4>

00103134 <.L7>:
  103134:	b8 7b 00 00 00       	mov    $0x7b,%eax
  103139:	eb 35                	jmp    103170 <.L2+0x4>

0010313b <.L5>:
  10313b:	b8 7d 00 00 00       	mov    $0x7d,%eax
  103140:	eb 2e                	jmp    103170 <.L2+0x4>

00103142 <.L6>:
  103142:	b8 7c 00 00 00       	mov    $0x7c,%eax
  103147:	eb 27                	jmp    103170 <.L2+0x4>

00103149 <.L9>:
  103149:	b8 3a 00 00 00       	mov    $0x3a,%eax
  10314e:	eb 20                	jmp    103170 <.L2+0x4>

00103150 <.L24>:
  103150:	b8 22 00 00 00       	mov    $0x22,%eax
  103155:	eb 19                	jmp    103170 <.L2+0x4>

00103157 <.L23>:
  103157:	b8 3c 00 00 00       	mov    $0x3c,%eax
  10315c:	eb 12                	jmp    103170 <.L2+0x4>

0010315e <.L21>:
  10315e:	b8 3e 00 00 00       	mov    $0x3e,%eax
  103163:	eb 0b                	jmp    103170 <.L2+0x4>

00103165 <.L20>:
  103165:	b8 3f 00 00 00       	mov    $0x3f,%eax
  10316a:	eb 04                	jmp    103170 <.L2+0x4>

0010316c <.L2>:
  10316c:	0f b6 45 fc          	movzbl -0x4(%ebp),%eax
  103170:	c9                   	leave  
  103171:	c3                   	ret    

00103172 <keyboard_getsc>:
  103172:	55                   	push   %ebp
  103173:	89 e5                	mov    %esp,%ebp
  103175:	53                   	push   %ebx
  103176:	83 ec 14             	sub    $0x14,%esp
  103179:	e8 82 1e 00 00       	call   105000 <__kernel_text_section_end>
  10317e:	81 c3 82 5e 00 00    	add    $0x5e82,%ebx
  103184:	c7 45 f4 e8 03 00 00 	movl   $0x3e8,-0xc(%ebp)
  10318b:	eb 32                	jmp    1031bf <keyboard_getsc+0x4d>
  10318d:	83 ec 0c             	sub    $0xc,%esp
  103190:	6a 64                	push   $0x64
  103192:	e8 59 e4 ff ff       	call   1015f0 <pio_inb>
  103197:	83 c4 10             	add    $0x10,%esp
  10319a:	0f b6 c0             	movzbl %al,%eax
  10319d:	83 e0 01             	and    $0x1,%eax
  1031a0:	85 c0                	test   %eax,%eax
  1031a2:	75 06                	jne    1031aa <keyboard_getsc+0x38>
  1031a4:	83 45 f4 01          	addl   $0x1,-0xc(%ebp)
  1031a8:	eb 15                	jmp    1031bf <keyboard_getsc+0x4d>
  1031aa:	83 ec 0c             	sub    $0xc,%esp
  1031ad:	6a 60                	push   $0x60
  1031af:	e8 3c e4 ff ff       	call   1015f0 <pio_inb>
  1031b4:	83 c4 10             	add    $0x10,%esp
  1031b7:	0f b6 c0             	movzbl %al,%eax
  1031ba:	89 45 f0             	mov    %eax,-0x10(%ebp)
  1031bd:	eb 06                	jmp    1031c5 <keyboard_getsc+0x53>
  1031bf:	83 7d f4 00          	cmpl   $0x0,-0xc(%ebp)
  1031c3:	7f c8                	jg     10318d <keyboard_getsc+0x1b>
  1031c5:	83 7d f4 00          	cmpl   $0x0,-0xc(%ebp)
  1031c9:	7e 05                	jle    1031d0 <keyboard_getsc+0x5e>
  1031cb:	8b 45 f0             	mov    -0x10(%ebp),%eax
  1031ce:	eb 05                	jmp    1031d5 <keyboard_getsc+0x63>
  1031d0:	b8 00 00 00 00       	mov    $0x0,%eax
  1031d5:	8b 5d fc             	mov    -0x4(%ebp),%ebx
  1031d8:	c9                   	leave  
  1031d9:	c3                   	ret    

001031da <keyboard_getchar>:
  1031da:	55                   	push   %ebp
  1031db:	89 e5                	mov    %esp,%ebp
  1031dd:	83 ec 10             	sub    $0x10,%esp
  1031e0:	e8 1f 1e 00 00       	call   105004 <__x86.get_pc_thunk.ax>
  1031e5:	05 1b 5e 00 00       	add    $0x5e1b,%eax
  1031ea:	90                   	nop
  1031eb:	0f b6 90 98 12 00 00 	movzbl 0x1298(%eax),%edx
  1031f2:	84 d2                	test   %dl,%dl
  1031f4:	7e f5                	jle    1031eb <keyboard_getchar+0x11>
  1031f6:	0f b6 90 98 12 00 00 	movzbl 0x1298(%eax),%edx
  1031fd:	88 55 ff             	mov    %dl,-0x1(%ebp)
  103200:	c6 80 98 12 00 00 00 	movb   $0x0,0x1298(%eax)
  103207:	0f b6 45 ff          	movzbl -0x1(%ebp),%eax
  10320b:	c9                   	leave  
  10320c:	c3                   	ret    

0010320d <keyboard_getchar_until>:
  10320d:	55                   	push   %ebp
  10320e:	89 e5                	mov    %esp,%ebp
  103210:	53                   	push   %ebx
  103211:	83 ec 24             	sub    $0x24,%esp
  103214:	e8 e7 1d 00 00       	call   105000 <__kernel_text_section_end>
  103219:	81 c3 e7 5d 00 00    	add    $0x5de7,%ebx
  10321f:	8b 45 08             	mov    0x8(%ebp),%eax
  103222:	88 45 e4             	mov    %al,-0x1c(%ebp)
  103225:	83 ec 08             	sub    $0x8,%esp
  103228:	6a 04                	push   $0x4
  10322a:	6a 01                	push   $0x1
  10322c:	e8 b5 fc ff ff       	call   102ee6 <kcalloc>
  103231:	83 c4 10             	add    $0x10,%esp
  103234:	89 45 f0             	mov    %eax,-0x10(%ebp)
  103237:	e8 9e ff ff ff       	call   1031da <keyboard_getchar>
  10323c:	88 45 f7             	mov    %al,-0x9(%ebp)
  10323f:	eb 77                	jmp    1032b8 <keyboard_getchar_until+0xab>
  103241:	80 7d f7 08          	cmpb   $0x8,-0x9(%ebp)
  103245:	75 35                	jne    10327c <keyboard_getchar_until+0x6f>
  103247:	83 ec 0c             	sub    $0xc,%esp
  10324a:	8d 83 08 c9 ff ff    	lea    -0x36f8(%ebx),%eax
  103250:	50                   	push   %eax
  103251:	e8 8f d9 ff ff       	call   100be5 <printf>
  103256:	83 c4 10             	add    $0x10,%esp
  103259:	83 ec 0c             	sub    $0xc,%esp
  10325c:	ff 75 f0             	pushl  -0x10(%ebp)
  10325f:	e8 f7 d1 ff ff       	call   10045b <strlen>
  103264:	83 c4 10             	add    $0x10,%esp
  103267:	8d 50 ff             	lea    -0x1(%eax),%edx
  10326a:	8b 45 f0             	mov    -0x10(%ebp),%eax
  10326d:	01 d0                	add    %edx,%eax
  10326f:	c6 00 00             	movb   $0x0,(%eax)
  103272:	e8 63 ff ff ff       	call   1031da <keyboard_getchar>
  103277:	88 45 f7             	mov    %al,-0x9(%ebp)
  10327a:	eb 3c                	jmp    1032b8 <keyboard_getchar_until+0xab>
  10327c:	0f be 45 f7          	movsbl -0x9(%ebp),%eax
  103280:	83 ec 08             	sub    $0x8,%esp
  103283:	50                   	push   %eax
  103284:	8d 83 0a c9 ff ff    	lea    -0x36f6(%ebx),%eax
  10328a:	50                   	push   %eax
  10328b:	e8 55 d9 ff ff       	call   100be5 <printf>
  103290:	83 c4 10             	add    $0x10,%esp
  103293:	0f b6 45 f7          	movzbl -0x9(%ebp),%eax
  103297:	88 45 ee             	mov    %al,-0x12(%ebp)
  10329a:	c6 45 ef 00          	movb   $0x0,-0x11(%ebp)
  10329e:	83 ec 08             	sub    $0x8,%esp
  1032a1:	8d 45 ee             	lea    -0x12(%ebp),%eax
  1032a4:	50                   	push   %eax
  1032a5:	ff 75 f0             	pushl  -0x10(%ebp)
  1032a8:	e8 fd 04 00 00       	call   1037aa <kstrcat>
  1032ad:	83 c4 10             	add    $0x10,%esp
  1032b0:	e8 25 ff ff ff       	call   1031da <keyboard_getchar>
  1032b5:	88 45 f7             	mov    %al,-0x9(%ebp)
  1032b8:	0f b6 45 f7          	movzbl -0x9(%ebp),%eax
  1032bc:	3a 45 e4             	cmp    -0x1c(%ebp),%al
  1032bf:	75 80                	jne    103241 <keyboard_getchar_until+0x34>
  1032c1:	8b 45 f0             	mov    -0x10(%ebp),%eax
  1032c4:	8b 5d fc             	mov    -0x4(%ebp),%ebx
  1032c7:	c9                   	leave  
  1032c8:	c3                   	ret    

001032c9 <keyboard_handler>:
  1032c9:	55                   	push   %ebp
  1032ca:	89 e5                	mov    %esp,%ebp
  1032cc:	53                   	push   %ebx
  1032cd:	83 ec 14             	sub    $0x14,%esp
  1032d0:	e8 2b 1d 00 00       	call   105000 <__kernel_text_section_end>
  1032d5:	81 c3 2b 5d 00 00    	add    $0x5d2b,%ebx
  1032db:	c6 83 98 12 00 00 00 	movb   $0x0,0x1298(%ebx)
  1032e2:	e8 8b fe ff ff       	call   103172 <keyboard_getsc>
  1032e7:	0f be c0             	movsbl %al,%eax
  1032ea:	89 45 f4             	mov    %eax,-0xc(%ebp)
  1032ed:	8b 45 f4             	mov    -0xc(%ebp),%eax
  1032f0:	25 80 00 00 00       	and    $0x80,%eax
  1032f5:	85 c0                	test   %eax,%eax
  1032f7:	74 2f                	je     103328 <keyboard_handler+0x5f>
  1032f9:	83 7d f4 2a          	cmpl   $0x2a,-0xc(%ebp)
  1032fd:	74 0b                	je     10330a <keyboard_handler+0x41>
  1032ff:	83 7d f4 36          	cmpl   $0x36,-0xc(%ebp)
  103303:	74 14                	je     103319 <keyboard_handler+0x50>
  103305:	e9 ca 01 00 00       	jmp    1034d4 <.L48+0x129>
  10330a:	c7 83 90 12 00 00 00 	movl   $0x0,0x1290(%ebx)
  103311:	00 00 00 
  103314:	e9 bb 01 00 00       	jmp    1034d4 <.L48+0x129>
  103319:	c7 83 90 12 00 00 00 	movl   $0x0,0x1290(%ebx)
  103320:	00 00 00 
  103323:	e9 ac 01 00 00       	jmp    1034d4 <.L48+0x129>
  103328:	8b 45 f4             	mov    -0xc(%ebp),%eax
  10332b:	83 e8 0e             	sub    $0xe,%eax
  10332e:	83 f8 2c             	cmp    $0x2c,%eax
  103331:	77 78                	ja     1033ab <.L48>
  103333:	c1 e0 02             	shl    $0x2,%eax
  103336:	8b 84 18 10 c9 ff ff 	mov    -0x36f0(%eax,%ebx,1),%eax
  10333d:	01 d8                	add    %ebx,%eax
  10333f:	ff e0                	jmp    *%eax

00103341 <.L49>:
  103341:	8b 83 94 12 00 00    	mov    0x1294(%ebx),%eax
  103347:	85 c0                	test   %eax,%eax
  103349:	75 0f                	jne    10335a <.L49+0x19>
  10334b:	c7 83 94 12 00 00 01 	movl   $0x1,0x1294(%ebx)
  103352:	00 00 00 
  103355:	e9 7a 01 00 00       	jmp    1034d4 <.L48+0x129>
  10335a:	c7 83 94 12 00 00 00 	movl   $0x0,0x1294(%ebx)
  103361:	00 00 00 
  103364:	e9 6b 01 00 00       	jmp    1034d4 <.L48+0x129>

00103369 <.L53>:
  103369:	c6 83 98 12 00 00 0a 	movb   $0xa,0x1298(%ebx)
  103370:	e9 5f 01 00 00       	jmp    1034d4 <.L48+0x129>

00103375 <.L54>:
  103375:	c6 83 98 12 00 00 09 	movb   $0x9,0x1298(%ebx)
  10337c:	e9 53 01 00 00       	jmp    1034d4 <.L48+0x129>

00103381 <.L55>:
  103381:	c6 83 98 12 00 00 08 	movb   $0x8,0x1298(%ebx)
  103388:	e9 47 01 00 00       	jmp    1034d4 <.L48+0x129>

0010338d <.L52>:
  10338d:	c7 83 90 12 00 00 01 	movl   $0x1,0x1290(%ebx)
  103394:	00 00 00 
  103397:	e9 38 01 00 00       	jmp    1034d4 <.L48+0x129>

0010339c <.L51>:
  10339c:	c7 83 90 12 00 00 01 	movl   $0x1,0x1290(%ebx)
  1033a3:	00 00 00 
  1033a6:	e9 29 01 00 00       	jmp    1034d4 <.L48+0x129>

001033ab <.L48>:
  1033ab:	8d 93 20 f2 ff ff    	lea    -0xde0(%ebx),%edx
  1033b1:	8b 45 f4             	mov    -0xc(%ebp),%eax
  1033b4:	01 d0                	add    %edx,%eax
  1033b6:	0f b6 00             	movzbl (%eax),%eax
  1033b9:	88 83 98 12 00 00    	mov    %al,0x1298(%ebx)
  1033bf:	8b 83 94 12 00 00    	mov    0x1294(%ebx),%eax
  1033c5:	85 c0                	test   %eax,%eax
  1033c7:	0f 84 8a 00 00 00    	je     103457 <.L48+0xac>
  1033cd:	8b 83 90 12 00 00    	mov    0x1290(%ebx),%eax
  1033d3:	85 c0                	test   %eax,%eax
  1033d5:	74 21                	je     1033f8 <.L48+0x4d>
  1033d7:	0f b6 83 98 12 00 00 	movzbl 0x1298(%ebx),%eax
  1033de:	0f be c0             	movsbl %al,%eax
  1033e1:	83 ec 0c             	sub    $0xc,%esp
  1033e4:	50                   	push   %eax
  1033e5:	e8 b1 fc ff ff       	call   10309b <keyboard_alternate>
  1033ea:	83 c4 10             	add    $0x10,%esp
  1033ed:	88 83 98 12 00 00    	mov    %al,0x1298(%ebx)
  1033f3:	e9 db 00 00 00       	jmp    1034d3 <.L48+0x128>
  1033f8:	0f b6 83 98 12 00 00 	movzbl 0x1298(%ebx),%eax
  1033ff:	3c 40                	cmp    $0x40,%al
  103401:	7e 0b                	jle    10340e <.L48+0x63>
  103403:	0f b6 83 98 12 00 00 	movzbl 0x1298(%ebx),%eax
  10340a:	3c 5a                	cmp    $0x5a,%al
  10340c:	7e 16                	jle    103424 <.L48+0x79>
  10340e:	0f b6 83 98 12 00 00 	movzbl 0x1298(%ebx),%eax
  103415:	3c 60                	cmp    $0x60,%al
  103417:	7e 20                	jle    103439 <.L48+0x8e>
  103419:	0f b6 83 98 12 00 00 	movzbl 0x1298(%ebx),%eax
  103420:	3c 7a                	cmp    $0x7a,%al
  103422:	7f 15                	jg     103439 <.L48+0x8e>
  103424:	0f b6 83 98 12 00 00 	movzbl 0x1298(%ebx),%eax
  10342b:	83 e8 20             	sub    $0x20,%eax
  10342e:	88 83 98 12 00 00    	mov    %al,0x1298(%ebx)
  103434:	e9 9a 00 00 00       	jmp    1034d3 <.L48+0x128>
  103439:	0f b6 83 98 12 00 00 	movzbl 0x1298(%ebx),%eax
  103440:	0f be c0             	movsbl %al,%eax
  103443:	83 ec 0c             	sub    $0xc,%esp
  103446:	50                   	push   %eax
  103447:	e8 4f fc ff ff       	call   10309b <keyboard_alternate>
  10344c:	83 c4 10             	add    $0x10,%esp
  10344f:	88 83 98 12 00 00    	mov    %al,0x1298(%ebx)
  103455:	eb 7c                	jmp    1034d3 <.L48+0x128>
  103457:	8b 83 90 12 00 00    	mov    0x1290(%ebx),%eax
  10345d:	85 c0                	test   %eax,%eax
  10345f:	74 5c                	je     1034bd <.L48+0x112>
  103461:	0f b6 83 98 12 00 00 	movzbl 0x1298(%ebx),%eax
  103468:	3c 40                	cmp    $0x40,%al
  10346a:	7e 0b                	jle    103477 <.L48+0xcc>
  10346c:	0f b6 83 98 12 00 00 	movzbl 0x1298(%ebx),%eax
  103473:	3c 5a                	cmp    $0x5a,%al
  103475:	7e 16                	jle    10348d <.L48+0xe2>
  103477:	0f b6 83 98 12 00 00 	movzbl 0x1298(%ebx),%eax
  10347e:	3c 60                	cmp    $0x60,%al
  103480:	7e 1d                	jle    10349f <.L48+0xf4>
  103482:	0f b6 83 98 12 00 00 	movzbl 0x1298(%ebx),%eax
  103489:	3c 7a                	cmp    $0x7a,%al
  10348b:	7f 12                	jg     10349f <.L48+0xf4>
  10348d:	0f b6 83 98 12 00 00 	movzbl 0x1298(%ebx),%eax
  103494:	83 e8 20             	sub    $0x20,%eax
  103497:	88 83 98 12 00 00    	mov    %al,0x1298(%ebx)
  10349d:	eb 34                	jmp    1034d3 <.L48+0x128>
  10349f:	0f b6 83 98 12 00 00 	movzbl 0x1298(%ebx),%eax
  1034a6:	0f be c0             	movsbl %al,%eax
  1034a9:	83 ec 0c             	sub    $0xc,%esp
  1034ac:	50                   	push   %eax
  1034ad:	e8 e9 fb ff ff       	call   10309b <keyboard_alternate>
  1034b2:	83 c4 10             	add    $0x10,%esp
  1034b5:	88 83 98 12 00 00    	mov    %al,0x1298(%ebx)
  1034bb:	eb 16                	jmp    1034d3 <.L48+0x128>
  1034bd:	8d 93 20 f2 ff ff    	lea    -0xde0(%ebx),%edx
  1034c3:	8b 45 f4             	mov    -0xc(%ebp),%eax
  1034c6:	01 d0                	add    %edx,%eax
  1034c8:	0f b6 00             	movzbl (%eax),%eax
  1034cb:	88 83 98 12 00 00    	mov    %al,0x1298(%ebx)
  1034d1:	eb 00                	jmp    1034d3 <.L48+0x128>
  1034d3:	90                   	nop
  1034d4:	90                   	nop
  1034d5:	8b 5d fc             	mov    -0x4(%ebp),%ebx
  1034d8:	c9                   	leave  
  1034d9:	c3                   	ret    

001034da <keyboard_enable>:
  1034da:	55                   	push   %ebp
  1034db:	89 e5                	mov    %esp,%ebp
  1034dd:	53                   	push   %ebx
  1034de:	83 ec 04             	sub    $0x4,%esp
  1034e1:	e8 1a 1b 00 00       	call   105000 <__kernel_text_section_end>
  1034e6:	81 c3 1a 5b 00 00    	add    $0x5b1a,%ebx
  1034ec:	83 ec 04             	sub    $0x4,%esp
  1034ef:	8d 83 c4 c9 ff ff    	lea    -0x363c(%ebx),%eax
  1034f5:	50                   	push   %eax
  1034f6:	8d 83 e2 c9 ff ff    	lea    -0x361e(%ebx),%eax
  1034fc:	50                   	push   %eax
  1034fd:	6a 00                	push   $0x0
  1034ff:	e8 6d f3 ff ff       	call   102871 <quantum_info>
  103504:	83 c4 10             	add    $0x10,%esp
  103507:	83 ec 08             	sub    $0x8,%esp
  10350a:	8d 83 c9 a2 ff ff    	lea    -0x5d37(%ebx),%eax
  103510:	50                   	push   %eax
  103511:	6a 21                	push   $0x21
  103513:	e8 6d e1 ff ff       	call   101685 <isr_register_interrupt_handler>
  103518:	83 c4 10             	add    $0x10,%esp
  10351b:	90                   	nop
  10351c:	8b 5d fc             	mov    -0x4(%ebp),%ebx
  10351f:	c9                   	leave  
  103520:	c3                   	ret    

00103521 <get_mouse_x>:
  103521:	55                   	push   %ebp
  103522:	89 e5                	mov    %esp,%ebp
  103524:	e8 db 1a 00 00       	call   105004 <__x86.get_pc_thunk.ax>
  103529:	05 d7 5a 00 00       	add    $0x5ad7,%eax
  10352e:	8b 80 a0 12 00 00    	mov    0x12a0(%eax),%eax
  103534:	5d                   	pop    %ebp
  103535:	c3                   	ret    

00103536 <get_mouse_y>:
  103536:	55                   	push   %ebp
  103537:	89 e5                	mov    %esp,%ebp
  103539:	e8 c6 1a 00 00       	call   105004 <__x86.get_pc_thunk.ax>
  10353e:	05 c2 5a 00 00       	add    $0x5ac2,%eax
  103543:	8b 80 a4 12 00 00    	mov    0x12a4(%eax),%eax
  103549:	5d                   	pop    %ebp
  10354a:	c3                   	ret    

0010354b <mouse_wait>:
  10354b:	55                   	push   %ebp
  10354c:	89 e5                	mov    %esp,%ebp
  10354e:	53                   	push   %ebx
  10354f:	83 ec 24             	sub    $0x24,%esp
  103552:	e8 a9 1a 00 00       	call   105000 <__kernel_text_section_end>
  103557:	81 c3 a9 5a 00 00    	add    $0x5aa9,%ebx
  10355d:	8b 45 08             	mov    0x8(%ebp),%eax
  103560:	88 45 e4             	mov    %al,-0x1c(%ebp)
  103563:	c7 45 f4 a0 86 01 00 	movl   $0x186a0,-0xc(%ebp)
  10356a:	80 7d e4 00          	cmpb   $0x0,-0x1c(%ebp)
  10356e:	75 40                	jne    1035b0 <mouse_wait+0x65>
  103570:	eb 18                	jmp    10358a <mouse_wait+0x3f>
  103572:	83 ec 0c             	sub    $0xc,%esp
  103575:	6a 64                	push   $0x64
  103577:	e8 74 e0 ff ff       	call   1015f0 <pio_inb>
  10357c:	83 c4 10             	add    $0x10,%esp
  10357f:	0f b6 c0             	movzbl %al,%eax
  103582:	83 e0 01             	and    $0x1,%eax
  103585:	83 f8 01             	cmp    $0x1,%eax
  103588:	74 35                	je     1035bf <mouse_wait+0x74>
  10358a:	8b 45 f4             	mov    -0xc(%ebp),%eax
  10358d:	8d 50 ff             	lea    -0x1(%eax),%edx
  103590:	89 55 f4             	mov    %edx,-0xc(%ebp)
  103593:	85 c0                	test   %eax,%eax
  103595:	75 db                	jne    103572 <mouse_wait+0x27>
  103597:	eb 2a                	jmp    1035c3 <mouse_wait+0x78>
  103599:	83 ec 0c             	sub    $0xc,%esp
  10359c:	6a 64                	push   $0x64
  10359e:	e8 4d e0 ff ff       	call   1015f0 <pio_inb>
  1035a3:	83 c4 10             	add    $0x10,%esp
  1035a6:	0f b6 c0             	movzbl %al,%eax
  1035a9:	83 e0 02             	and    $0x2,%eax
  1035ac:	85 c0                	test   %eax,%eax
  1035ae:	74 12                	je     1035c2 <mouse_wait+0x77>
  1035b0:	8b 45 f4             	mov    -0xc(%ebp),%eax
  1035b3:	8d 50 ff             	lea    -0x1(%eax),%edx
  1035b6:	89 55 f4             	mov    %edx,-0xc(%ebp)
  1035b9:	85 c0                	test   %eax,%eax
  1035bb:	75 dc                	jne    103599 <mouse_wait+0x4e>
  1035bd:	eb 04                	jmp    1035c3 <mouse_wait+0x78>
  1035bf:	90                   	nop
  1035c0:	eb 01                	jmp    1035c3 <mouse_wait+0x78>
  1035c2:	90                   	nop
  1035c3:	8b 5d fc             	mov    -0x4(%ebp),%ebx
  1035c6:	c9                   	leave  
  1035c7:	c3                   	ret    

001035c8 <mouse_write>:
  1035c8:	55                   	push   %ebp
  1035c9:	89 e5                	mov    %esp,%ebp
  1035cb:	53                   	push   %ebx
  1035cc:	83 ec 14             	sub    $0x14,%esp
  1035cf:	e8 2c 1a 00 00       	call   105000 <__kernel_text_section_end>
  1035d4:	81 c3 2c 5a 00 00    	add    $0x5a2c,%ebx
  1035da:	8b 45 08             	mov    0x8(%ebp),%eax
  1035dd:	88 45 f4             	mov    %al,-0xc(%ebp)
  1035e0:	83 ec 0c             	sub    $0xc,%esp
  1035e3:	6a 01                	push   $0x1
  1035e5:	e8 61 ff ff ff       	call   10354b <mouse_wait>
  1035ea:	83 c4 10             	add    $0x10,%esp
  1035ed:	83 ec 08             	sub    $0x8,%esp
  1035f0:	68 d4 00 00 00       	push   $0xd4
  1035f5:	6a 64                	push   $0x64
  1035f7:	e8 7c df ff ff       	call   101578 <pio_outb>
  1035fc:	83 c4 10             	add    $0x10,%esp
  1035ff:	83 ec 0c             	sub    $0xc,%esp
  103602:	6a 01                	push   $0x1
  103604:	e8 42 ff ff ff       	call   10354b <mouse_wait>
  103609:	83 c4 10             	add    $0x10,%esp
  10360c:	0f b6 45 f4          	movzbl -0xc(%ebp),%eax
  103610:	83 ec 08             	sub    $0x8,%esp
  103613:	50                   	push   %eax
  103614:	6a 60                	push   $0x60
  103616:	e8 5d df ff ff       	call   101578 <pio_outb>
  10361b:	83 c4 10             	add    $0x10,%esp
  10361e:	90                   	nop
  10361f:	8b 5d fc             	mov    -0x4(%ebp),%ebx
  103622:	c9                   	leave  
  103623:	c3                   	ret    

00103624 <mouse_read>:
  103624:	55                   	push   %ebp
  103625:	89 e5                	mov    %esp,%ebp
  103627:	53                   	push   %ebx
  103628:	83 ec 04             	sub    $0x4,%esp
  10362b:	e8 d0 19 00 00       	call   105000 <__kernel_text_section_end>
  103630:	81 c3 d0 59 00 00    	add    $0x59d0,%ebx
  103636:	83 ec 0c             	sub    $0xc,%esp
  103639:	6a 00                	push   $0x0
  10363b:	e8 0b ff ff ff       	call   10354b <mouse_wait>
  103640:	83 c4 10             	add    $0x10,%esp
  103643:	83 ec 0c             	sub    $0xc,%esp
  103646:	6a 60                	push   $0x60
  103648:	e8 a3 df ff ff       	call   1015f0 <pio_inb>
  10364d:	83 c4 10             	add    $0x10,%esp
  103650:	8b 5d fc             	mov    -0x4(%ebp),%ebx
  103653:	c9                   	leave  
  103654:	c3                   	ret    

00103655 <mouse_handler>:
  103655:	55                   	push   %ebp
  103656:	89 e5                	mov    %esp,%ebp
  103658:	53                   	push   %ebx
  103659:	83 ec 14             	sub    $0x14,%esp
  10365c:	e8 9f 19 00 00       	call   105000 <__kernel_text_section_end>
  103661:	81 c3 9f 59 00 00    	add    $0x599f,%ebx
  103667:	0f b6 83 9c 12 00 00 	movzbl 0x129c(%ebx),%eax
  10366e:	0f b6 c0             	movzbl %al,%eax
  103671:	83 f8 02             	cmp    $0x2,%eax
  103674:	74 61                	je     1036d7 <mouse_handler+0x82>
  103676:	83 f8 02             	cmp    $0x2,%eax
  103679:	0f 8f ad 00 00 00    	jg     10372c <mouse_handler+0xd7>
  10367f:	85 c0                	test   %eax,%eax
  103681:	74 0a                	je     10368d <mouse_handler+0x38>
  103683:	83 f8 01             	cmp    $0x1,%eax
  103686:	74 2a                	je     1036b2 <mouse_handler+0x5d>
  103688:	e9 9f 00 00 00       	jmp    10372c <mouse_handler+0xd7>
  10368d:	83 ec 0c             	sub    $0xc,%esp
  103690:	6a 60                	push   $0x60
  103692:	e8 59 df ff ff       	call   1015f0 <pio_inb>
  103697:	83 c4 10             	add    $0x10,%esp
  10369a:	88 83 9d 12 00 00    	mov    %al,0x129d(%ebx)
  1036a0:	0f b6 83 9c 12 00 00 	movzbl 0x129c(%ebx),%eax
  1036a7:	83 c0 01             	add    $0x1,%eax
  1036aa:	88 83 9c 12 00 00    	mov    %al,0x129c(%ebx)
  1036b0:	eb 7a                	jmp    10372c <mouse_handler+0xd7>
  1036b2:	83 ec 0c             	sub    $0xc,%esp
  1036b5:	6a 60                	push   $0x60
  1036b7:	e8 34 df ff ff       	call   1015f0 <pio_inb>
  1036bc:	83 c4 10             	add    $0x10,%esp
  1036bf:	88 83 9e 12 00 00    	mov    %al,0x129e(%ebx)
  1036c5:	0f b6 83 9c 12 00 00 	movzbl 0x129c(%ebx),%eax
  1036cc:	83 c0 01             	add    $0x1,%eax
  1036cf:	88 83 9c 12 00 00    	mov    %al,0x129c(%ebx)
  1036d5:	eb 55                	jmp    10372c <mouse_handler+0xd7>
  1036d7:	83 ec 0c             	sub    $0xc,%esp
  1036da:	6a 60                	push   $0x60
  1036dc:	e8 0f df ff ff       	call   1015f0 <pio_inb>
  1036e1:	83 c4 10             	add    $0x10,%esp
  1036e4:	88 83 9f 12 00 00    	mov    %al,0x129f(%ebx)
  1036ea:	0f b6 83 9e 12 00 00 	movzbl 0x129e(%ebx),%eax
  1036f1:	0f be c0             	movsbl %al,%eax
  1036f4:	89 45 f4             	mov    %eax,-0xc(%ebp)
  1036f7:	0f b6 83 9f 12 00 00 	movzbl 0x129f(%ebx),%eax
  1036fe:	0f be c0             	movsbl %al,%eax
  103701:	89 45 f0             	mov    %eax,-0x10(%ebp)
  103704:	8b 93 a0 12 00 00    	mov    0x12a0(%ebx),%edx
  10370a:	8b 45 f4             	mov    -0xc(%ebp),%eax
  10370d:	01 d0                	add    %edx,%eax
  10370f:	89 83 a0 12 00 00    	mov    %eax,0x12a0(%ebx)
  103715:	8b 83 a4 12 00 00    	mov    0x12a4(%ebx),%eax
  10371b:	2b 45 f0             	sub    -0x10(%ebp),%eax
  10371e:	89 83 a4 12 00 00    	mov    %eax,0x12a4(%ebx)
  103724:	c6 83 9c 12 00 00 00 	movb   $0x0,0x129c(%ebx)
  10372b:	90                   	nop
  10372c:	90                   	nop
  10372d:	8b 5d fc             	mov    -0x4(%ebp),%ebx
  103730:	c9                   	leave  
  103731:	c3                   	ret    

00103732 <quantum_mouse_init>:
  103732:	55                   	push   %ebp
  103733:	89 e5                	mov    %esp,%ebp
  103735:	53                   	push   %ebx
  103736:	83 ec 04             	sub    $0x4,%esp
  103739:	e8 c2 18 00 00       	call   105000 <__kernel_text_section_end>
  10373e:	81 c3 c2 58 00 00    	add    $0x58c2,%ebx
  103744:	83 ec 04             	sub    $0x4,%esp
  103747:	8d 83 eb c9 ff ff    	lea    -0x3615(%ebx),%eax
  10374d:	50                   	push   %eax
  10374e:	8d 83 06 ca ff ff    	lea    -0x35fa(%ebx),%eax
  103754:	50                   	push   %eax
  103755:	6a 00                	push   $0x0
  103757:	e8 15 f1 ff ff       	call   102871 <quantum_info>
  10375c:	83 c4 10             	add    $0x10,%esp
  10375f:	c7 83 a0 12 00 00 80 	movl   $0x280,0x12a0(%ebx)
  103766:	02 00 00 
  103769:	c7 83 a4 12 00 00 68 	movl   $0x168,0x12a4(%ebx)
  103770:	01 00 00 
  103773:	90                   	nop
  103774:	8b 5d fc             	mov    -0x4(%ebp),%ebx
  103777:	c9                   	leave  
  103778:	c3                   	ret    

00103779 <kstrlen>:
  103779:	55                   	push   %ebp
  10377a:	89 e5                	mov    %esp,%ebp
  10377c:	83 ec 10             	sub    $0x10,%esp
  10377f:	e8 80 18 00 00       	call   105004 <__x86.get_pc_thunk.ax>
  103784:	05 7c 58 00 00       	add    $0x587c,%eax
  103789:	c7 45 fc 00 00 00 00 	movl   $0x0,-0x4(%ebp)
  103790:	eb 04                	jmp    103796 <kstrlen+0x1d>
  103792:	83 45 fc 01          	addl   $0x1,-0x4(%ebp)
  103796:	8b 55 08             	mov    0x8(%ebp),%edx
  103799:	8b 45 fc             	mov    -0x4(%ebp),%eax
  10379c:	01 d0                	add    %edx,%eax
  10379e:	0f b6 00             	movzbl (%eax),%eax
  1037a1:	84 c0                	test   %al,%al
  1037a3:	75 ed                	jne    103792 <kstrlen+0x19>
  1037a5:	8b 45 fc             	mov    -0x4(%ebp),%eax
  1037a8:	c9                   	leave  
  1037a9:	c3                   	ret    

001037aa <kstrcat>:
  1037aa:	55                   	push   %ebp
  1037ab:	89 e5                	mov    %esp,%ebp
  1037ad:	53                   	push   %ebx
  1037ae:	83 ec 14             	sub    $0x14,%esp
  1037b1:	e8 4a 18 00 00       	call   105000 <__kernel_text_section_end>
  1037b6:	81 c3 4a 58 00 00    	add    $0x584a,%ebx
  1037bc:	ff 75 08             	pushl  0x8(%ebp)
  1037bf:	e8 b5 ff ff ff       	call   103779 <kstrlen>
  1037c4:	83 c4 04             	add    $0x4,%esp
  1037c7:	89 c2                	mov    %eax,%edx
  1037c9:	8b 45 08             	mov    0x8(%ebp),%eax
  1037cc:	01 d0                	add    %edx,%eax
  1037ce:	89 45 f4             	mov    %eax,-0xc(%ebp)
  1037d1:	ff 75 0c             	pushl  0xc(%ebp)
  1037d4:	e8 a0 ff ff ff       	call   103779 <kstrlen>
  1037d9:	83 c4 04             	add    $0x4,%esp
  1037dc:	83 ec 04             	sub    $0x4,%esp
  1037df:	50                   	push   %eax
  1037e0:	ff 75 0c             	pushl  0xc(%ebp)
  1037e3:	ff 75 f4             	pushl  -0xc(%ebp)
  1037e6:	e8 e7 f7 ff ff       	call   102fd2 <kmemcpy>
  1037eb:	83 c4 10             	add    $0x10,%esp
  1037ee:	83 ec 0c             	sub    $0xc,%esp
  1037f1:	ff 75 0c             	pushl  0xc(%ebp)
  1037f4:	e8 80 ff ff ff       	call   103779 <kstrlen>
  1037f9:	83 c4 10             	add    $0x10,%esp
  1037fc:	01 45 f4             	add    %eax,-0xc(%ebp)
  1037ff:	8b 45 f4             	mov    -0xc(%ebp),%eax
  103802:	c6 00 00             	movb   $0x0,(%eax)
  103805:	90                   	nop
  103806:	8b 5d fc             	mov    -0x4(%ebp),%ebx
  103809:	c9                   	leave  
  10380a:	c3                   	ret    

0010380b <acpi_reboot>:
  10380b:	55                   	push   %ebp
  10380c:	89 e5                	mov    %esp,%ebp
  10380e:	53                   	push   %ebx
  10380f:	83 ec 14             	sub    $0x14,%esp
  103812:	e8 e9 17 00 00       	call   105000 <__kernel_text_section_end>
  103817:	81 c3 e9 57 00 00    	add    $0x57e9,%ebx
  10381d:	fa                   	cli    
  10381e:	83 ec 0c             	sub    $0xc,%esp
  103821:	6a 64                	push   $0x64
  103823:	e8 c8 dd ff ff       	call   1015f0 <pio_inb>
  103828:	83 c4 10             	add    $0x10,%esp
  10382b:	88 45 f7             	mov    %al,-0x9(%ebp)
  10382e:	0f b6 45 f7          	movzbl -0x9(%ebp),%eax
  103832:	83 e0 01             	and    $0x1,%eax
  103835:	85 c0                	test   %eax,%eax
  103837:	74 0d                	je     103846 <acpi_reboot+0x3b>
  103839:	83 ec 0c             	sub    $0xc,%esp
  10383c:	6a 60                	push   $0x60
  10383e:	e8 ad dd ff ff       	call   1015f0 <pio_inb>
  103843:	83 c4 10             	add    $0x10,%esp
  103846:	0f b6 45 f7          	movzbl -0x9(%ebp),%eax
  10384a:	83 e0 02             	and    $0x2,%eax
  10384d:	85 c0                	test   %eax,%eax
  10384f:	75 cd                	jne    10381e <acpi_reboot+0x13>
  103851:	83 ec 08             	sub    $0x8,%esp
  103854:	68 fe 00 00 00       	push   $0xfe
  103859:	6a 64                	push   $0x64
  10385b:	e8 18 dd ff ff       	call   101578 <pio_outb>
  103860:	83 c4 10             	add    $0x10,%esp
  103863:	f4                   	hlt    
  103864:	eb fd                	jmp    103863 <acpi_reboot+0x58>

00103866 <kpanic>:
  103866:	55                   	push   %ebp
  103867:	89 e5                	mov    %esp,%ebp
  103869:	53                   	push   %ebx
  10386a:	83 ec 04             	sub    $0x4,%esp
  10386d:	e8 92 17 00 00       	call   105004 <__x86.get_pc_thunk.ax>
  103872:	05 8e 57 00 00       	add    $0x578e,%eax
  103877:	83 ec 08             	sub    $0x8,%esp
  10387a:	ff 75 08             	pushl  0x8(%ebp)
  10387d:	8d 90 10 ca ff ff    	lea    -0x35f0(%eax),%edx
  103883:	52                   	push   %edx
  103884:	89 c3                	mov    %eax,%ebx
  103886:	e8 5a d3 ff ff       	call   100be5 <printf>
  10388b:	83 c4 10             	add    $0x10,%esp
  10388e:	f4                   	hlt    
  10388f:	90                   	nop
  103890:	8b 5d fc             	mov    -0x4(%ebp),%ebx
  103893:	c9                   	leave  
  103894:	c3                   	ret    

00103895 <vfs_append_directory>:
  103895:	55                   	push   %ebp
  103896:	89 e5                	mov    %esp,%ebp
  103898:	e8 67 17 00 00       	call   105004 <__x86.get_pc_thunk.ax>
  10389d:	05 63 57 00 00       	add    $0x5763,%eax
  1038a2:	8b 45 08             	mov    0x8(%ebp),%eax
  1038a5:	8b 80 28 04 00 00    	mov    0x428(%eax),%eax
  1038ab:	83 f8 64             	cmp    $0x64,%eax
  1038ae:	74 26                	je     1038d6 <vfs_append_directory+0x41>
  1038b0:	8b 45 08             	mov    0x8(%ebp),%eax
  1038b3:	8b 80 28 04 00 00    	mov    0x428(%eax),%eax
  1038b9:	8d 48 01             	lea    0x1(%eax),%ecx
  1038bc:	8b 55 08             	mov    0x8(%ebp),%edx
  1038bf:	89 8a 28 04 00 00    	mov    %ecx,0x428(%edx)
  1038c5:	8b 55 08             	mov    0x8(%ebp),%edx
  1038c8:	8d 88 a4 00 00 00    	lea    0xa4(%eax),%ecx
  1038ce:	8b 45 0c             	mov    0xc(%ebp),%eax
  1038d1:	89 04 8a             	mov    %eax,(%edx,%ecx,4)
  1038d4:	eb 01                	jmp    1038d7 <vfs_append_directory+0x42>
  1038d6:	90                   	nop
  1038d7:	5d                   	pop    %ebp
  1038d8:	c3                   	ret    

001038d9 <vfs_append_file>:
  1038d9:	55                   	push   %ebp
  1038da:	89 e5                	mov    %esp,%ebp
  1038dc:	e8 23 17 00 00       	call   105004 <__x86.get_pc_thunk.ax>
  1038e1:	05 1f 57 00 00       	add    $0x571f,%eax
  1038e6:	8b 45 08             	mov    0x8(%ebp),%eax
  1038e9:	8b 80 2c 04 00 00    	mov    0x42c(%eax),%eax
  1038ef:	83 f8 64             	cmp    $0x64,%eax
  1038f2:	74 23                	je     103917 <vfs_append_file+0x3e>
  1038f4:	8b 45 08             	mov    0x8(%ebp),%eax
  1038f7:	8b 80 2c 04 00 00    	mov    0x42c(%eax),%eax
  1038fd:	8d 48 01             	lea    0x1(%eax),%ecx
  103900:	8b 55 08             	mov    0x8(%ebp),%edx
  103903:	89 8a 2c 04 00 00    	mov    %ecx,0x42c(%edx)
  103909:	8b 55 08             	mov    0x8(%ebp),%edx
  10390c:	8d 48 40             	lea    0x40(%eax),%ecx
  10390f:	8b 45 0c             	mov    0xc(%ebp),%eax
  103912:	89 04 8a             	mov    %eax,(%edx,%ecx,4)
  103915:	eb 01                	jmp    103918 <vfs_append_file+0x3f>
  103917:	90                   	nop
  103918:	5d                   	pop    %ebp
  103919:	c3                   	ret    

0010391a <vfs_initialize>:
  10391a:	55                   	push   %ebp
  10391b:	89 e5                	mov    %esp,%ebp
  10391d:	56                   	push   %esi
  10391e:	53                   	push   %ebx
  10391f:	e8 dc 16 00 00       	call   105000 <__kernel_text_section_end>
  103924:	81 c3 dc 56 00 00    	add    $0x56dc,%ebx
  10392a:	8b b3 a8 12 00 00    	mov    0x12a8(%ebx),%esi
  103930:	83 ec 0c             	sub    $0xc,%esp
  103933:	68 30 04 00 00       	push   $0x430
  103938:	e8 cd f4 ff ff       	call   102e0a <kmalloc>
  10393d:	83 c4 10             	add    $0x10,%esp
  103940:	89 46 0c             	mov    %eax,0xc(%esi)
  103943:	8b 83 a8 12 00 00    	mov    0x12a8(%ebx),%eax
  103949:	8b 40 0c             	mov    0xc(%eax),%eax
  10394c:	89 c2                	mov    %eax,%edx
  10394e:	83 ec 08             	sub    $0x8,%esp
  103951:	8d 83 38 ca ff ff    	lea    -0x35c8(%ebx),%eax
  103957:	50                   	push   %eax
  103958:	52                   	push   %edx
  103959:	e8 a7 cc ff ff       	call   100605 <strcpy>
  10395e:	83 c4 10             	add    $0x10,%esp
  103961:	8b 83 a8 12 00 00    	mov    0x12a8(%ebx),%eax
  103967:	8b 40 0c             	mov    0xc(%eax),%eax
  10396a:	c7 80 28 04 00 00 00 	movl   $0x0,0x428(%eax)
  103971:	00 00 00 
  103974:	8b 83 a8 12 00 00    	mov    0x12a8(%ebx),%eax
  10397a:	8b 40 0c             	mov    0xc(%eax),%eax
  10397d:	c7 80 2c 04 00 00 00 	movl   $0x0,0x42c(%eax)
  103984:	00 00 00 
  103987:	8b 83 a8 12 00 00    	mov    0x12a8(%ebx),%eax
  10398d:	8b 40 0c             	mov    0xc(%eax),%eax
  103990:	c7 80 24 04 00 00 00 	movl   $0x0,0x424(%eax)
  103997:	00 00 00 
  10399a:	8b 83 a8 12 00 00    	mov    0x12a8(%ebx),%eax
  1039a0:	c6 00 00             	movb   $0x0,(%eax)
  1039a3:	8b 83 a8 12 00 00    	mov    0x12a8(%ebx),%eax
  1039a9:	8b 55 08             	mov    0x8(%ebp),%edx
  1039ac:	88 50 01             	mov    %dl,0x1(%eax)
  1039af:	8b 83 a8 12 00 00    	mov    0x12a8(%ebx),%eax
  1039b5:	c7 40 04 00 00 00 00 	movl   $0x0,0x4(%eax)
  1039bc:	8b 83 a8 12 00 00    	mov    0x12a8(%ebx),%eax
  1039c2:	c7 40 08 00 00 00 00 	movl   $0x0,0x8(%eax)
  1039c9:	8b 83 a8 12 00 00    	mov    0x12a8(%ebx),%eax
  1039cf:	8b 40 0c             	mov    0xc(%eax),%eax
  1039d2:	83 ec 08             	sub    $0x8,%esp
  1039d5:	8d 93 3a ca ff ff    	lea    -0x35c6(%ebx),%edx
  1039db:	52                   	push   %edx
  1039dc:	50                   	push   %eax
  1039dd:	e8 68 05 00 00       	call   103f4a <vfs_create_dir>
  1039e2:	83 c4 10             	add    $0x10,%esp
  1039e5:	8b 93 a8 12 00 00    	mov    0x12a8(%ebx),%edx
  1039eb:	8b 52 0c             	mov    0xc(%edx),%edx
  1039ee:	83 ec 08             	sub    $0x8,%esp
  1039f1:	50                   	push   %eax
  1039f2:	52                   	push   %edx
  1039f3:	e8 9d fe ff ff       	call   103895 <vfs_append_directory>
  1039f8:	83 c4 10             	add    $0x10,%esp
  1039fb:	8b 83 a8 12 00 00    	mov    0x12a8(%ebx),%eax
  103a01:	8b 40 0c             	mov    0xc(%eax),%eax
  103a04:	83 ec 08             	sub    $0x8,%esp
  103a07:	8d 93 3f ca ff ff    	lea    -0x35c1(%ebx),%edx
  103a0d:	52                   	push   %edx
  103a0e:	50                   	push   %eax
  103a0f:	e8 36 05 00 00       	call   103f4a <vfs_create_dir>
  103a14:	83 c4 10             	add    $0x10,%esp
  103a17:	8b 93 a8 12 00 00    	mov    0x12a8(%ebx),%edx
  103a1d:	8b 52 0c             	mov    0xc(%edx),%edx
  103a20:	83 ec 08             	sub    $0x8,%esp
  103a23:	50                   	push   %eax
  103a24:	52                   	push   %edx
  103a25:	e8 6b fe ff ff       	call   103895 <vfs_append_directory>
  103a2a:	83 c4 10             	add    $0x10,%esp
  103a2d:	8b 83 a8 12 00 00    	mov    0x12a8(%ebx),%eax
  103a33:	8b 40 0c             	mov    0xc(%eax),%eax
  103a36:	83 ec 08             	sub    $0x8,%esp
  103a39:	8d 93 43 ca ff ff    	lea    -0x35bd(%ebx),%edx
  103a3f:	52                   	push   %edx
  103a40:	50                   	push   %eax
  103a41:	e8 04 05 00 00       	call   103f4a <vfs_create_dir>
  103a46:	83 c4 10             	add    $0x10,%esp
  103a49:	8b 93 a8 12 00 00    	mov    0x12a8(%ebx),%edx
  103a4f:	8b 52 0c             	mov    0xc(%edx),%edx
  103a52:	83 ec 08             	sub    $0x8,%esp
  103a55:	50                   	push   %eax
  103a56:	52                   	push   %edx
  103a57:	e8 39 fe ff ff       	call   103895 <vfs_append_directory>
  103a5c:	83 c4 10             	add    $0x10,%esp
  103a5f:	8b 83 a8 12 00 00    	mov    0x12a8(%ebx),%eax
  103a65:	8b 40 0c             	mov    0xc(%eax),%eax
  103a68:	83 ec 08             	sub    $0x8,%esp
  103a6b:	8d 93 47 ca ff ff    	lea    -0x35b9(%ebx),%edx
  103a71:	52                   	push   %edx
  103a72:	50                   	push   %eax
  103a73:	e8 d2 04 00 00       	call   103f4a <vfs_create_dir>
  103a78:	83 c4 10             	add    $0x10,%esp
  103a7b:	8b 93 a8 12 00 00    	mov    0x12a8(%ebx),%edx
  103a81:	8b 52 0c             	mov    0xc(%edx),%edx
  103a84:	83 ec 08             	sub    $0x8,%esp
  103a87:	50                   	push   %eax
  103a88:	52                   	push   %edx
  103a89:	e8 07 fe ff ff       	call   103895 <vfs_append_directory>
  103a8e:	83 c4 10             	add    $0x10,%esp
  103a91:	90                   	nop
  103a92:	8d 65 f8             	lea    -0x8(%ebp),%esp
  103a95:	5b                   	pop    %ebx
  103a96:	5e                   	pop    %esi
  103a97:	5d                   	pop    %ebp
  103a98:	c3                   	ret    

00103a99 <vfs_get_file_in_dir>:
  103a99:	55                   	push   %ebp
  103a9a:	89 e5                	mov    %esp,%ebp
  103a9c:	53                   	push   %ebx
  103a9d:	83 ec 14             	sub    $0x14,%esp
  103aa0:	e8 5b 15 00 00       	call   105000 <__kernel_text_section_end>
  103aa5:	81 c3 5b 55 00 00    	add    $0x555b,%ebx
  103aab:	c7 45 f4 00 00 00 00 	movl   $0x0,-0xc(%ebp)
  103ab2:	eb 31                	jmp    103ae5 <vfs_get_file_in_dir+0x4c>
  103ab4:	8b 45 08             	mov    0x8(%ebp),%eax
  103ab7:	8b 55 f4             	mov    -0xc(%ebp),%edx
  103aba:	83 c2 40             	add    $0x40,%edx
  103abd:	8b 04 90             	mov    (%eax,%edx,4),%eax
  103ac0:	83 ec 08             	sub    $0x8,%esp
  103ac3:	ff 75 0c             	pushl  0xc(%ebp)
  103ac6:	50                   	push   %eax
  103ac7:	e8 6f ca ff ff       	call   10053b <strcmp>
  103acc:	83 c4 10             	add    $0x10,%esp
  103acf:	85 c0                	test   %eax,%eax
  103ad1:	75 0e                	jne    103ae1 <vfs_get_file_in_dir+0x48>
  103ad3:	8b 45 08             	mov    0x8(%ebp),%eax
  103ad6:	8b 55 f4             	mov    -0xc(%ebp),%edx
  103ad9:	83 c2 40             	add    $0x40,%edx
  103adc:	8b 04 90             	mov    (%eax,%edx,4),%eax
  103adf:	eb 12                	jmp    103af3 <vfs_get_file_in_dir+0x5a>
  103ae1:	83 45 f4 01          	addl   $0x1,-0xc(%ebp)
  103ae5:	8b 45 08             	mov    0x8(%ebp),%eax
  103ae8:	8b 80 2c 04 00 00    	mov    0x42c(%eax),%eax
  103aee:	39 45 f4             	cmp    %eax,-0xc(%ebp)
  103af1:	7c c1                	jl     103ab4 <vfs_get_file_in_dir+0x1b>
  103af3:	8b 5d fc             	mov    -0x4(%ebp),%ebx
  103af6:	c9                   	leave  
  103af7:	c3                   	ret    

00103af8 <vfs_get_file_by_desc>:
  103af8:	55                   	push   %ebp
  103af9:	89 e5                	mov    %esp,%ebp
  103afb:	83 ec 10             	sub    $0x10,%esp
  103afe:	e8 01 15 00 00       	call   105004 <__x86.get_pc_thunk.ax>
  103b03:	05 fd 54 00 00       	add    $0x54fd,%eax
  103b08:	c7 45 fc 00 00 00 00 	movl   $0x0,-0x4(%ebp)
  103b0f:	eb 29                	jmp    103b3a <vfs_get_file_by_desc+0x42>
  103b11:	8b 45 08             	mov    0x8(%ebp),%eax
  103b14:	8b 55 fc             	mov    -0x4(%ebp),%edx
  103b17:	83 c2 40             	add    $0x40,%edx
  103b1a:	8b 04 90             	mov    (%eax,%edx,4),%eax
  103b1d:	8b 80 08 01 00 00    	mov    0x108(%eax),%eax
  103b23:	39 45 0c             	cmp    %eax,0xc(%ebp)
  103b26:	75 0e                	jne    103b36 <vfs_get_file_by_desc+0x3e>
  103b28:	8b 45 08             	mov    0x8(%ebp),%eax
  103b2b:	8b 55 fc             	mov    -0x4(%ebp),%edx
  103b2e:	83 c2 40             	add    $0x40,%edx
  103b31:	8b 04 90             	mov    (%eax,%edx,4),%eax
  103b34:	eb 12                	jmp    103b48 <vfs_get_file_by_desc+0x50>
  103b36:	83 45 fc 01          	addl   $0x1,-0x4(%ebp)
  103b3a:	8b 45 08             	mov    0x8(%ebp),%eax
  103b3d:	8b 80 2c 04 00 00    	mov    0x42c(%eax),%eax
  103b43:	39 45 fc             	cmp    %eax,-0x4(%ebp)
  103b46:	7c c9                	jl     103b11 <vfs_get_file_by_desc+0x19>
  103b48:	c9                   	leave  
  103b49:	c3                   	ret    

00103b4a <vfs_get_dir_in_dir>:
  103b4a:	55                   	push   %ebp
  103b4b:	89 e5                	mov    %esp,%ebp
  103b4d:	53                   	push   %ebx
  103b4e:	83 ec 14             	sub    $0x14,%esp
  103b51:	e8 aa 14 00 00       	call   105000 <__kernel_text_section_end>
  103b56:	81 c3 aa 54 00 00    	add    $0x54aa,%ebx
  103b5c:	c7 45 f4 00 00 00 00 	movl   $0x0,-0xc(%ebp)
  103b63:	eb 37                	jmp    103b9c <vfs_get_dir_in_dir+0x52>
  103b65:	8b 45 08             	mov    0x8(%ebp),%eax
  103b68:	8b 55 f4             	mov    -0xc(%ebp),%edx
  103b6b:	81 c2 a4 00 00 00    	add    $0xa4,%edx
  103b71:	8b 04 90             	mov    (%eax,%edx,4),%eax
  103b74:	83 ec 08             	sub    $0x8,%esp
  103b77:	ff 75 0c             	pushl  0xc(%ebp)
  103b7a:	50                   	push   %eax
  103b7b:	e8 bb c9 ff ff       	call   10053b <strcmp>
  103b80:	83 c4 10             	add    $0x10,%esp
  103b83:	85 c0                	test   %eax,%eax
  103b85:	75 11                	jne    103b98 <vfs_get_dir_in_dir+0x4e>
  103b87:	8b 45 08             	mov    0x8(%ebp),%eax
  103b8a:	8b 55 f4             	mov    -0xc(%ebp),%edx
  103b8d:	81 c2 a4 00 00 00    	add    $0xa4,%edx
  103b93:	8b 04 90             	mov    (%eax,%edx,4),%eax
  103b96:	eb 12                	jmp    103baa <vfs_get_dir_in_dir+0x60>
  103b98:	83 45 f4 01          	addl   $0x1,-0xc(%ebp)
  103b9c:	8b 45 08             	mov    0x8(%ebp),%eax
  103b9f:	8b 80 28 04 00 00    	mov    0x428(%eax),%eax
  103ba5:	39 45 f4             	cmp    %eax,-0xc(%ebp)
  103ba8:	7c bb                	jl     103b65 <vfs_get_dir_in_dir+0x1b>
  103baa:	8b 5d fc             	mov    -0x4(%ebp),%ebx
  103bad:	c9                   	leave  
  103bae:	c3                   	ret    

00103baf <vfs_get_dir_by_path>:
  103baf:	55                   	push   %ebp
  103bb0:	89 e5                	mov    %esp,%ebp
  103bb2:	53                   	push   %ebx
  103bb3:	83 ec 24             	sub    $0x24,%esp
  103bb6:	e8 45 14 00 00       	call   105000 <__kernel_text_section_end>
  103bbb:	81 c3 45 54 00 00    	add    $0x5445,%ebx
  103bc1:	83 ec 08             	sub    $0x8,%esp
  103bc4:	8d 83 4b ca ff ff    	lea    -0x35b5(%ebx),%eax
  103bca:	50                   	push   %eax
  103bcb:	ff 75 0c             	pushl  0xc(%ebp)
  103bce:	e8 68 c9 ff ff       	call   10053b <strcmp>
  103bd3:	83 c4 10             	add    $0x10,%esp
  103bd6:	85 c0                	test   %eax,%eax
  103bd8:	74 08                	je     103be2 <vfs_get_dir_by_path+0x33>
  103bda:	8b 45 08             	mov    0x8(%ebp),%eax
  103bdd:	e9 90 01 00 00       	jmp    103d72 <vfs_get_dir_by_path+0x1c3>
  103be2:	83 ec 08             	sub    $0x8,%esp
  103be5:	8d 83 4d ca ff ff    	lea    -0x35b3(%ebx),%eax
  103beb:	50                   	push   %eax
  103bec:	ff 75 0c             	pushl  0xc(%ebp)
  103bef:	e8 47 c9 ff ff       	call   10053b <strcmp>
  103bf4:	83 c4 10             	add    $0x10,%esp
  103bf7:	85 c0                	test   %eax,%eax
  103bf9:	74 0e                	je     103c09 <vfs_get_dir_by_path+0x5a>
  103bfb:	8b 45 08             	mov    0x8(%ebp),%eax
  103bfe:	8b 80 20 04 00 00    	mov    0x420(%eax),%eax
  103c04:	e9 69 01 00 00       	jmp    103d72 <vfs_get_dir_by_path+0x1c3>
  103c09:	83 ec 08             	sub    $0x8,%esp
  103c0c:	8d 83 38 ca ff ff    	lea    -0x35c8(%ebx),%eax
  103c12:	50                   	push   %eax
  103c13:	ff 75 0c             	pushl  0xc(%ebp)
  103c16:	e8 20 c9 ff ff       	call   10053b <strcmp>
  103c1b:	83 c4 10             	add    $0x10,%esp
  103c1e:	85 c0                	test   %eax,%eax
  103c20:	74 0e                	je     103c30 <vfs_get_dir_by_path+0x81>
  103c22:	8b 83 a8 12 00 00    	mov    0x12a8(%ebx),%eax
  103c28:	8b 40 0c             	mov    0xc(%eax),%eax
  103c2b:	e9 42 01 00 00       	jmp    103d72 <vfs_get_dir_by_path+0x1c3>
  103c30:	c7 45 f4 00 00 00 00 	movl   $0x0,-0xc(%ebp)
  103c37:	eb 3a                	jmp    103c73 <vfs_get_dir_by_path+0xc4>
  103c39:	8b 45 08             	mov    0x8(%ebp),%eax
  103c3c:	8b 55 f4             	mov    -0xc(%ebp),%edx
  103c3f:	81 c2 a4 00 00 00    	add    $0xa4,%edx
  103c45:	8b 04 90             	mov    (%eax,%edx,4),%eax
  103c48:	83 ec 08             	sub    $0x8,%esp
  103c4b:	ff 75 0c             	pushl  0xc(%ebp)
  103c4e:	50                   	push   %eax
  103c4f:	e8 e7 c8 ff ff       	call   10053b <strcmp>
  103c54:	83 c4 10             	add    $0x10,%esp
  103c57:	85 c0                	test   %eax,%eax
  103c59:	75 14                	jne    103c6f <vfs_get_dir_by_path+0xc0>
  103c5b:	8b 45 08             	mov    0x8(%ebp),%eax
  103c5e:	8b 55 f4             	mov    -0xc(%ebp),%edx
  103c61:	81 c2 a4 00 00 00    	add    $0xa4,%edx
  103c67:	8b 04 90             	mov    (%eax,%edx,4),%eax
  103c6a:	e9 03 01 00 00       	jmp    103d72 <vfs_get_dir_by_path+0x1c3>
  103c6f:	83 45 f4 01          	addl   $0x1,-0xc(%ebp)
  103c73:	8b 45 08             	mov    0x8(%ebp),%eax
  103c76:	8b 80 28 04 00 00    	mov    0x428(%eax),%eax
  103c7c:	39 45 f4             	cmp    %eax,-0xc(%ebp)
  103c7f:	7c b8                	jl     103c39 <vfs_get_dir_by_path+0x8a>
  103c81:	c7 45 f0 00 00 00 00 	movl   $0x0,-0x10(%ebp)
  103c88:	eb 42                	jmp    103ccc <vfs_get_dir_by_path+0x11d>
  103c8a:	8b 45 08             	mov    0x8(%ebp),%eax
  103c8d:	8b 55 f0             	mov    -0x10(%ebp),%edx
  103c90:	83 c2 40             	add    $0x40,%edx
  103c93:	8b 04 90             	mov    (%eax,%edx,4),%eax
  103c96:	83 ec 08             	sub    $0x8,%esp
  103c99:	ff 75 0c             	pushl  0xc(%ebp)
  103c9c:	50                   	push   %eax
  103c9d:	e8 99 c8 ff ff       	call   10053b <strcmp>
  103ca2:	83 c4 10             	add    $0x10,%esp
  103ca5:	85 c0                	test   %eax,%eax
  103ca7:	75 1f                	jne    103cc8 <vfs_get_dir_by_path+0x119>
  103ca9:	83 ec 08             	sub    $0x8,%esp
  103cac:	ff 75 0c             	pushl  0xc(%ebp)
  103caf:	8d 83 50 ca ff ff    	lea    -0x35b0(%ebx),%eax
  103cb5:	50                   	push   %eax
  103cb6:	e8 2a cf ff ff       	call   100be5 <printf>
  103cbb:	83 c4 10             	add    $0x10,%esp
  103cbe:	b8 00 00 00 00       	mov    $0x0,%eax
  103cc3:	e9 aa 00 00 00       	jmp    103d72 <vfs_get_dir_by_path+0x1c3>
  103cc8:	83 45 f0 01          	addl   $0x1,-0x10(%ebp)
  103ccc:	8b 45 08             	mov    0x8(%ebp),%eax
  103ccf:	8b 80 2c 04 00 00    	mov    0x42c(%eax),%eax
  103cd5:	39 45 f0             	cmp    %eax,-0x10(%ebp)
  103cd8:	7c b0                	jl     103c8a <vfs_get_dir_by_path+0xdb>
  103cda:	83 ec 08             	sub    $0x8,%esp
  103cdd:	8d 83 38 ca ff ff    	lea    -0x35c8(%ebx),%eax
  103ce3:	50                   	push   %eax
  103ce4:	ff 75 0c             	pushl  0xc(%ebp)
  103ce7:	e8 a9 c9 ff ff       	call   100695 <strtok>
  103cec:	83 c4 10             	add    $0x10,%esp
  103cef:	89 45 ec             	mov    %eax,-0x14(%ebp)
  103cf2:	83 ec 08             	sub    $0x8,%esp
  103cf5:	8d 83 80 ca ff ff    	lea    -0x3580(%ebx),%eax
  103cfb:	50                   	push   %eax
  103cfc:	6a 00                	push   $0x0
  103cfe:	e8 92 c9 ff ff       	call   100695 <strtok>
  103d03:	83 c4 10             	add    $0x10,%esp
  103d06:	89 45 e8             	mov    %eax,-0x18(%ebp)
  103d09:	83 7d ec 00          	cmpl   $0x0,-0x14(%ebp)
  103d0d:	75 1c                	jne    103d2b <vfs_get_dir_by_path+0x17c>
  103d0f:	83 ec 08             	sub    $0x8,%esp
  103d12:	ff 75 0c             	pushl  0xc(%ebp)
  103d15:	8d 83 84 ca ff ff    	lea    -0x357c(%ebx),%eax
  103d1b:	50                   	push   %eax
  103d1c:	e8 c4 ce ff ff       	call   100be5 <printf>
  103d21:	83 c4 10             	add    $0x10,%esp
  103d24:	b8 00 00 00 00       	mov    $0x0,%eax
  103d29:	eb 47                	jmp    103d72 <vfs_get_dir_by_path+0x1c3>
  103d2b:	83 ec 08             	sub    $0x8,%esp
  103d2e:	ff 75 ec             	pushl  -0x14(%ebp)
  103d31:	ff 75 08             	pushl  0x8(%ebp)
  103d34:	e8 76 fe ff ff       	call   103baf <vfs_get_dir_by_path>
  103d39:	83 c4 10             	add    $0x10,%esp
  103d3c:	89 45 e4             	mov    %eax,-0x1c(%ebp)
  103d3f:	83 7d e4 00          	cmpl   $0x0,-0x1c(%ebp)
  103d43:	75 1c                	jne    103d61 <vfs_get_dir_by_path+0x1b2>
  103d45:	83 ec 08             	sub    $0x8,%esp
  103d48:	ff 75 0c             	pushl  0xc(%ebp)
  103d4b:	8d 83 84 ca ff ff    	lea    -0x357c(%ebx),%eax
  103d51:	50                   	push   %eax
  103d52:	e8 8e ce ff ff       	call   100be5 <printf>
  103d57:	83 c4 10             	add    $0x10,%esp
  103d5a:	b8 00 00 00 00       	mov    $0x0,%eax
  103d5f:	eb 11                	jmp    103d72 <vfs_get_dir_by_path+0x1c3>
  103d61:	83 ec 08             	sub    $0x8,%esp
  103d64:	ff 75 e8             	pushl  -0x18(%ebp)
  103d67:	ff 75 e4             	pushl  -0x1c(%ebp)
  103d6a:	e8 40 fe ff ff       	call   103baf <vfs_get_dir_by_path>
  103d6f:	83 c4 10             	add    $0x10,%esp
  103d72:	8b 5d fc             	mov    -0x4(%ebp),%ebx
  103d75:	c9                   	leave  
  103d76:	c3                   	ret    

00103d77 <vfs_get_dir_by_desc>:
  103d77:	55                   	push   %ebp
  103d78:	89 e5                	mov    %esp,%ebp
  103d7a:	83 ec 10             	sub    $0x10,%esp
  103d7d:	e8 82 12 00 00       	call   105004 <__x86.get_pc_thunk.ax>
  103d82:	05 7e 52 00 00       	add    $0x527e,%eax
  103d87:	c7 45 fc 00 00 00 00 	movl   $0x0,-0x4(%ebp)
  103d8e:	eb 2f                	jmp    103dbf <vfs_get_dir_by_desc+0x48>
  103d90:	8b 45 08             	mov    0x8(%ebp),%eax
  103d93:	8b 55 fc             	mov    -0x4(%ebp),%edx
  103d96:	81 c2 a4 00 00 00    	add    $0xa4,%edx
  103d9c:	8b 04 90             	mov    (%eax,%edx,4),%eax
  103d9f:	8b 80 24 04 00 00    	mov    0x424(%eax),%eax
  103da5:	39 45 0c             	cmp    %eax,0xc(%ebp)
  103da8:	75 11                	jne    103dbb <vfs_get_dir_by_desc+0x44>
  103daa:	8b 45 08             	mov    0x8(%ebp),%eax
  103dad:	8b 55 fc             	mov    -0x4(%ebp),%edx
  103db0:	81 c2 a4 00 00 00    	add    $0xa4,%edx
  103db6:	8b 04 90             	mov    (%eax,%edx,4),%eax
  103db9:	eb 12                	jmp    103dcd <vfs_get_dir_by_desc+0x56>
  103dbb:	83 45 fc 01          	addl   $0x1,-0x4(%ebp)
  103dbf:	8b 45 08             	mov    0x8(%ebp),%eax
  103dc2:	8b 80 28 04 00 00    	mov    0x428(%eax),%eax
  103dc8:	39 45 fc             	cmp    %eax,-0x4(%ebp)
  103dcb:	7c c3                	jl     103d90 <vfs_get_dir_by_desc+0x19>
  103dcd:	c9                   	leave  
  103dce:	c3                   	ret    

00103dcf <vfs_create_file>:
  103dcf:	55                   	push   %ebp
  103dd0:	89 e5                	mov    %esp,%ebp
  103dd2:	53                   	push   %ebx
  103dd3:	83 ec 14             	sub    $0x14,%esp
  103dd6:	e8 25 12 00 00       	call   105000 <__kernel_text_section_end>
  103ddb:	81 c3 25 52 00 00    	add    $0x5225,%ebx
  103de1:	c7 45 f4 00 00 00 00 	movl   $0x0,-0xc(%ebp)
  103de8:	eb 42                	jmp    103e2c <vfs_create_file+0x5d>
  103dea:	8b 45 08             	mov    0x8(%ebp),%eax
  103ded:	8b 55 f4             	mov    -0xc(%ebp),%edx
  103df0:	83 c2 40             	add    $0x40,%edx
  103df3:	8b 04 90             	mov    (%eax,%edx,4),%eax
  103df6:	83 ec 08             	sub    $0x8,%esp
  103df9:	ff 75 0c             	pushl  0xc(%ebp)
  103dfc:	50                   	push   %eax
  103dfd:	e8 39 c7 ff ff       	call   10053b <strcmp>
  103e02:	83 c4 10             	add    $0x10,%esp
  103e05:	85 c0                	test   %eax,%eax
  103e07:	75 1f                	jne    103e28 <vfs_create_file+0x59>
  103e09:	83 ec 08             	sub    $0x8,%esp
  103e0c:	ff 75 0c             	pushl  0xc(%ebp)
  103e0f:	8d 83 b4 ca ff ff    	lea    -0x354c(%ebx),%eax
  103e15:	50                   	push   %eax
  103e16:	e8 ca cd ff ff       	call   100be5 <printf>
  103e1b:	83 c4 10             	add    $0x10,%esp
  103e1e:	b8 00 00 00 00       	mov    $0x0,%eax
  103e23:	e9 1d 01 00 00       	jmp    103f45 <vfs_create_file+0x176>
  103e28:	83 45 f4 01          	addl   $0x1,-0xc(%ebp)
  103e2c:	8b 45 08             	mov    0x8(%ebp),%eax
  103e2f:	8b 80 2c 04 00 00    	mov    0x42c(%eax),%eax
  103e35:	39 45 f4             	cmp    %eax,-0xc(%ebp)
  103e38:	7c b0                	jl     103dea <vfs_create_file+0x1b>
  103e3a:	c7 45 f0 00 00 00 00 	movl   $0x0,-0x10(%ebp)
  103e41:	eb 45                	jmp    103e88 <vfs_create_file+0xb9>
  103e43:	8b 45 08             	mov    0x8(%ebp),%eax
  103e46:	8b 55 f0             	mov    -0x10(%ebp),%edx
  103e49:	81 c2 a4 00 00 00    	add    $0xa4,%edx
  103e4f:	8b 04 90             	mov    (%eax,%edx,4),%eax
  103e52:	83 ec 08             	sub    $0x8,%esp
  103e55:	ff 75 0c             	pushl  0xc(%ebp)
  103e58:	50                   	push   %eax
  103e59:	e8 dd c6 ff ff       	call   10053b <strcmp>
  103e5e:	83 c4 10             	add    $0x10,%esp
  103e61:	85 c0                	test   %eax,%eax
  103e63:	75 1f                	jne    103e84 <vfs_create_file+0xb5>
  103e65:	83 ec 08             	sub    $0x8,%esp
  103e68:	ff 75 0c             	pushl  0xc(%ebp)
  103e6b:	8d 83 e0 ca ff ff    	lea    -0x3520(%ebx),%eax
  103e71:	50                   	push   %eax
  103e72:	e8 6e cd ff ff       	call   100be5 <printf>
  103e77:	83 c4 10             	add    $0x10,%esp
  103e7a:	b8 00 00 00 00       	mov    $0x0,%eax
  103e7f:	e9 c1 00 00 00       	jmp    103f45 <vfs_create_file+0x176>
  103e84:	83 45 f0 01          	addl   $0x1,-0x10(%ebp)
  103e88:	8b 45 08             	mov    0x8(%ebp),%eax
  103e8b:	8b 80 28 04 00 00    	mov    0x428(%eax),%eax
  103e91:	39 45 f0             	cmp    %eax,-0x10(%ebp)
  103e94:	7c ad                	jl     103e43 <vfs_create_file+0x74>
  103e96:	8b 45 08             	mov    0x8(%ebp),%eax
  103e99:	8b 80 2c 04 00 00    	mov    0x42c(%eax),%eax
  103e9f:	83 f8 64             	cmp    $0x64,%eax
  103ea2:	75 20                	jne    103ec4 <vfs_create_file+0xf5>
  103ea4:	8b 45 08             	mov    0x8(%ebp),%eax
  103ea7:	83 ec 08             	sub    $0x8,%esp
  103eaa:	50                   	push   %eax
  103eab:	8d 83 20 cb ff ff    	lea    -0x34e0(%ebx),%eax
  103eb1:	50                   	push   %eax
  103eb2:	e8 2e cd ff ff       	call   100be5 <printf>
  103eb7:	83 c4 10             	add    $0x10,%esp
  103eba:	b8 00 00 00 00       	mov    $0x0,%eax
  103ebf:	e9 81 00 00 00       	jmp    103f45 <vfs_create_file+0x176>
  103ec4:	83 ec 0c             	sub    $0xc,%esp
  103ec7:	6a 04                	push   $0x4
  103ec9:	e8 3c ef ff ff       	call   102e0a <kmalloc>
  103ece:	83 c4 10             	add    $0x10,%esp
  103ed1:	89 45 ec             	mov    %eax,-0x14(%ebp)
  103ed4:	8b 45 ec             	mov    -0x14(%ebp),%eax
  103ed7:	83 ec 08             	sub    $0x8,%esp
  103eda:	ff 75 0c             	pushl  0xc(%ebp)
  103edd:	50                   	push   %eax
  103ede:	e8 22 c7 ff ff       	call   100605 <strcpy>
  103ee3:	83 c4 10             	add    $0x10,%esp
  103ee6:	83 ec 08             	sub    $0x8,%esp
  103ee9:	6a 04                	push   $0x4
  103eeb:	6a 01                	push   $0x1
  103eed:	e8 f4 ef ff ff       	call   102ee6 <kcalloc>
  103ef2:	83 c4 10             	add    $0x10,%esp
  103ef5:	8b 55 ec             	mov    -0x14(%ebp),%edx
  103ef8:	89 82 00 01 00 00    	mov    %eax,0x100(%edx)
  103efe:	8b 45 ec             	mov    -0x14(%ebp),%eax
  103f01:	8d 93 44 cb ff ff    	lea    -0x34bc(%ebx),%edx
  103f07:	89 90 00 01 00 00    	mov    %edx,0x100(%eax)
  103f0d:	8b 45 ec             	mov    -0x14(%ebp),%eax
  103f10:	8b 55 08             	mov    0x8(%ebp),%edx
  103f13:	89 90 04 01 00 00    	mov    %edx,0x104(%eax)
  103f19:	8b 83 a8 12 00 00    	mov    0x12a8(%ebx),%eax
  103f1f:	8b 50 04             	mov    0x4(%eax),%edx
  103f22:	8d 4a 01             	lea    0x1(%edx),%ecx
  103f25:	89 48 04             	mov    %ecx,0x4(%eax)
  103f28:	8b 45 ec             	mov    -0x14(%ebp),%eax
  103f2b:	89 90 08 01 00 00    	mov    %edx,0x108(%eax)
  103f31:	83 ec 08             	sub    $0x8,%esp
  103f34:	ff 75 ec             	pushl  -0x14(%ebp)
  103f37:	ff 75 08             	pushl  0x8(%ebp)
  103f3a:	e8 9a f9 ff ff       	call   1038d9 <vfs_append_file>
  103f3f:	83 c4 10             	add    $0x10,%esp
  103f42:	8b 45 ec             	mov    -0x14(%ebp),%eax
  103f45:	8b 5d fc             	mov    -0x4(%ebp),%ebx
  103f48:	c9                   	leave  
  103f49:	c3                   	ret    

00103f4a <vfs_create_dir>:
  103f4a:	55                   	push   %ebp
  103f4b:	89 e5                	mov    %esp,%ebp
  103f4d:	53                   	push   %ebx
  103f4e:	83 ec 14             	sub    $0x14,%esp
  103f51:	e8 aa 10 00 00       	call   105000 <__kernel_text_section_end>
  103f56:	81 c3 aa 50 00 00    	add    $0x50aa,%ebx
  103f5c:	c7 45 f4 00 00 00 00 	movl   $0x0,-0xc(%ebp)
  103f63:	eb 45                	jmp    103faa <vfs_create_dir+0x60>
  103f65:	8b 45 08             	mov    0x8(%ebp),%eax
  103f68:	8b 55 f4             	mov    -0xc(%ebp),%edx
  103f6b:	81 c2 a4 00 00 00    	add    $0xa4,%edx
  103f71:	8b 04 90             	mov    (%eax,%edx,4),%eax
  103f74:	83 ec 08             	sub    $0x8,%esp
  103f77:	ff 75 0c             	pushl  0xc(%ebp)
  103f7a:	50                   	push   %eax
  103f7b:	e8 bb c5 ff ff       	call   10053b <strcmp>
  103f80:	83 c4 10             	add    $0x10,%esp
  103f83:	85 c0                	test   %eax,%eax
  103f85:	75 1f                	jne    103fa6 <vfs_create_dir+0x5c>
  103f87:	83 ec 08             	sub    $0x8,%esp
  103f8a:	ff 75 0c             	pushl  0xc(%ebp)
  103f8d:	8d 83 48 cb ff ff    	lea    -0x34b8(%ebx),%eax
  103f93:	50                   	push   %eax
  103f94:	e8 4c cc ff ff       	call   100be5 <printf>
  103f99:	83 c4 10             	add    $0x10,%esp
  103f9c:	b8 00 00 00 00       	mov    $0x0,%eax
  103fa1:	e9 f0 00 00 00       	jmp    104096 <vfs_create_dir+0x14c>
  103fa6:	83 45 f4 01          	addl   $0x1,-0xc(%ebp)
  103faa:	8b 45 08             	mov    0x8(%ebp),%eax
  103fad:	8b 80 28 04 00 00    	mov    0x428(%eax),%eax
  103fb3:	39 45 f4             	cmp    %eax,-0xc(%ebp)
  103fb6:	7c ad                	jl     103f65 <vfs_create_dir+0x1b>
  103fb8:	c7 45 f0 00 00 00 00 	movl   $0x0,-0x10(%ebp)
  103fbf:	eb 42                	jmp    104003 <vfs_create_dir+0xb9>
  103fc1:	8b 45 08             	mov    0x8(%ebp),%eax
  103fc4:	8b 55 f0             	mov    -0x10(%ebp),%edx
  103fc7:	83 c2 40             	add    $0x40,%edx
  103fca:	8b 04 90             	mov    (%eax,%edx,4),%eax
  103fcd:	83 ec 08             	sub    $0x8,%esp
  103fd0:	ff 75 0c             	pushl  0xc(%ebp)
  103fd3:	50                   	push   %eax
  103fd4:	e8 62 c5 ff ff       	call   10053b <strcmp>
  103fd9:	83 c4 10             	add    $0x10,%esp
  103fdc:	85 c0                	test   %eax,%eax
  103fde:	75 1f                	jne    103fff <vfs_create_dir+0xb5>
  103fe0:	83 ec 08             	sub    $0x8,%esp
  103fe3:	ff 75 0c             	pushl  0xc(%ebp)
  103fe6:	8d 83 78 cb ff ff    	lea    -0x3488(%ebx),%eax
  103fec:	50                   	push   %eax
  103fed:	e8 f3 cb ff ff       	call   100be5 <printf>
  103ff2:	83 c4 10             	add    $0x10,%esp
  103ff5:	b8 00 00 00 00       	mov    $0x0,%eax
  103ffa:	e9 97 00 00 00       	jmp    104096 <vfs_create_dir+0x14c>
  103fff:	83 45 f0 01          	addl   $0x1,-0x10(%ebp)
  104003:	8b 45 08             	mov    0x8(%ebp),%eax
  104006:	8b 80 2c 04 00 00    	mov    0x42c(%eax),%eax
  10400c:	39 45 f0             	cmp    %eax,-0x10(%ebp)
  10400f:	7c b0                	jl     103fc1 <vfs_create_dir+0x77>
  104011:	8b 45 08             	mov    0x8(%ebp),%eax
  104014:	8b 80 28 04 00 00    	mov    0x428(%eax),%eax
  10401a:	83 f8 64             	cmp    $0x64,%eax
  10401d:	75 1d                	jne    10403c <vfs_create_dir+0xf2>
  10401f:	8b 45 08             	mov    0x8(%ebp),%eax
  104022:	83 ec 08             	sub    $0x8,%esp
  104025:	50                   	push   %eax
  104026:	8d 83 20 cb ff ff    	lea    -0x34e0(%ebx),%eax
  10402c:	50                   	push   %eax
  10402d:	e8 b3 cb ff ff       	call   100be5 <printf>
  104032:	83 c4 10             	add    $0x10,%esp
  104035:	b8 00 00 00 00       	mov    $0x0,%eax
  10403a:	eb 5a                	jmp    104096 <vfs_create_dir+0x14c>
  10403c:	83 ec 0c             	sub    $0xc,%esp
  10403f:	6a 04                	push   $0x4
  104041:	e8 c4 ed ff ff       	call   102e0a <kmalloc>
  104046:	83 c4 10             	add    $0x10,%esp
  104049:	89 45 ec             	mov    %eax,-0x14(%ebp)
  10404c:	8b 45 ec             	mov    -0x14(%ebp),%eax
  10404f:	83 ec 08             	sub    $0x8,%esp
  104052:	ff 75 0c             	pushl  0xc(%ebp)
  104055:	50                   	push   %eax
  104056:	e8 aa c5 ff ff       	call   100605 <strcpy>
  10405b:	83 c4 10             	add    $0x10,%esp
  10405e:	8b 45 ec             	mov    -0x14(%ebp),%eax
  104061:	8b 55 08             	mov    0x8(%ebp),%edx
  104064:	89 90 20 04 00 00    	mov    %edx,0x420(%eax)
  10406a:	8b 83 a8 12 00 00    	mov    0x12a8(%ebx),%eax
  104070:	8b 50 08             	mov    0x8(%eax),%edx
  104073:	8d 4a 01             	lea    0x1(%edx),%ecx
  104076:	89 48 08             	mov    %ecx,0x8(%eax)
  104079:	8b 45 ec             	mov    -0x14(%ebp),%eax
  10407c:	89 90 24 04 00 00    	mov    %edx,0x424(%eax)
  104082:	83 ec 08             	sub    $0x8,%esp
  104085:	ff 75 ec             	pushl  -0x14(%ebp)
  104088:	ff 75 08             	pushl  0x8(%ebp)
  10408b:	e8 05 f8 ff ff       	call   103895 <vfs_append_directory>
  104090:	83 c4 10             	add    $0x10,%esp
  104093:	8b 45 ec             	mov    -0x14(%ebp),%eax
  104096:	8b 5d fc             	mov    -0x4(%ebp),%ebx
  104099:	c9                   	leave  
  10409a:	c3                   	ret    

0010409b <vfs_putchar>:
  10409b:	55                   	push   %ebp
  10409c:	89 e5                	mov    %esp,%ebp
  10409e:	53                   	push   %ebx
  10409f:	83 ec 14             	sub    $0x14,%esp
  1040a2:	e8 59 0f 00 00       	call   105000 <__kernel_text_section_end>
  1040a7:	81 c3 59 4f 00 00    	add    $0x4f59,%ebx
  1040ad:	8b 45 0c             	mov    0xc(%ebp),%eax
  1040b0:	8b 80 00 01 00 00    	mov    0x100(%eax),%eax
  1040b6:	83 ec 0c             	sub    $0xc,%esp
  1040b9:	50                   	push   %eax
  1040ba:	e8 9c c3 ff ff       	call   10045b <strlen>
  1040bf:	83 c4 10             	add    $0x10,%esp
  1040c2:	89 45 f4             	mov    %eax,-0xc(%ebp)
  1040c5:	8b 45 f4             	mov    -0xc(%ebp),%eax
  1040c8:	8d 50 02             	lea    0x2(%eax),%edx
  1040cb:	8b 45 0c             	mov    0xc(%ebp),%eax
  1040ce:	8b 80 00 01 00 00    	mov    0x100(%eax),%eax
  1040d4:	83 ec 08             	sub    $0x8,%esp
  1040d7:	52                   	push   %edx
  1040d8:	50                   	push   %eax
  1040d9:	e8 5b ee ff ff       	call   102f39 <krealloc>
  1040de:	83 c4 10             	add    $0x10,%esp
  1040e1:	8b 55 0c             	mov    0xc(%ebp),%edx
  1040e4:	89 82 00 01 00 00    	mov    %eax,0x100(%edx)
  1040ea:	8b 45 0c             	mov    0xc(%ebp),%eax
  1040ed:	8b 80 00 01 00 00    	mov    0x100(%eax),%eax
  1040f3:	85 c0                	test   %eax,%eax
  1040f5:	75 07                	jne    1040fe <vfs_putchar+0x63>
  1040f7:	b8 01 00 00 00       	mov    $0x1,%eax
  1040fc:	eb 2c                	jmp    10412a <vfs_putchar+0x8f>
  1040fe:	8b 45 0c             	mov    0xc(%ebp),%eax
  104101:	8b 90 00 01 00 00    	mov    0x100(%eax),%edx
  104107:	8b 45 f4             	mov    -0xc(%ebp),%eax
  10410a:	01 d0                	add    %edx,%eax
  10410c:	8b 55 08             	mov    0x8(%ebp),%edx
  10410f:	88 10                	mov    %dl,(%eax)
  104111:	8b 45 0c             	mov    0xc(%ebp),%eax
  104114:	8b 90 00 01 00 00    	mov    0x100(%eax),%edx
  10411a:	8b 45 f4             	mov    -0xc(%ebp),%eax
  10411d:	83 c0 01             	add    $0x1,%eax
  104120:	01 d0                	add    %edx,%eax
  104122:	c6 00 00             	movb   $0x0,(%eax)
  104125:	b8 00 00 00 00       	mov    $0x0,%eax
  10412a:	8b 5d fc             	mov    -0x4(%ebp),%ebx
  10412d:	c9                   	leave  
  10412e:	c3                   	ret    

0010412f <vfs_write>:
  10412f:	55                   	push   %ebp
  104130:	89 e5                	mov    %esp,%ebp
  104132:	53                   	push   %ebx
  104133:	83 ec 04             	sub    $0x4,%esp
  104136:	e8 c9 0e 00 00       	call   105004 <__x86.get_pc_thunk.ax>
  10413b:	05 c5 4e 00 00       	add    $0x4ec5,%eax
  104140:	8b 55 0c             	mov    0xc(%ebp),%edx
  104143:	0f af 55 10          	imul   0x10(%ebp),%edx
  104147:	8d 4a 01             	lea    0x1(%edx),%ecx
  10414a:	8b 55 14             	mov    0x14(%ebp),%edx
  10414d:	8b 92 00 01 00 00    	mov    0x100(%edx),%edx
  104153:	83 ec 08             	sub    $0x8,%esp
  104156:	51                   	push   %ecx
  104157:	52                   	push   %edx
  104158:	89 c3                	mov    %eax,%ebx
  10415a:	e8 da ed ff ff       	call   102f39 <krealloc>
  10415f:	83 c4 10             	add    $0x10,%esp
  104162:	8b 55 14             	mov    0x14(%ebp),%edx
  104165:	89 82 00 01 00 00    	mov    %eax,0x100(%edx)
  10416b:	8b 45 14             	mov    0x14(%ebp),%eax
  10416e:	8b 55 08             	mov    0x8(%ebp),%edx
  104171:	89 90 00 01 00 00    	mov    %edx,0x100(%eax)
  104177:	b8 00 00 00 00       	mov    $0x0,%eax
  10417c:	8b 5d fc             	mov    -0x4(%ebp),%ebx
  10417f:	c9                   	leave  
  104180:	c3                   	ret    

00104181 <vfs_read>:
  104181:	55                   	push   %ebp
  104182:	89 e5                	mov    %esp,%ebp
  104184:	83 ec 10             	sub    $0x10,%esp
  104187:	e8 78 0e 00 00       	call   105004 <__x86.get_pc_thunk.ax>
  10418c:	05 74 4e 00 00       	add    $0x4e74,%eax
  104191:	8b 45 0c             	mov    0xc(%ebp),%eax
  104194:	0f af 45 10          	imul   0x10(%ebp),%eax
  104198:	89 45 f8             	mov    %eax,-0x8(%ebp)
  10419b:	c7 45 fc 00 00 00 00 	movl   $0x0,-0x4(%ebp)
  1041a2:	eb 21                	jmp    1041c5 <vfs_read+0x44>
  1041a4:	8b 45 14             	mov    0x14(%ebp),%eax
  1041a7:	8b 90 00 01 00 00    	mov    0x100(%eax),%edx
  1041ad:	8b 45 fc             	mov    -0x4(%ebp),%eax
  1041b0:	01 d0                	add    %edx,%eax
  1041b2:	0f b6 00             	movzbl (%eax),%eax
  1041b5:	0f be c0             	movsbl %al,%eax
  1041b8:	89 45 f4             	mov    %eax,-0xc(%ebp)
  1041bb:	83 7d f4 00          	cmpl   $0x0,-0xc(%ebp)
  1041bf:	74 0e                	je     1041cf <vfs_read+0x4e>
  1041c1:	83 45 fc 01          	addl   $0x1,-0x4(%ebp)
  1041c5:	8b 45 fc             	mov    -0x4(%ebp),%eax
  1041c8:	3b 45 f8             	cmp    -0x8(%ebp),%eax
  1041cb:	7c d7                	jl     1041a4 <vfs_read+0x23>
  1041cd:	eb 01                	jmp    1041d0 <vfs_read+0x4f>
  1041cf:	90                   	nop
  1041d0:	b8 00 00 00 00       	mov    $0x0,%eax
  1041d5:	c9                   	leave  
  1041d6:	c3                   	ret    

001041d7 <kmode_initialize>:
  1041d7:	55                   	push   %ebp
  1041d8:	89 e5                	mov    %esp,%ebp
  1041da:	53                   	push   %ebx
  1041db:	83 ec 14             	sub    $0x14,%esp
  1041de:	e8 1d 0e 00 00       	call   105000 <__kernel_text_section_end>
  1041e3:	81 c3 1d 4e 00 00    	add    $0x4e1d,%ebx
  1041e9:	83 ec 0c             	sub    $0xc,%esp
  1041ec:	8d 83 b4 cb ff ff    	lea    -0x344c(%ebx),%eax
  1041f2:	50                   	push   %eax
  1041f3:	e8 ed c9 ff ff       	call   100be5 <printf>
  1041f8:	83 c4 10             	add    $0x10,%esp
  1041fb:	83 ec 0c             	sub    $0xc,%esp
  1041fe:	6a 0a                	push   $0xa
  104200:	e8 08 f0 ff ff       	call   10320d <keyboard_getchar_until>
  104205:	83 c4 10             	add    $0x10,%esp
  104208:	89 45 f0             	mov    %eax,-0x10(%ebp)
  10420b:	83 7d f0 00          	cmpl   $0x0,-0x10(%ebp)
  10420f:	75 12                	jne    104223 <kmode_initialize+0x4c>
  104211:	83 ec 0c             	sub    $0xc,%esp
  104214:	8d 83 c1 cb ff ff    	lea    -0x343f(%ebx),%eax
  10421a:	50                   	push   %eax
  10421b:	e8 c5 c9 ff ff       	call   100be5 <printf>
  104220:	83 c4 10             	add    $0x10,%esp
  104223:	83 ec 08             	sub    $0x8,%esp
  104226:	8d 83 c7 cb ff ff    	lea    -0x3439(%ebx),%eax
  10422c:	50                   	push   %eax
  10422d:	ff 75 f0             	pushl  -0x10(%ebp)
  104230:	e8 60 c4 ff ff       	call   100695 <strtok>
  104235:	83 c4 10             	add    $0x10,%esp
  104238:	89 45 f4             	mov    %eax,-0xc(%ebp)
  10423b:	83 ec 0c             	sub    $0xc,%esp
  10423e:	8d 83 c9 cb ff ff    	lea    -0x3437(%ebx),%eax
  104244:	50                   	push   %eax
  104245:	e8 9b c9 ff ff       	call   100be5 <printf>
  10424a:	83 c4 10             	add    $0x10,%esp
  10424d:	e9 99 00 00 00       	jmp    1042eb <kmode_initialize+0x114>
  104252:	83 ec 08             	sub    $0x8,%esp
  104255:	8d 83 cb cb ff ff    	lea    -0x3435(%ebx),%eax
  10425b:	50                   	push   %eax
  10425c:	ff 75 f4             	pushl  -0xc(%ebp)
  10425f:	e8 d7 c2 ff ff       	call   10053b <strcmp>
  104264:	83 c4 10             	add    $0x10,%esp
  104267:	85 c0                	test   %eax,%eax
  104269:	75 14                	jne    10427f <kmode_initialize+0xa8>
  10426b:	83 ec 0c             	sub    $0xc,%esp
  10426e:	8d 83 d0 cb ff ff    	lea    -0x3430(%ebx),%eax
  104274:	50                   	push   %eax
  104275:	e8 6b c9 ff ff       	call   100be5 <printf>
  10427a:	83 c4 10             	add    $0x10,%esp
  10427d:	eb 55                	jmp    1042d4 <kmode_initialize+0xfd>
  10427f:	83 ec 08             	sub    $0x8,%esp
  104282:	8d 83 74 cc ff ff    	lea    -0x338c(%ebx),%eax
  104288:	50                   	push   %eax
  104289:	ff 75 f4             	pushl  -0xc(%ebp)
  10428c:	e8 aa c2 ff ff       	call   10053b <strcmp>
  104291:	83 c4 10             	add    $0x10,%esp
  104294:	85 c0                	test   %eax,%eax
  104296:	75 07                	jne    10429f <kmode_initialize+0xc8>
  104298:	e8 6e f5 ff ff       	call   10380b <acpi_reboot>
  10429d:	eb 35                	jmp    1042d4 <kmode_initialize+0xfd>
  10429f:	83 ec 08             	sub    $0x8,%esp
  1042a2:	8d 83 7b cc ff ff    	lea    -0x3385(%ebx),%eax
  1042a8:	50                   	push   %eax
  1042a9:	ff 75 f4             	pushl  -0xc(%ebp)
  1042ac:	e8 8a c2 ff ff       	call   10053b <strcmp>
  1042b1:	83 c4 10             	add    $0x10,%esp
  1042b4:	85 c0                	test   %eax,%eax
  1042b6:	75 07                	jne    1042bf <kmode_initialize+0xe8>
  1042b8:	e8 44 be ff ff       	call   100101 <userspace_initialize>
  1042bd:	eb 15                	jmp    1042d4 <kmode_initialize+0xfd>
  1042bf:	83 ec 08             	sub    $0x8,%esp
  1042c2:	ff 75 f4             	pushl  -0xc(%ebp)
  1042c5:	8d 83 85 cc ff ff    	lea    -0x337b(%ebx),%eax
  1042cb:	50                   	push   %eax
  1042cc:	e8 14 c9 ff ff       	call   100be5 <printf>
  1042d1:	83 c4 10             	add    $0x10,%esp
  1042d4:	83 ec 08             	sub    $0x8,%esp
  1042d7:	8d 83 c7 cb ff ff    	lea    -0x3439(%ebx),%eax
  1042dd:	50                   	push   %eax
  1042de:	6a 00                	push   $0x0
  1042e0:	e8 b0 c3 ff ff       	call   100695 <strtok>
  1042e5:	83 c4 10             	add    $0x10,%esp
  1042e8:	89 45 f4             	mov    %eax,-0xc(%ebp)
  1042eb:	83 7d f4 00          	cmpl   $0x0,-0xc(%ebp)
  1042ef:	0f 85 5d ff ff ff    	jne    104252 <kmode_initialize+0x7b>
  1042f5:	e9 ef fe ff ff       	jmp    1041e9 <kmode_initialize+0x12>

001042fa <pic_init>:
  1042fa:	55                   	push   %ebp
  1042fb:	89 e5                	mov    %esp,%ebp
  1042fd:	53                   	push   %ebx
  1042fe:	83 ec 14             	sub    $0x14,%esp
  104301:	e8 fa 0c 00 00       	call   105000 <__kernel_text_section_end>
  104306:	81 c3 fa 4c 00 00    	add    $0x4cfa,%ebx
  10430c:	83 ec 0c             	sub    $0xc,%esp
  10430f:	6a 21                	push   $0x21
  104311:	e8 da d2 ff ff       	call   1015f0 <pio_inb>
  104316:	83 c4 10             	add    $0x10,%esp
  104319:	88 45 f7             	mov    %al,-0x9(%ebp)
  10431c:	83 ec 0c             	sub    $0xc,%esp
  10431f:	68 a1 00 00 00       	push   $0xa1
  104324:	e8 c7 d2 ff ff       	call   1015f0 <pio_inb>
  104329:	83 c4 10             	add    $0x10,%esp
  10432c:	88 45 f6             	mov    %al,-0xa(%ebp)
  10432f:	83 ec 08             	sub    $0x8,%esp
  104332:	6a 11                	push   $0x11
  104334:	6a 20                	push   $0x20
  104336:	e8 3d d2 ff ff       	call   101578 <pio_outb>
  10433b:	83 c4 10             	add    $0x10,%esp
  10433e:	83 ec 08             	sub    $0x8,%esp
  104341:	6a 11                	push   $0x11
  104343:	68 a0 00 00 00       	push   $0xa0
  104348:	e8 2b d2 ff ff       	call   101578 <pio_outb>
  10434d:	83 c4 10             	add    $0x10,%esp
  104350:	83 ec 08             	sub    $0x8,%esp
  104353:	6a 20                	push   $0x20
  104355:	6a 21                	push   $0x21
  104357:	e8 1c d2 ff ff       	call   101578 <pio_outb>
  10435c:	83 c4 10             	add    $0x10,%esp
  10435f:	83 ec 08             	sub    $0x8,%esp
  104362:	6a 28                	push   $0x28
  104364:	68 a1 00 00 00       	push   $0xa1
  104369:	e8 0a d2 ff ff       	call   101578 <pio_outb>
  10436e:	83 c4 10             	add    $0x10,%esp
  104371:	83 ec 08             	sub    $0x8,%esp
  104374:	6a 04                	push   $0x4
  104376:	6a 21                	push   $0x21
  104378:	e8 fb d1 ff ff       	call   101578 <pio_outb>
  10437d:	83 c4 10             	add    $0x10,%esp
  104380:	83 ec 08             	sub    $0x8,%esp
  104383:	6a 02                	push   $0x2
  104385:	68 a1 00 00 00       	push   $0xa1
  10438a:	e8 e9 d1 ff ff       	call   101578 <pio_outb>
  10438f:	83 c4 10             	add    $0x10,%esp
  104392:	83 ec 08             	sub    $0x8,%esp
  104395:	6a 01                	push   $0x1
  104397:	6a 21                	push   $0x21
  104399:	e8 da d1 ff ff       	call   101578 <pio_outb>
  10439e:	83 c4 10             	add    $0x10,%esp
  1043a1:	83 ec 08             	sub    $0x8,%esp
  1043a4:	6a 01                	push   $0x1
  1043a6:	68 a1 00 00 00       	push   $0xa1
  1043ab:	e8 c8 d1 ff ff       	call   101578 <pio_outb>
  1043b0:	83 c4 10             	add    $0x10,%esp
  1043b3:	0f b6 45 f7          	movzbl -0x9(%ebp),%eax
  1043b7:	83 ec 08             	sub    $0x8,%esp
  1043ba:	50                   	push   %eax
  1043bb:	6a 21                	push   $0x21
  1043bd:	e8 b6 d1 ff ff       	call   101578 <pio_outb>
  1043c2:	83 c4 10             	add    $0x10,%esp
  1043c5:	0f b6 45 f6          	movzbl -0xa(%ebp),%eax
  1043c9:	83 ec 08             	sub    $0x8,%esp
  1043cc:	50                   	push   %eax
  1043cd:	68 a1 00 00 00       	push   $0xa1
  1043d2:	e8 a1 d1 ff ff       	call   101578 <pio_outb>
  1043d7:	83 c4 10             	add    $0x10,%esp
  1043da:	90                   	nop
  1043db:	8b 5d fc             	mov    -0x4(%ebp),%ebx
  1043de:	c9                   	leave  
  1043df:	c3                   	ret    

001043e0 <pic_eoi>:
  1043e0:	55                   	push   %ebp
  1043e1:	89 e5                	mov    %esp,%ebp
  1043e3:	53                   	push   %ebx
  1043e4:	83 ec 14             	sub    $0x14,%esp
  1043e7:	e8 14 0c 00 00       	call   105000 <__kernel_text_section_end>
  1043ec:	81 c3 14 4c 00 00    	add    $0x4c14,%ebx
  1043f2:	8b 45 08             	mov    0x8(%ebp),%eax
  1043f5:	88 45 f4             	mov    %al,-0xc(%ebp)
  1043f8:	80 7d f4 27          	cmpb   $0x27,-0xc(%ebp)
  1043fc:	76 12                	jbe    104410 <pic_eoi+0x30>
  1043fe:	83 ec 08             	sub    $0x8,%esp
  104401:	6a 20                	push   $0x20
  104403:	68 a0 00 00 00       	push   $0xa0
  104408:	e8 6b d1 ff ff       	call   101578 <pio_outb>
  10440d:	83 c4 10             	add    $0x10,%esp
  104410:	83 ec 08             	sub    $0x8,%esp
  104413:	6a 20                	push   $0x20
  104415:	6a 20                	push   $0x20
  104417:	e8 5c d1 ff ff       	call   101578 <pio_outb>
  10441c:	83 c4 10             	add    $0x10,%esp
  10441f:	90                   	nop
  104420:	8b 5d fc             	mov    -0x4(%ebp),%ebx
  104423:	c9                   	leave  
  104424:	c3                   	ret    
  104425:	66 90                	xchg   %ax,%ax
  104427:	66 90                	xchg   %ax,%ax
  104429:	66 90                	xchg   %ax,%ax
  10442b:	66 90                	xchg   %ax,%ax
  10442d:	66 90                	xchg   %ax,%ax
  10442f:	90                   	nop

00104430 <load_idt>:
  104430:	8b 44 24 04          	mov    0x4(%esp),%eax
  104434:	0f 01 18             	lidtl  (%eax)
  104437:	c3                   	ret    
  104438:	66 90                	xchg   %ax,%ax
  10443a:	66 90                	xchg   %ax,%ax
  10443c:	66 90                	xchg   %ax,%ax
  10443e:	66 90                	xchg   %ax,%ax

00104440 <hello>:
  104440:	48                   	dec    %eax
  104441:	65 6c                	gs insb (%dx),%es:(%edi)
  104443:	6c                   	insb   (%dx),%es:(%edi)
  104444:	6f                   	outsl  %ds:(%esi),(%dx)
  104445:	0a                 	or     (%eax),%al

00104446 <num>:
  104446:	00 00                	add    %al,(%eax)
  104448:	00 00                	add    %al,(%eax)
	...

0010444b <test_syscall>:
  10444b:	b8 04 00 00 00       	mov    $0x4,%eax
  104450:	bb 01 00 00 00       	mov    $0x1,%ebx
  104455:	b9 40 44 10 00       	mov    $0x104440,%ecx
  10445a:	ba 06 00 00 00       	mov    $0x6,%edx
  10445f:	cd 80                	int    $0x80
  104461:	b8 03 00 00 00       	mov    $0x3,%eax
  104466:	bb 01 00 00 00       	mov    $0x1,%ebx
  10446b:	b9 46 44 10 00       	mov    $0x104446,%ecx
  104470:	ba 05 00 00 00       	mov    $0x5,%edx
  104475:	cd 80                	int    $0x80
  104477:	b8 04 00 00 00       	mov    $0x4,%eax
  10447c:	bb 01 00 00 00       	mov    $0x1,%ebx
  104481:	b9 46 44 10 00       	mov    $0x104446,%ecx
  104486:	ba 05 00 00 00       	mov    $0x5,%edx
  10448b:	cd 80                	int    $0x80
  10448d:	66 90                	xchg   %ax,%ax
  10448f:	90                   	nop

00104490 <irq_handler>:
  104490:	60                   	pusha  
  104491:	66 8c d8             	mov    %ds,%ax
  104494:	50                   	push   %eax
  104495:	66 b8 10 00          	mov    $0x10,%ax
  104499:	8e d8                	mov    %eax,%ds
  10449b:	8e c0                	mov    %eax,%es
  10449d:	8e e0                	mov    %eax,%fs
  10449f:	8e e8                	mov    %eax,%gs
  1044a1:	54                   	push   %esp
  1044a2:	e8 2f d2 ff ff       	call   1016d6 <isr_irq_handler>
  1044a7:	5c                   	pop    %esp
  1044a8:	5b                   	pop    %ebx
  1044a9:	8e db                	mov    %ebx,%ds
  1044ab:	8e c3                	mov    %ebx,%es
  1044ad:	8e e3                	mov    %ebx,%fs
  1044af:	8e eb                	mov    %ebx,%gs
  1044b1:	61                   	popa   
  1044b2:	83 c4 08             	add    $0x8,%esp
  1044b5:	fb                   	sti    
  1044b6:	cf                   	iret   

001044b7 <irq_0>:
  1044b7:	fa                   	cli    
  1044b8:	6a 00                	push   $0x0
  1044ba:	6a 20                	push   $0x20
  1044bc:	eb d2                	jmp    104490 <irq_handler>

001044be <irq_1>:
  1044be:	fa                   	cli    
  1044bf:	6a 00                	push   $0x0
  1044c1:	6a 21                	push   $0x21
  1044c3:	eb cb                	jmp    104490 <irq_handler>

001044c5 <irq_2>:
  1044c5:	fa                   	cli    
  1044c6:	6a 00                	push   $0x0
  1044c8:	6a 22                	push   $0x22
  1044ca:	eb c4                	jmp    104490 <irq_handler>

001044cc <irq_3>:
  1044cc:	fa                   	cli    
  1044cd:	6a 00                	push   $0x0
  1044cf:	6a 23                	push   $0x23
  1044d1:	eb bd                	jmp    104490 <irq_handler>

001044d3 <irq_4>:
  1044d3:	fa                   	cli    
  1044d4:	6a 00                	push   $0x0
  1044d6:	6a 24                	push   $0x24
  1044d8:	eb b6                	jmp    104490 <irq_handler>

001044da <irq_5>:
  1044da:	fa                   	cli    
  1044db:	6a 00                	push   $0x0
  1044dd:	6a 25                	push   $0x25
  1044df:	eb af                	jmp    104490 <irq_handler>

001044e1 <irq_6>:
  1044e1:	fa                   	cli    
  1044e2:	6a 00                	push   $0x0
  1044e4:	6a 26                	push   $0x26
  1044e6:	eb a8                	jmp    104490 <irq_handler>

001044e8 <irq_7>:
  1044e8:	fa                   	cli    
  1044e9:	6a 00                	push   $0x0
  1044eb:	6a 27                	push   $0x27
  1044ed:	eb a1                	jmp    104490 <irq_handler>

001044ef <irq_8>:
  1044ef:	fa                   	cli    
  1044f0:	6a 00                	push   $0x0
  1044f2:	6a 28                	push   $0x28
  1044f4:	eb 9a                	jmp    104490 <irq_handler>

001044f6 <irq_9>:
  1044f6:	fa                   	cli    
  1044f7:	6a 00                	push   $0x0
  1044f9:	6a 29                	push   $0x29
  1044fb:	eb 93                	jmp    104490 <irq_handler>

001044fd <irq_10>:
  1044fd:	fa                   	cli    
  1044fe:	6a 00                	push   $0x0
  104500:	6a 2a                	push   $0x2a
  104502:	eb 8c                	jmp    104490 <irq_handler>

00104504 <irq_11>:
  104504:	fa                   	cli    
  104505:	6a 00                	push   $0x0
  104507:	6a 2b                	push   $0x2b
  104509:	eb 85                	jmp    104490 <irq_handler>

0010450b <irq_12>:
  10450b:	fa                   	cli    
  10450c:	6a 00                	push   $0x0
  10450e:	6a 2c                	push   $0x2c
  104510:	e9 7b ff ff ff       	jmp    104490 <irq_handler>

00104515 <irq_13>:
  104515:	fa                   	cli    
  104516:	6a 00                	push   $0x0
  104518:	6a 2d                	push   $0x2d
  10451a:	e9 71 ff ff ff       	jmp    104490 <irq_handler>

0010451f <irq_14>:
  10451f:	fa                   	cli    
  104520:	6a 00                	push   $0x0
  104522:	6a 2e                	push   $0x2e
  104524:	e9 67 ff ff ff       	jmp    104490 <irq_handler>

00104529 <irq_15>:
  104529:	fa                   	cli    
  10452a:	6a 00                	push   $0x0
  10452c:	6a 2f                	push   $0x2f
  10452e:	e9 5d ff ff ff       	jmp    104490 <irq_handler>
  104533:	66 90                	xchg   %ax,%ax
  104535:	66 90                	xchg   %ax,%ax
  104537:	66 90                	xchg   %ax,%ax
  104539:	66 90                	xchg   %ax,%ax
  10453b:	66 90                	xchg   %ax,%ax
  10453d:	66 90                	xchg   %ax,%ax
  10453f:	90                   	nop

00104540 <BIOS32_START>:
  104540:	60                   	pusha  
  104541:	89 e2                	mov    %esp,%edx
  104543:	fa                   	cli    
  104544:	31 c9                	xor    %ecx,%ecx
  104546:	0f 20 db             	mov    %cr3,%ebx
  104549:	0f 22 d9             	mov    %ecx,%cr3
  10454c:	0f 01 15 0b 7d 00 00 	lgdtl  0x7d0b
  104553:	0f 01 1d 13 7d 00 00 	lidtl  0x7d13
  10455a:	ea 21 7c 00 00 30 00 	ljmp   $0x30,$0x7c21

00104561 <__protected_mode_16>:
  104561:	b8 38 00 8e d8       	mov    $0xd88e0038,%eax
  104566:	8e c0                	mov    %eax,%es
  104568:	8e e0                	mov    %eax,%fs
  10456a:	8e e8                	mov    %eax,%gs
  10456c:	8e d0                	mov    %eax,%ss
  10456e:	0f 20 c0             	mov    %cr0,%eax
  104571:	24 fe                	and    $0xfe,%al
  104573:	0f 22 c0             	mov    %eax,%cr0
  104576:	ea 3b 7c 00 00   	ljmp   $0xc031,$0x7c3b

0010457b <__real_mode_16>:
  10457b:	31 c0                	xor    %eax,%eax
  10457d:	8e d8                	mov    %eax,%ds
  10457f:	8e c0                	mov    %eax,%es
  104581:	8e e0                	mov    %eax,%fs
  104583:	8e e8                	mov    %eax,%gs
  104585:	8e d0                	mov    %eax,%ss
  104587:	bc 00 8c fb 60       	mov    $0x60fb8c00,%esp
  10458c:	8c d1                	mov    %ss,%ecx
  10458e:	51                   	push   %ecx
  10458f:	8c e9                	mov    %gs,%ecx
  104591:	51                   	push   %ecx
  104592:	8c e1                	mov    %fs,%ecx
  104594:	51                   	push   %ecx
  104595:	8c c1                	mov    %es,%ecx
  104597:	51                   	push   %ecx
  104598:	8c d9                	mov    %ds,%ecx
  10459a:	51                   	push   %ecx
  10459b:	9c                   	pushf  
  10459c:	89 e0                	mov    %esp,%eax
  10459e:	66 bf 93 46          	mov    $0x4693,%di
  1045a2:	10 00                	adc    %al,(%eax)
  1045a4:	ab                   	stos   %eax,%es:(%edi)
  1045a5:	66 bc 1b 7d          	mov    $0x7d1b,%sp
  1045a9:	00 00                	add    %al,(%eax)
  1045ab:	61                   	popa   
  1045ac:	bc 00 9c cd        	mov    $0xcd9c00,%esp

001045b0 <bios32_int_number_ptr>:
  1045b0:	00 66 bc             	add    %ah,-0x44(%esi)
  1045b3:	37                   	aaa    
  1045b4:	7d 00                	jge    1045b6 <bios32_int_number_ptr+0x6>
  1045b6:	00 83 c4 1c 9c 8c    	add    %al,-0x7363e33c(%ebx)
  1045bc:	d1 51 8c             	rcll   -0x74(%ecx)
  1045bf:	e9 51 8c e1 51       	jmp    51f1d215 <BOOTLOADER_MAGIC+0x26442213>
  1045c4:	8c c1                	mov    %es,%ecx
  1045c6:	51                   	push   %ecx
  1045c7:	8c d9                	mov    %ds,%ecx
  1045c9:	51                   	push   %ecx
  1045ca:	60                   	pusha  
  1045cb:	66 be 93 46          	mov    $0x4693,%si
  1045cf:	10 00                	adc    %al,(%eax)
  1045d1:	ad                   	lods   %ds:(%esi),%eax
  1045d2:	89 c4                	mov    %eax,%esp
  1045d4:	9d                   	popf   
  1045d5:	59                   	pop    %ecx
  1045d6:	8e d9                	mov    %ecx,%ds
  1045d8:	59                   	pop    %ecx
  1045d9:	8e c1                	mov    %ecx,%es
  1045db:	59                   	pop    %ecx
  1045dc:	8e e1                	mov    %ecx,%fs
  1045de:	59                   	pop    %ecx
  1045df:	8e e9                	mov    %ecx,%gs
  1045e1:	59                   	pop    %ecx
  1045e2:	8e d1                	mov    %ecx,%ss
  1045e4:	61                   	popa   
  1045e5:	0f 20 c0             	mov    %cr0,%eax
  1045e8:	66 40                	inc    %ax
  1045ea:	0f 22 c0             	mov    %eax,%cr0
  1045ed:	ea b2 7c 08 00   	ljmp   $0xb866,$0x87cb2

001045f2 <__protected_mode_32>:
  1045f2:	66 b8 10 00          	mov    $0x10,%ax
  1045f6:	8e d8                	mov    %eax,%ds
  1045f8:	8e c0                	mov    %eax,%es
  1045fa:	8e e0                	mov    %eax,%fs
  1045fc:	8e e8                	mov    %eax,%gs
  1045fe:	8e d0                	mov    %eax,%ss
  104600:	0f 22 db             	mov    %ebx,%cr3
  104603:	89 d4                	mov    %edx,%esp
  104605:	fb                   	sti    
  104606:	61                   	popa   
  104607:	c3                   	ret    

00104608 <__padding>:
  104608:	00 00                	add    %al,(%eax)
	...

0010460b <bios32_gdt_entries>:
	...

0010464b <bios32_gdt_ptr>:
	...

00104653 <bios32_idt_ptr>:
	...

0010465b <bios32_in_reg16_ptr>:
	...

00104677 <bios32_out_reg16_ptr>:
  104677:	aa                   	stos   %al,%es:(%edi)
  104678:	aa                   	stos   %al,%es:(%edi)
  104679:	aa                   	stos   %al,%es:(%edi)
  10467a:	aa                   	stos   %al,%es:(%edi)
  10467b:	aa                   	stos   %al,%es:(%edi)
  10467c:	aa                   	stos   %al,%es:(%edi)
  10467d:	aa                   	stos   %al,%es:(%edi)
  10467e:	aa                   	stos   %al,%es:(%edi)
  10467f:	aa                   	stos   %al,%es:(%edi)
  104680:	aa                   	stos   %al,%es:(%edi)
  104681:	aa                   	stos   %al,%es:(%edi)
  104682:	aa                   	stos   %al,%es:(%edi)
  104683:	aa                   	stos   %al,%es:(%edi)
  104684:	aa                   	stos   %al,%es:(%edi)
  104685:	aa                   	stos   %al,%es:(%edi)
  104686:	aa                   	stos   %al,%es:(%edi)
  104687:	aa                   	stos   %al,%es:(%edi)
  104688:	aa                   	stos   %al,%es:(%edi)
  104689:	aa                   	stos   %al,%es:(%edi)
  10468a:	aa                   	stos   %al,%es:(%edi)
  10468b:	aa                   	stos   %al,%es:(%edi)
  10468c:	aa                   	stos   %al,%es:(%edi)
  10468d:	aa                   	stos   %al,%es:(%edi)
  10468e:	aa                   	stos   %al,%es:(%edi)
  10468f:	aa                   	stos   %al,%es:(%edi)
  104690:	aa                   	stos   %al,%es:(%edi)
  104691:	aa                   	stos   %al,%es:(%edi)
  104692:	aa                   	stos   %al,%es:(%edi)

00104693 <current_esp>:
	...

00104695 <BIOS32_END>:
  104695:	66 90                	xchg   %ax,%ax
  104697:	66 90                	xchg   %ax,%ax
  104699:	66 90                	xchg   %ax,%ax
  10469b:	66 90                	xchg   %ax,%ax
  10469d:	66 90                	xchg   %ax,%ax
  10469f:	66 90                	xchg   %ax,%ax
  1046a1:	66 90                	xchg   %ax,%ax
  1046a3:	66 90                	xchg   %ax,%ax
  1046a5:	66 90                	xchg   %ax,%ax
  1046a7:	66 90                	xchg   %ax,%ax
  1046a9:	66 90                	xchg   %ax,%ax
  1046ab:	66 90                	xchg   %ax,%ax
  1046ad:	66 90                	xchg   %ax,%ax
  1046af:	66 90                	xchg   %ax,%ax
  1046b1:	66 90                	xchg   %ax,%ax
  1046b3:	66 90                	xchg   %ax,%ax
  1046b5:	66 90                	xchg   %ax,%ax
  1046b7:	66 90                	xchg   %ax,%ax
  1046b9:	66 90                	xchg   %ax,%ax
  1046bb:	66 90                	xchg   %ax,%ax
  1046bd:	66 90                	xchg   %ax,%ax
  1046bf:	66 90                	xchg   %ax,%ax
  1046c1:	66 90                	xchg   %ax,%ax
  1046c3:	66 90                	xchg   %ax,%ax
  1046c5:	66 90                	xchg   %ax,%ax
  1046c7:	66 90                	xchg   %ax,%ax
  1046c9:	66 90                	xchg   %ax,%ax
  1046cb:	66 90                	xchg   %ax,%ax
  1046cd:	66 90                	xchg   %ax,%ax
  1046cf:	66 90                	xchg   %ax,%ax
  1046d1:	66 90                	xchg   %ax,%ax
  1046d3:	66 90                	xchg   %ax,%ax
  1046d5:	66 90                	xchg   %ax,%ax
  1046d7:	66 90                	xchg   %ax,%ax
  1046d9:	66 90                	xchg   %ax,%ax
  1046db:	66 90                	xchg   %ax,%ax
  1046dd:	66 90                	xchg   %ax,%ax
  1046df:	66 90                	xchg   %ax,%ax
  1046e1:	66 90                	xchg   %ax,%ax
  1046e3:	66 90                	xchg   %ax,%ax
  1046e5:	66 90                	xchg   %ax,%ax
  1046e7:	66 90                	xchg   %ax,%ax
  1046e9:	66 90                	xchg   %ax,%ax
  1046eb:	66 90                	xchg   %ax,%ax
  1046ed:	66 90                	xchg   %ax,%ax
  1046ef:	66 90                	xchg   %ax,%ax
  1046f1:	66 90                	xchg   %ax,%ax
  1046f3:	66 90                	xchg   %ax,%ax
  1046f5:	66 90                	xchg   %ax,%ax
  1046f7:	66 90                	xchg   %ax,%ax
  1046f9:	66 90                	xchg   %ax,%ax
  1046fb:	66 90                	xchg   %ax,%ax
  1046fd:	66 90                	xchg   %ax,%ax
  1046ff:	66 90                	xchg   %ax,%ax
  104701:	66 90                	xchg   %ax,%ax
  104703:	66 90                	xchg   %ax,%ax
  104705:	66 90                	xchg   %ax,%ax
  104707:	66 90                	xchg   %ax,%ax
  104709:	66 90                	xchg   %ax,%ax
  10470b:	66 90                	xchg   %ax,%ax
  10470d:	66 90                	xchg   %ax,%ax
  10470f:	66 90                	xchg   %ax,%ax
  104711:	66 90                	xchg   %ax,%ax
  104713:	66 90                	xchg   %ax,%ax
  104715:	66 90                	xchg   %ax,%ax
  104717:	66 90                	xchg   %ax,%ax
  104719:	66 90                	xchg   %ax,%ax
  10471b:	66 90                	xchg   %ax,%ax
  10471d:	66 90                	xchg   %ax,%ax
  10471f:	66 90                	xchg   %ax,%ax
  104721:	66 90                	xchg   %ax,%ax
  104723:	66 90                	xchg   %ax,%ax
  104725:	66 90                	xchg   %ax,%ax
  104727:	66 90                	xchg   %ax,%ax
  104729:	66 90                	xchg   %ax,%ax
  10472b:	66 90                	xchg   %ax,%ax
  10472d:	66 90                	xchg   %ax,%ax
  10472f:	66 90                	xchg   %ax,%ax
  104731:	66 90                	xchg   %ax,%ax
  104733:	66 90                	xchg   %ax,%ax
  104735:	66 90                	xchg   %ax,%ax
  104737:	66 90                	xchg   %ax,%ax
  104739:	66 90                	xchg   %ax,%ax
  10473b:	66 90                	xchg   %ax,%ax
  10473d:	66 90                	xchg   %ax,%ax
  10473f:	66 90                	xchg   %ax,%ax
  104741:	66 90                	xchg   %ax,%ax
  104743:	66 90                	xchg   %ax,%ax
  104745:	66 90                	xchg   %ax,%ax
  104747:	66 90                	xchg   %ax,%ax
  104749:	66 90                	xchg   %ax,%ax
  10474b:	66 90                	xchg   %ax,%ax
  10474d:	66 90                	xchg   %ax,%ax
  10474f:	66 90                	xchg   %ax,%ax
  104751:	66 90                	xchg   %ax,%ax
  104753:	66 90                	xchg   %ax,%ax
  104755:	66 90                	xchg   %ax,%ax
  104757:	66 90                	xchg   %ax,%ax
  104759:	66 90                	xchg   %ax,%ax
  10475b:	66 90                	xchg   %ax,%ax
  10475d:	66 90                	xchg   %ax,%ax
  10475f:	66 90                	xchg   %ax,%ax
  104761:	66 90                	xchg   %ax,%ax
  104763:	66 90                	xchg   %ax,%ax
  104765:	66 90                	xchg   %ax,%ax
  104767:	66 90                	xchg   %ax,%ax
  104769:	66 90                	xchg   %ax,%ax
  10476b:	66 90                	xchg   %ax,%ax
  10476d:	66 90                	xchg   %ax,%ax
  10476f:	66 90                	xchg   %ax,%ax
  104771:	66 90                	xchg   %ax,%ax
  104773:	66 90                	xchg   %ax,%ax
  104775:	66 90                	xchg   %ax,%ax
  104777:	66 90                	xchg   %ax,%ax
  104779:	66 90                	xchg   %ax,%ax
  10477b:	66 90                	xchg   %ax,%ax
  10477d:	66 90                	xchg   %ax,%ax
  10477f:	66 90                	xchg   %ax,%ax
  104781:	66 90                	xchg   %ax,%ax
  104783:	66 90                	xchg   %ax,%ax
  104785:	66 90                	xchg   %ax,%ax
  104787:	66 90                	xchg   %ax,%ax
  104789:	66 90                	xchg   %ax,%ax
  10478b:	66 90                	xchg   %ax,%ax
  10478d:	66 90                	xchg   %ax,%ax
  10478f:	66 90                	xchg   %ax,%ax
  104791:	66 90                	xchg   %ax,%ax
  104793:	66 90                	xchg   %ax,%ax
  104795:	66 90                	xchg   %ax,%ax
  104797:	66 90                	xchg   %ax,%ax
  104799:	66 90                	xchg   %ax,%ax
  10479b:	66 90                	xchg   %ax,%ax
  10479d:	66 90                	xchg   %ax,%ax
  10479f:	66 90                	xchg   %ax,%ax
  1047a1:	66 90                	xchg   %ax,%ax
  1047a3:	66 90                	xchg   %ax,%ax
  1047a5:	66 90                	xchg   %ax,%ax
  1047a7:	66 90                	xchg   %ax,%ax
  1047a9:	66 90                	xchg   %ax,%ax
  1047ab:	66 90                	xchg   %ax,%ax
  1047ad:	66 90                	xchg   %ax,%ax
  1047af:	66 90                	xchg   %ax,%ax
  1047b1:	66 90                	xchg   %ax,%ax
  1047b3:	66 90                	xchg   %ax,%ax
  1047b5:	66 90                	xchg   %ax,%ax
  1047b7:	66 90                	xchg   %ax,%ax
  1047b9:	66 90                	xchg   %ax,%ax
  1047bb:	66 90                	xchg   %ax,%ax
  1047bd:	66 90                	xchg   %ax,%ax
  1047bf:	66 90                	xchg   %ax,%ax
  1047c1:	66 90                	xchg   %ax,%ax
  1047c3:	66 90                	xchg   %ax,%ax
  1047c5:	66 90                	xchg   %ax,%ax
  1047c7:	66 90                	xchg   %ax,%ax
  1047c9:	66 90                	xchg   %ax,%ax
  1047cb:	66 90                	xchg   %ax,%ax
  1047cd:	66 90                	xchg   %ax,%ax
  1047cf:	66 90                	xchg   %ax,%ax
  1047d1:	66 90                	xchg   %ax,%ax
  1047d3:	66 90                	xchg   %ax,%ax
  1047d5:	66 90                	xchg   %ax,%ax
  1047d7:	66 90                	xchg   %ax,%ax
  1047d9:	66 90                	xchg   %ax,%ax
  1047db:	66 90                	xchg   %ax,%ax
  1047dd:	66 90                	xchg   %ax,%ax
  1047df:	66 90                	xchg   %ax,%ax
  1047e1:	66 90                	xchg   %ax,%ax
  1047e3:	66 90                	xchg   %ax,%ax
  1047e5:	66 90                	xchg   %ax,%ax
  1047e7:	66 90                	xchg   %ax,%ax
  1047e9:	66 90                	xchg   %ax,%ax
  1047eb:	66 90                	xchg   %ax,%ax
  1047ed:	66 90                	xchg   %ax,%ax
  1047ef:	66 90                	xchg   %ax,%ax
  1047f1:	66 90                	xchg   %ax,%ax
  1047f3:	66 90                	xchg   %ax,%ax
  1047f5:	66 90                	xchg   %ax,%ax
  1047f7:	66 90                	xchg   %ax,%ax
  1047f9:	66 90                	xchg   %ax,%ax
  1047fb:	66 90                	xchg   %ax,%ax
  1047fd:	66 90                	xchg   %ax,%ax
  1047ff:	66 90                	xchg   %ax,%ax
  104801:	66 90                	xchg   %ax,%ax
  104803:	66 90                	xchg   %ax,%ax
  104805:	66 90                	xchg   %ax,%ax
  104807:	66 90                	xchg   %ax,%ax
  104809:	66 90                	xchg   %ax,%ax
  10480b:	66 90                	xchg   %ax,%ax
  10480d:	66 90                	xchg   %ax,%ax
  10480f:	66 90                	xchg   %ax,%ax
  104811:	66 90                	xchg   %ax,%ax
  104813:	66 90                	xchg   %ax,%ax
  104815:	66 90                	xchg   %ax,%ax
  104817:	66 90                	xchg   %ax,%ax
  104819:	66 90                	xchg   %ax,%ax
  10481b:	66 90                	xchg   %ax,%ax
  10481d:	66 90                	xchg   %ax,%ax
  10481f:	66 90                	xchg   %ax,%ax
  104821:	66 90                	xchg   %ax,%ax
  104823:	66 90                	xchg   %ax,%ax
  104825:	66 90                	xchg   %ax,%ax
  104827:	66 90                	xchg   %ax,%ax
  104829:	66 90                	xchg   %ax,%ax
  10482b:	66 90                	xchg   %ax,%ax
  10482d:	66 90                	xchg   %ax,%ax
  10482f:	66 90                	xchg   %ax,%ax
  104831:	66 90                	xchg   %ax,%ax
  104833:	66 90                	xchg   %ax,%ax
  104835:	66 90                	xchg   %ax,%ax
  104837:	66 90                	xchg   %ax,%ax
  104839:	66 90                	xchg   %ax,%ax
  10483b:	66 90                	xchg   %ax,%ax
  10483d:	66 90                	xchg   %ax,%ax
  10483f:	66 90                	xchg   %ax,%ax
  104841:	66 90                	xchg   %ax,%ax
  104843:	66 90                	xchg   %ax,%ax
  104845:	66 90                	xchg   %ax,%ax
  104847:	66 90                	xchg   %ax,%ax
  104849:	66 90                	xchg   %ax,%ax
  10484b:	66 90                	xchg   %ax,%ax
  10484d:	66 90                	xchg   %ax,%ax
  10484f:	66 90                	xchg   %ax,%ax
  104851:	66 90                	xchg   %ax,%ax
  104853:	66 90                	xchg   %ax,%ax
  104855:	66 90                	xchg   %ax,%ax
  104857:	66 90                	xchg   %ax,%ax
  104859:	66 90                	xchg   %ax,%ax
  10485b:	66 90                	xchg   %ax,%ax
  10485d:	66 90                	xchg   %ax,%ax
  10485f:	66 90                	xchg   %ax,%ax
  104861:	66 90                	xchg   %ax,%ax
  104863:	66 90                	xchg   %ax,%ax
  104865:	66 90                	xchg   %ax,%ax
  104867:	66 90                	xchg   %ax,%ax
  104869:	66 90                	xchg   %ax,%ax
  10486b:	66 90                	xchg   %ax,%ax
  10486d:	66 90                	xchg   %ax,%ax
  10486f:	66 90                	xchg   %ax,%ax
  104871:	66 90                	xchg   %ax,%ax
  104873:	66 90                	xchg   %ax,%ax
  104875:	66 90                	xchg   %ax,%ax
  104877:	66 90                	xchg   %ax,%ax
  104879:	66 90                	xchg   %ax,%ax
  10487b:	66 90                	xchg   %ax,%ax
  10487d:	66 90                	xchg   %ax,%ax
  10487f:	66 90                	xchg   %ax,%ax
  104881:	66 90                	xchg   %ax,%ax
  104883:	66 90                	xchg   %ax,%ax
  104885:	66 90                	xchg   %ax,%ax
  104887:	66 90                	xchg   %ax,%ax
  104889:	66 90                	xchg   %ax,%ax
  10488b:	66 90                	xchg   %ax,%ax
  10488d:	66 90                	xchg   %ax,%ax
  10488f:	66 90                	xchg   %ax,%ax
  104891:	66 90                	xchg   %ax,%ax
  104893:	66 90                	xchg   %ax,%ax
  104895:	66 90                	xchg   %ax,%ax
  104897:	66 90                	xchg   %ax,%ax
  104899:	66 90                	xchg   %ax,%ax
  10489b:	66 90                	xchg   %ax,%ax
  10489d:	66 90                	xchg   %ax,%ax
  10489f:	66 90                	xchg   %ax,%ax
  1048a1:	66 90                	xchg   %ax,%ax
  1048a3:	66 90                	xchg   %ax,%ax
  1048a5:	66 90                	xchg   %ax,%ax
  1048a7:	66 90                	xchg   %ax,%ax
  1048a9:	66 90                	xchg   %ax,%ax
  1048ab:	66 90                	xchg   %ax,%ax
  1048ad:	66 90                	xchg   %ax,%ax
  1048af:	66 90                	xchg   %ax,%ax
  1048b1:	66 90                	xchg   %ax,%ax
  1048b3:	66 90                	xchg   %ax,%ax
  1048b5:	66 90                	xchg   %ax,%ax
  1048b7:	66 90                	xchg   %ax,%ax
  1048b9:	66 90                	xchg   %ax,%ax
  1048bb:	66 90                	xchg   %ax,%ax
  1048bd:	66 90                	xchg   %ax,%ax
  1048bf:	66 90                	xchg   %ax,%ax
  1048c1:	66 90                	xchg   %ax,%ax
  1048c3:	66 90                	xchg   %ax,%ax
  1048c5:	66 90                	xchg   %ax,%ax
  1048c7:	66 90                	xchg   %ax,%ax
  1048c9:	66 90                	xchg   %ax,%ax
  1048cb:	66 90                	xchg   %ax,%ax
  1048cd:	66 90                	xchg   %ax,%ax
  1048cf:	66 90                	xchg   %ax,%ax
  1048d1:	66 90                	xchg   %ax,%ax
  1048d3:	66 90                	xchg   %ax,%ax
  1048d5:	66 90                	xchg   %ax,%ax
  1048d7:	66 90                	xchg   %ax,%ax
  1048d9:	66 90                	xchg   %ax,%ax
  1048db:	66 90                	xchg   %ax,%ax
  1048dd:	66 90                	xchg   %ax,%ax
  1048df:	66 90                	xchg   %ax,%ax
  1048e1:	66 90                	xchg   %ax,%ax
  1048e3:	66 90                	xchg   %ax,%ax
  1048e5:	66 90                	xchg   %ax,%ax
  1048e7:	66 90                	xchg   %ax,%ax
  1048e9:	66 90                	xchg   %ax,%ax
  1048eb:	66 90                	xchg   %ax,%ax
  1048ed:	66 90                	xchg   %ax,%ax
  1048ef:	66 90                	xchg   %ax,%ax
  1048f1:	66 90                	xchg   %ax,%ax
  1048f3:	66 90                	xchg   %ax,%ax
  1048f5:	66 90                	xchg   %ax,%ax
  1048f7:	66 90                	xchg   %ax,%ax
  1048f9:	66 90                	xchg   %ax,%ax
  1048fb:	66 90                	xchg   %ax,%ax
  1048fd:	66 90                	xchg   %ax,%ax
  1048ff:	66 90                	xchg   %ax,%ax
  104901:	66 90                	xchg   %ax,%ax
  104903:	66 90                	xchg   %ax,%ax
  104905:	66 90                	xchg   %ax,%ax
  104907:	66 90                	xchg   %ax,%ax
  104909:	66 90                	xchg   %ax,%ax
  10490b:	66 90                	xchg   %ax,%ax
  10490d:	66 90                	xchg   %ax,%ax
  10490f:	66 90                	xchg   %ax,%ax
  104911:	66 90                	xchg   %ax,%ax
  104913:	66 90                	xchg   %ax,%ax
  104915:	66 90                	xchg   %ax,%ax
  104917:	66 90                	xchg   %ax,%ax
  104919:	66 90                	xchg   %ax,%ax
  10491b:	66 90                	xchg   %ax,%ax
  10491d:	66 90                	xchg   %ax,%ax
  10491f:	66 90                	xchg   %ax,%ax
  104921:	66 90                	xchg   %ax,%ax
  104923:	66 90                	xchg   %ax,%ax
  104925:	66 90                	xchg   %ax,%ax
  104927:	66 90                	xchg   %ax,%ax
  104929:	66 90                	xchg   %ax,%ax
  10492b:	66 90                	xchg   %ax,%ax
  10492d:	66 90                	xchg   %ax,%ax
  10492f:	66 90                	xchg   %ax,%ax
  104931:	66 90                	xchg   %ax,%ax
  104933:	66 90                	xchg   %ax,%ax
  104935:	66 90                	xchg   %ax,%ax
  104937:	66 90                	xchg   %ax,%ax
  104939:	66 90                	xchg   %ax,%ax
  10493b:	66 90                	xchg   %ax,%ax
  10493d:	66 90                	xchg   %ax,%ax
  10493f:	66 90                	xchg   %ax,%ax
  104941:	66 90                	xchg   %ax,%ax
  104943:	66 90                	xchg   %ax,%ax
  104945:	66 90                	xchg   %ax,%ax
  104947:	66 90                	xchg   %ax,%ax
  104949:	66 90                	xchg   %ax,%ax
  10494b:	66 90                	xchg   %ax,%ax
  10494d:	66 90                	xchg   %ax,%ax
  10494f:	66 90                	xchg   %ax,%ax
  104951:	66 90                	xchg   %ax,%ax
  104953:	66 90                	xchg   %ax,%ax
  104955:	66 90                	xchg   %ax,%ax
  104957:	66 90                	xchg   %ax,%ax
  104959:	66 90                	xchg   %ax,%ax
  10495b:	66 90                	xchg   %ax,%ax
  10495d:	66 90                	xchg   %ax,%ax
  10495f:	66 90                	xchg   %ax,%ax
  104961:	66 90                	xchg   %ax,%ax
  104963:	66 90                	xchg   %ax,%ax
  104965:	66 90                	xchg   %ax,%ax
  104967:	66 90                	xchg   %ax,%ax
  104969:	66 90                	xchg   %ax,%ax
  10496b:	66 90                	xchg   %ax,%ax
  10496d:	66 90                	xchg   %ax,%ax
  10496f:	66 90                	xchg   %ax,%ax
  104971:	66 90                	xchg   %ax,%ax
  104973:	66 90                	xchg   %ax,%ax
  104975:	66 90                	xchg   %ax,%ax
  104977:	66 90                	xchg   %ax,%ax
  104979:	66 90                	xchg   %ax,%ax
  10497b:	66 90                	xchg   %ax,%ax
  10497d:	66 90                	xchg   %ax,%ax
  10497f:	66 90                	xchg   %ax,%ax
  104981:	66 90                	xchg   %ax,%ax
  104983:	66 90                	xchg   %ax,%ax
  104985:	66 90                	xchg   %ax,%ax
  104987:	66 90                	xchg   %ax,%ax
  104989:	66 90                	xchg   %ax,%ax
  10498b:	66 90                	xchg   %ax,%ax
  10498d:	66 90                	xchg   %ax,%ax
  10498f:	66 90                	xchg   %ax,%ax
  104991:	66 90                	xchg   %ax,%ax
  104993:	66 90                	xchg   %ax,%ax
  104995:	66 90                	xchg   %ax,%ax
  104997:	66 90                	xchg   %ax,%ax
  104999:	66 90                	xchg   %ax,%ax
  10499b:	66 90                	xchg   %ax,%ax
  10499d:	66 90                	xchg   %ax,%ax
  10499f:	66 90                	xchg   %ax,%ax
  1049a1:	66 90                	xchg   %ax,%ax
  1049a3:	66 90                	xchg   %ax,%ax
  1049a5:	66 90                	xchg   %ax,%ax
  1049a7:	66 90                	xchg   %ax,%ax
  1049a9:	66 90                	xchg   %ax,%ax
  1049ab:	66 90                	xchg   %ax,%ax
  1049ad:	66 90                	xchg   %ax,%ax
  1049af:	66 90                	xchg   %ax,%ax
  1049b1:	66 90                	xchg   %ax,%ax
  1049b3:	66 90                	xchg   %ax,%ax
  1049b5:	66 90                	xchg   %ax,%ax
  1049b7:	66 90                	xchg   %ax,%ax
  1049b9:	66 90                	xchg   %ax,%ax
  1049bb:	66 90                	xchg   %ax,%ax
  1049bd:	66 90                	xchg   %ax,%ax
  1049bf:	66 90                	xchg   %ax,%ax
  1049c1:	66 90                	xchg   %ax,%ax
  1049c3:	66 90                	xchg   %ax,%ax
  1049c5:	66 90                	xchg   %ax,%ax
  1049c7:	66 90                	xchg   %ax,%ax
  1049c9:	66 90                	xchg   %ax,%ax
  1049cb:	66 90                	xchg   %ax,%ax
  1049cd:	66 90                	xchg   %ax,%ax
  1049cf:	66 90                	xchg   %ax,%ax
  1049d1:	66 90                	xchg   %ax,%ax
  1049d3:	66 90                	xchg   %ax,%ax
  1049d5:	66 90                	xchg   %ax,%ax
  1049d7:	66 90                	xchg   %ax,%ax
  1049d9:	66 90                	xchg   %ax,%ax
  1049db:	66 90                	xchg   %ax,%ax
  1049dd:	66 90                	xchg   %ax,%ax
  1049df:	66 90                	xchg   %ax,%ax
  1049e1:	66 90                	xchg   %ax,%ax
  1049e3:	66 90                	xchg   %ax,%ax
  1049e5:	66 90                	xchg   %ax,%ax
  1049e7:	66 90                	xchg   %ax,%ax
  1049e9:	66 90                	xchg   %ax,%ax
  1049eb:	66 90                	xchg   %ax,%ax
  1049ed:	66 90                	xchg   %ax,%ax
  1049ef:	66 90                	xchg   %ax,%ax
  1049f1:	66 90                	xchg   %ax,%ax
  1049f3:	66 90                	xchg   %ax,%ax
  1049f5:	66 90                	xchg   %ax,%ax
  1049f7:	66 90                	xchg   %ax,%ax
  1049f9:	66 90                	xchg   %ax,%ax
  1049fb:	66 90                	xchg   %ax,%ax
  1049fd:	66 90                	xchg   %ax,%ax
  1049ff:	66 90                	xchg   %ax,%ax
  104a01:	66 90                	xchg   %ax,%ax
  104a03:	66 90                	xchg   %ax,%ax
  104a05:	66 90                	xchg   %ax,%ax
  104a07:	66 90                	xchg   %ax,%ax
  104a09:	66 90                	xchg   %ax,%ax
  104a0b:	66 90                	xchg   %ax,%ax
  104a0d:	66 90                	xchg   %ax,%ax
  104a0f:	66 90                	xchg   %ax,%ax
  104a11:	66 90                	xchg   %ax,%ax
  104a13:	66 90                	xchg   %ax,%ax
  104a15:	66 90                	xchg   %ax,%ax
  104a17:	66 90                	xchg   %ax,%ax
  104a19:	66 90                	xchg   %ax,%ax
  104a1b:	66 90                	xchg   %ax,%ax
  104a1d:	66 90                	xchg   %ax,%ax
  104a1f:	66 90                	xchg   %ax,%ax
  104a21:	66 90                	xchg   %ax,%ax
  104a23:	66 90                	xchg   %ax,%ax
  104a25:	66 90                	xchg   %ax,%ax
  104a27:	66 90                	xchg   %ax,%ax
  104a29:	66 90                	xchg   %ax,%ax
  104a2b:	66 90                	xchg   %ax,%ax
  104a2d:	66 90                	xchg   %ax,%ax
  104a2f:	66 90                	xchg   %ax,%ax
  104a31:	66 90                	xchg   %ax,%ax
  104a33:	66 90                	xchg   %ax,%ax
  104a35:	66 90                	xchg   %ax,%ax
  104a37:	66 90                	xchg   %ax,%ax
  104a39:	66 90                	xchg   %ax,%ax
  104a3b:	66 90                	xchg   %ax,%ax
  104a3d:	66 90                	xchg   %ax,%ax
  104a3f:	66 90                	xchg   %ax,%ax
  104a41:	66 90                	xchg   %ax,%ax
  104a43:	66 90                	xchg   %ax,%ax
  104a45:	66 90                	xchg   %ax,%ax
  104a47:	66 90                	xchg   %ax,%ax
  104a49:	66 90                	xchg   %ax,%ax
  104a4b:	66 90                	xchg   %ax,%ax
  104a4d:	66 90                	xchg   %ax,%ax
  104a4f:	66 90                	xchg   %ax,%ax
  104a51:	66 90                	xchg   %ax,%ax
  104a53:	66 90                	xchg   %ax,%ax
  104a55:	66 90                	xchg   %ax,%ax
  104a57:	66 90                	xchg   %ax,%ax
  104a59:	66 90                	xchg   %ax,%ax
  104a5b:	66 90                	xchg   %ax,%ax
  104a5d:	66 90                	xchg   %ax,%ax
  104a5f:	66 90                	xchg   %ax,%ax
  104a61:	66 90                	xchg   %ax,%ax
  104a63:	66 90                	xchg   %ax,%ax
  104a65:	66 90                	xchg   %ax,%ax
  104a67:	66 90                	xchg   %ax,%ax
  104a69:	66 90                	xchg   %ax,%ax
  104a6b:	66 90                	xchg   %ax,%ax
  104a6d:	66 90                	xchg   %ax,%ax
  104a6f:	66 90                	xchg   %ax,%ax
  104a71:	66 90                	xchg   %ax,%ax
  104a73:	66 90                	xchg   %ax,%ax
  104a75:	66 90                	xchg   %ax,%ax
  104a77:	66 90                	xchg   %ax,%ax
  104a79:	66 90                	xchg   %ax,%ax
  104a7b:	66 90                	xchg   %ax,%ax
  104a7d:	66 90                	xchg   %ax,%ax
  104a7f:	66 90                	xchg   %ax,%ax
  104a81:	66 90                	xchg   %ax,%ax
  104a83:	66 90                	xchg   %ax,%ax
  104a85:	66 90                	xchg   %ax,%ax
  104a87:	66 90                	xchg   %ax,%ax
  104a89:	66 90                	xchg   %ax,%ax
  104a8b:	66 90                	xchg   %ax,%ax
  104a8d:	66 90                	xchg   %ax,%ax
  104a8f:	66 90                	xchg   %ax,%ax
  104a91:	66 90                	xchg   %ax,%ax
  104a93:	66 90                	xchg   %ax,%ax
  104a95:	66 90                	xchg   %ax,%ax
  104a97:	66 90                	xchg   %ax,%ax
  104a99:	66 90                	xchg   %ax,%ax
  104a9b:	66 90                	xchg   %ax,%ax
  104a9d:	66 90                	xchg   %ax,%ax
  104a9f:	66 90                	xchg   %ax,%ax
  104aa1:	66 90                	xchg   %ax,%ax
  104aa3:	66 90                	xchg   %ax,%ax
  104aa5:	66 90                	xchg   %ax,%ax
  104aa7:	66 90                	xchg   %ax,%ax
  104aa9:	66 90                	xchg   %ax,%ax
  104aab:	66 90                	xchg   %ax,%ax
  104aad:	66 90                	xchg   %ax,%ax
  104aaf:	66 90                	xchg   %ax,%ax
  104ab1:	66 90                	xchg   %ax,%ax
  104ab3:	66 90                	xchg   %ax,%ax
  104ab5:	66 90                	xchg   %ax,%ax
  104ab7:	66 90                	xchg   %ax,%ax
  104ab9:	66 90                	xchg   %ax,%ax
  104abb:	66 90                	xchg   %ax,%ax
  104abd:	66 90                	xchg   %ax,%ax
  104abf:	66 90                	xchg   %ax,%ax
  104ac1:	66 90                	xchg   %ax,%ax
  104ac3:	66 90                	xchg   %ax,%ax
  104ac5:	66 90                	xchg   %ax,%ax
  104ac7:	66 90                	xchg   %ax,%ax
  104ac9:	66 90                	xchg   %ax,%ax
  104acb:	66 90                	xchg   %ax,%ax
  104acd:	66 90                	xchg   %ax,%ax
  104acf:	66 90                	xchg   %ax,%ax
  104ad1:	66 90                	xchg   %ax,%ax
  104ad3:	66 90                	xchg   %ax,%ax
  104ad5:	66 90                	xchg   %ax,%ax
  104ad7:	66 90                	xchg   %ax,%ax
  104ad9:	66 90                	xchg   %ax,%ax
  104adb:	66 90                	xchg   %ax,%ax
  104add:	66 90                	xchg   %ax,%ax
  104adf:	66 90                	xchg   %ax,%ax
  104ae1:	66 90                	xchg   %ax,%ax
  104ae3:	66 90                	xchg   %ax,%ax
  104ae5:	66 90                	xchg   %ax,%ax
  104ae7:	66 90                	xchg   %ax,%ax
  104ae9:	66 90                	xchg   %ax,%ax
  104aeb:	66 90                	xchg   %ax,%ax
  104aed:	66 90                	xchg   %ax,%ax
  104aef:	66 90                	xchg   %ax,%ax
  104af1:	66 90                	xchg   %ax,%ax
  104af3:	66 90                	xchg   %ax,%ax
  104af5:	66 90                	xchg   %ax,%ax
  104af7:	66 90                	xchg   %ax,%ax
  104af9:	66 90                	xchg   %ax,%ax
  104afb:	66 90                	xchg   %ax,%ax
  104afd:	66 90                	xchg   %ax,%ax
  104aff:	66 90                	xchg   %ax,%ax
  104b01:	66 90                	xchg   %ax,%ax
  104b03:	66 90                	xchg   %ax,%ax
  104b05:	66 90                	xchg   %ax,%ax
  104b07:	66 90                	xchg   %ax,%ax
  104b09:	66 90                	xchg   %ax,%ax
  104b0b:	66 90                	xchg   %ax,%ax
  104b0d:	66 90                	xchg   %ax,%ax
  104b0f:	66 90                	xchg   %ax,%ax
  104b11:	66 90                	xchg   %ax,%ax
  104b13:	66 90                	xchg   %ax,%ax
  104b15:	66 90                	xchg   %ax,%ax
  104b17:	66 90                	xchg   %ax,%ax
  104b19:	66 90                	xchg   %ax,%ax
  104b1b:	66 90                	xchg   %ax,%ax
  104b1d:	66 90                	xchg   %ax,%ax
  104b1f:	66 90                	xchg   %ax,%ax
  104b21:	66 90                	xchg   %ax,%ax
  104b23:	66 90                	xchg   %ax,%ax
  104b25:	66 90                	xchg   %ax,%ax
  104b27:	66 90                	xchg   %ax,%ax
  104b29:	66 90                	xchg   %ax,%ax
  104b2b:	66 90                	xchg   %ax,%ax
  104b2d:	66 90                	xchg   %ax,%ax
  104b2f:	66 90                	xchg   %ax,%ax
  104b31:	66 90                	xchg   %ax,%ax
  104b33:	66 90                	xchg   %ax,%ax
  104b35:	66 90                	xchg   %ax,%ax
  104b37:	66 90                	xchg   %ax,%ax
  104b39:	66 90                	xchg   %ax,%ax
  104b3b:	66 90                	xchg   %ax,%ax
  104b3d:	66 90                	xchg   %ax,%ax
  104b3f:	66 90                	xchg   %ax,%ax
  104b41:	66 90                	xchg   %ax,%ax
  104b43:	66 90                	xchg   %ax,%ax
  104b45:	66 90                	xchg   %ax,%ax
  104b47:	66 90                	xchg   %ax,%ax
  104b49:	66 90                	xchg   %ax,%ax
  104b4b:	66 90                	xchg   %ax,%ax
  104b4d:	66 90                	xchg   %ax,%ax
  104b4f:	66 90                	xchg   %ax,%ax
  104b51:	66 90                	xchg   %ax,%ax
  104b53:	66 90                	xchg   %ax,%ax
  104b55:	66 90                	xchg   %ax,%ax
  104b57:	66 90                	xchg   %ax,%ax
  104b59:	66 90                	xchg   %ax,%ax
  104b5b:	66 90                	xchg   %ax,%ax
  104b5d:	66 90                	xchg   %ax,%ax
  104b5f:	66 90                	xchg   %ax,%ax
  104b61:	66 90                	xchg   %ax,%ax
  104b63:	66 90                	xchg   %ax,%ax
  104b65:	66 90                	xchg   %ax,%ax
  104b67:	66 90                	xchg   %ax,%ax
  104b69:	66 90                	xchg   %ax,%ax
  104b6b:	66 90                	xchg   %ax,%ax
  104b6d:	66 90                	xchg   %ax,%ax
  104b6f:	66 90                	xchg   %ax,%ax
  104b71:	66 90                	xchg   %ax,%ax
  104b73:	66 90                	xchg   %ax,%ax
  104b75:	66 90                	xchg   %ax,%ax
  104b77:	66 90                	xchg   %ax,%ax
  104b79:	66 90                	xchg   %ax,%ax
  104b7b:	66 90                	xchg   %ax,%ax
  104b7d:	66 90                	xchg   %ax,%ax
  104b7f:	66 90                	xchg   %ax,%ax
  104b81:	66 90                	xchg   %ax,%ax
  104b83:	66 90                	xchg   %ax,%ax
  104b85:	66 90                	xchg   %ax,%ax
  104b87:	66 90                	xchg   %ax,%ax
  104b89:	66 90                	xchg   %ax,%ax
  104b8b:	66 90                	xchg   %ax,%ax
  104b8d:	66 90                	xchg   %ax,%ax
  104b8f:	66 90                	xchg   %ax,%ax
  104b91:	66 90                	xchg   %ax,%ax
  104b93:	66 90                	xchg   %ax,%ax
  104b95:	66 90                	xchg   %ax,%ax
  104b97:	66 90                	xchg   %ax,%ax
  104b99:	66 90                	xchg   %ax,%ax
  104b9b:	66 90                	xchg   %ax,%ax
  104b9d:	66 90                	xchg   %ax,%ax
  104b9f:	66 90                	xchg   %ax,%ax
  104ba1:	66 90                	xchg   %ax,%ax
  104ba3:	66 90                	xchg   %ax,%ax
  104ba5:	66 90                	xchg   %ax,%ax
  104ba7:	66 90                	xchg   %ax,%ax
  104ba9:	66 90                	xchg   %ax,%ax
  104bab:	66 90                	xchg   %ax,%ax
  104bad:	66 90                	xchg   %ax,%ax
  104baf:	66 90                	xchg   %ax,%ax
  104bb1:	66 90                	xchg   %ax,%ax
  104bb3:	66 90                	xchg   %ax,%ax
  104bb5:	66 90                	xchg   %ax,%ax
  104bb7:	66 90                	xchg   %ax,%ax
  104bb9:	66 90                	xchg   %ax,%ax
  104bbb:	66 90                	xchg   %ax,%ax
  104bbd:	66 90                	xchg   %ax,%ax
  104bbf:	66 90                	xchg   %ax,%ax
  104bc1:	66 90                	xchg   %ax,%ax
  104bc3:	66 90                	xchg   %ax,%ax
  104bc5:	66 90                	xchg   %ax,%ax
  104bc7:	66 90                	xchg   %ax,%ax
  104bc9:	66 90                	xchg   %ax,%ax
  104bcb:	66 90                	xchg   %ax,%ax
  104bcd:	66 90                	xchg   %ax,%ax
  104bcf:	66 90                	xchg   %ax,%ax
  104bd1:	66 90                	xchg   %ax,%ax
  104bd3:	66 90                	xchg   %ax,%ax
  104bd5:	66 90                	xchg   %ax,%ax
  104bd7:	66 90                	xchg   %ax,%ax
  104bd9:	66 90                	xchg   %ax,%ax
  104bdb:	66 90                	xchg   %ax,%ax
  104bdd:	66 90                	xchg   %ax,%ax
  104bdf:	66 90                	xchg   %ax,%ax
  104be1:	66 90                	xchg   %ax,%ax
  104be3:	66 90                	xchg   %ax,%ax
  104be5:	66 90                	xchg   %ax,%ax
  104be7:	66 90                	xchg   %ax,%ax
  104be9:	66 90                	xchg   %ax,%ax
  104beb:	66 90                	xchg   %ax,%ax
  104bed:	66 90                	xchg   %ax,%ax
  104bef:	66 90                	xchg   %ax,%ax
  104bf1:	66 90                	xchg   %ax,%ax
  104bf3:	66 90                	xchg   %ax,%ax
  104bf5:	66 90                	xchg   %ax,%ax
  104bf7:	66 90                	xchg   %ax,%ax
  104bf9:	66 90                	xchg   %ax,%ax
  104bfb:	66 90                	xchg   %ax,%ax
  104bfd:	66 90                	xchg   %ax,%ax
  104bff:	66 90                	xchg   %ax,%ax
  104c01:	66 90                	xchg   %ax,%ax
  104c03:	66 90                	xchg   %ax,%ax
  104c05:	66 90                	xchg   %ax,%ax
  104c07:	66 90                	xchg   %ax,%ax
  104c09:	66 90                	xchg   %ax,%ax
  104c0b:	66 90                	xchg   %ax,%ax
  104c0d:	66 90                	xchg   %ax,%ax
  104c0f:	66 90                	xchg   %ax,%ax
  104c11:	66 90                	xchg   %ax,%ax
  104c13:	66 90                	xchg   %ax,%ax
  104c15:	66 90                	xchg   %ax,%ax
  104c17:	66 90                	xchg   %ax,%ax
  104c19:	66 90                	xchg   %ax,%ax
  104c1b:	66 90                	xchg   %ax,%ax
  104c1d:	66 90                	xchg   %ax,%ax
  104c1f:	66 90                	xchg   %ax,%ax
  104c21:	66 90                	xchg   %ax,%ax
  104c23:	66 90                	xchg   %ax,%ax
  104c25:	66 90                	xchg   %ax,%ax
  104c27:	66 90                	xchg   %ax,%ax
  104c29:	66 90                	xchg   %ax,%ax
  104c2b:	66 90                	xchg   %ax,%ax
  104c2d:	66 90                	xchg   %ax,%ax
  104c2f:	66 90                	xchg   %ax,%ax
  104c31:	66 90                	xchg   %ax,%ax
  104c33:	66 90                	xchg   %ax,%ax
  104c35:	66 90                	xchg   %ax,%ax
  104c37:	66 90                	xchg   %ax,%ax
  104c39:	66 90                	xchg   %ax,%ax
  104c3b:	66 90                	xchg   %ax,%ax
  104c3d:	66 90                	xchg   %ax,%ax
  104c3f:	66 90                	xchg   %ax,%ax
  104c41:	66 90                	xchg   %ax,%ax
  104c43:	66 90                	xchg   %ax,%ax
  104c45:	66 90                	xchg   %ax,%ax
  104c47:	66 90                	xchg   %ax,%ax
  104c49:	66 90                	xchg   %ax,%ax
  104c4b:	66 90                	xchg   %ax,%ax
  104c4d:	66 90                	xchg   %ax,%ax
  104c4f:	66 90                	xchg   %ax,%ax
  104c51:	66 90                	xchg   %ax,%ax
  104c53:	66 90                	xchg   %ax,%ax
  104c55:	66 90                	xchg   %ax,%ax
  104c57:	66 90                	xchg   %ax,%ax
  104c59:	66 90                	xchg   %ax,%ax
  104c5b:	66 90                	xchg   %ax,%ax
  104c5d:	66 90                	xchg   %ax,%ax
  104c5f:	66 90                	xchg   %ax,%ax
  104c61:	66 90                	xchg   %ax,%ax
  104c63:	66 90                	xchg   %ax,%ax
  104c65:	66 90                	xchg   %ax,%ax
  104c67:	66 90                	xchg   %ax,%ax
  104c69:	66 90                	xchg   %ax,%ax
  104c6b:	66 90                	xchg   %ax,%ax
  104c6d:	66 90                	xchg   %ax,%ax
  104c6f:	66 90                	xchg   %ax,%ax
  104c71:	66 90                	xchg   %ax,%ax
  104c73:	66 90                	xchg   %ax,%ax
  104c75:	66 90                	xchg   %ax,%ax
  104c77:	66 90                	xchg   %ax,%ax
  104c79:	66 90                	xchg   %ax,%ax
  104c7b:	66 90                	xchg   %ax,%ax
  104c7d:	66 90                	xchg   %ax,%ax
  104c7f:	66 90                	xchg   %ax,%ax
  104c81:	66 90                	xchg   %ax,%ax
  104c83:	66 90                	xchg   %ax,%ax
  104c85:	66 90                	xchg   %ax,%ax
  104c87:	66 90                	xchg   %ax,%ax
  104c89:	66 90                	xchg   %ax,%ax
  104c8b:	66 90                	xchg   %ax,%ax
  104c8d:	66 90                	xchg   %ax,%ax
  104c8f:	66 90                	xchg   %ax,%ax
  104c91:	66 90                	xchg   %ax,%ax
  104c93:	66 90                	xchg   %ax,%ax
  104c95:	66 90                	xchg   %ax,%ax
  104c97:	66 90                	xchg   %ax,%ax
  104c99:	66 90                	xchg   %ax,%ax
  104c9b:	66 90                	xchg   %ax,%ax
  104c9d:	66 90                	xchg   %ax,%ax
  104c9f:	66 90                	xchg   %ax,%ax
  104ca1:	66 90                	xchg   %ax,%ax
  104ca3:	66 90                	xchg   %ax,%ax
  104ca5:	66 90                	xchg   %ax,%ax
  104ca7:	66 90                	xchg   %ax,%ax
  104ca9:	66 90                	xchg   %ax,%ax
  104cab:	66 90                	xchg   %ax,%ax
  104cad:	66 90                	xchg   %ax,%ax
  104caf:	66 90                	xchg   %ax,%ax
  104cb1:	66 90                	xchg   %ax,%ax
  104cb3:	66 90                	xchg   %ax,%ax
  104cb5:	66 90                	xchg   %ax,%ax
  104cb7:	66 90                	xchg   %ax,%ax
  104cb9:	66 90                	xchg   %ax,%ax
  104cbb:	66 90                	xchg   %ax,%ax
  104cbd:	66 90                	xchg   %ax,%ax
  104cbf:	66 90                	xchg   %ax,%ax
  104cc1:	66 90                	xchg   %ax,%ax
  104cc3:	66 90                	xchg   %ax,%ax
  104cc5:	66 90                	xchg   %ax,%ax
  104cc7:	66 90                	xchg   %ax,%ax
  104cc9:	66 90                	xchg   %ax,%ax
  104ccb:	66 90                	xchg   %ax,%ax
  104ccd:	66 90                	xchg   %ax,%ax
  104ccf:	66 90                	xchg   %ax,%ax
  104cd1:	66 90                	xchg   %ax,%ax
  104cd3:	66 90                	xchg   %ax,%ax
  104cd5:	66 90                	xchg   %ax,%ax
  104cd7:	66 90                	xchg   %ax,%ax
  104cd9:	66 90                	xchg   %ax,%ax
  104cdb:	66 90                	xchg   %ax,%ax
  104cdd:	66 90                	xchg   %ax,%ax
  104cdf:	66 90                	xchg   %ax,%ax
  104ce1:	66 90                	xchg   %ax,%ax
  104ce3:	66 90                	xchg   %ax,%ax
  104ce5:	66 90                	xchg   %ax,%ax
  104ce7:	66 90                	xchg   %ax,%ax
  104ce9:	66 90                	xchg   %ax,%ax
  104ceb:	66 90                	xchg   %ax,%ax
  104ced:	66 90                	xchg   %ax,%ax
  104cef:	66 90                	xchg   %ax,%ax
  104cf1:	66 90                	xchg   %ax,%ax
  104cf3:	66 90                	xchg   %ax,%ax
  104cf5:	66 90                	xchg   %ax,%ax
  104cf7:	66 90                	xchg   %ax,%ax
  104cf9:	66 90                	xchg   %ax,%ax
  104cfb:	66 90                	xchg   %ax,%ax
  104cfd:	66 90                	xchg   %ax,%ax
  104cff:	66 90                	xchg   %ax,%ax
  104d01:	66 90                	xchg   %ax,%ax
  104d03:	66 90                	xchg   %ax,%ax
  104d05:	66 90                	xchg   %ax,%ax
  104d07:	66 90                	xchg   %ax,%ax
  104d09:	66 90                	xchg   %ax,%ax
  104d0b:	66 90                	xchg   %ax,%ax
  104d0d:	66 90                	xchg   %ax,%ax
  104d0f:	66 90                	xchg   %ax,%ax
  104d11:	66 90                	xchg   %ax,%ax
  104d13:	66 90                	xchg   %ax,%ax
  104d15:	66 90                	xchg   %ax,%ax
  104d17:	66 90                	xchg   %ax,%ax
  104d19:	66 90                	xchg   %ax,%ax
  104d1b:	66 90                	xchg   %ax,%ax
  104d1d:	66 90                	xchg   %ax,%ax
  104d1f:	66 90                	xchg   %ax,%ax
  104d21:	66 90                	xchg   %ax,%ax
  104d23:	66 90                	xchg   %ax,%ax
  104d25:	66 90                	xchg   %ax,%ax
  104d27:	66 90                	xchg   %ax,%ax
  104d29:	66 90                	xchg   %ax,%ax
  104d2b:	66 90                	xchg   %ax,%ax
  104d2d:	66 90                	xchg   %ax,%ax
  104d2f:	66 90                	xchg   %ax,%ax
  104d31:	66 90                	xchg   %ax,%ax
  104d33:	66 90                	xchg   %ax,%ax
  104d35:	66 90                	xchg   %ax,%ax
  104d37:	66 90                	xchg   %ax,%ax
  104d39:	66 90                	xchg   %ax,%ax
  104d3b:	66 90                	xchg   %ax,%ax
  104d3d:	66 90                	xchg   %ax,%ax
  104d3f:	66 90                	xchg   %ax,%ax
  104d41:	66 90                	xchg   %ax,%ax
  104d43:	66 90                	xchg   %ax,%ax
  104d45:	66 90                	xchg   %ax,%ax
  104d47:	66 90                	xchg   %ax,%ax
  104d49:	66 90                	xchg   %ax,%ax
  104d4b:	66 90                	xchg   %ax,%ax
  104d4d:	66 90                	xchg   %ax,%ax
  104d4f:	66 90                	xchg   %ax,%ax
  104d51:	66 90                	xchg   %ax,%ax
  104d53:	66 90                	xchg   %ax,%ax
  104d55:	66 90                	xchg   %ax,%ax
  104d57:	66 90                	xchg   %ax,%ax
  104d59:	66 90                	xchg   %ax,%ax
  104d5b:	66 90                	xchg   %ax,%ax
  104d5d:	66 90                	xchg   %ax,%ax
  104d5f:	66 90                	xchg   %ax,%ax
  104d61:	66 90                	xchg   %ax,%ax
  104d63:	66 90                	xchg   %ax,%ax
  104d65:	66 90                	xchg   %ax,%ax
  104d67:	66 90                	xchg   %ax,%ax
  104d69:	66 90                	xchg   %ax,%ax
  104d6b:	66 90                	xchg   %ax,%ax
  104d6d:	66 90                	xchg   %ax,%ax
  104d6f:	66 90                	xchg   %ax,%ax
  104d71:	66 90                	xchg   %ax,%ax
  104d73:	66 90                	xchg   %ax,%ax
  104d75:	66 90                	xchg   %ax,%ax
  104d77:	66 90                	xchg   %ax,%ax
  104d79:	66 90                	xchg   %ax,%ax
  104d7b:	66 90                	xchg   %ax,%ax
  104d7d:	66 90                	xchg   %ax,%ax
  104d7f:	66 90                	xchg   %ax,%ax
  104d81:	66 90                	xchg   %ax,%ax
  104d83:	66 90                	xchg   %ax,%ax
  104d85:	66 90                	xchg   %ax,%ax
  104d87:	66 90                	xchg   %ax,%ax
  104d89:	66 90                	xchg   %ax,%ax
  104d8b:	66 90                	xchg   %ax,%ax
  104d8d:	66 90                	xchg   %ax,%ax
  104d8f:	66 90                	xchg   %ax,%ax
  104d91:	66 90                	xchg   %ax,%ax
  104d93:	66 90                	xchg   %ax,%ax
  104d95:	66 90                	xchg   %ax,%ax
  104d97:	66 90                	xchg   %ax,%ax
  104d99:	66 90                	xchg   %ax,%ax
  104d9b:	66 90                	xchg   %ax,%ax
  104d9d:	66 90                	xchg   %ax,%ax
  104d9f:	66 90                	xchg   %ax,%ax
  104da1:	66 90                	xchg   %ax,%ax
  104da3:	66 90                	xchg   %ax,%ax
  104da5:	66 90                	xchg   %ax,%ax
  104da7:	66 90                	xchg   %ax,%ax
  104da9:	66 90                	xchg   %ax,%ax
  104dab:	66 90                	xchg   %ax,%ax
  104dad:	66 90                	xchg   %ax,%ax
  104daf:	66 90                	xchg   %ax,%ax
  104db1:	66 90                	xchg   %ax,%ax
  104db3:	66 90                	xchg   %ax,%ax
  104db5:	66 90                	xchg   %ax,%ax
  104db7:	66 90                	xchg   %ax,%ax
  104db9:	66 90                	xchg   %ax,%ax
  104dbb:	66 90                	xchg   %ax,%ax
  104dbd:	66 90                	xchg   %ax,%ax
  104dbf:	66 90                	xchg   %ax,%ax
  104dc1:	66 90                	xchg   %ax,%ax
  104dc3:	66 90                	xchg   %ax,%ax
  104dc5:	66 90                	xchg   %ax,%ax
  104dc7:	66 90                	xchg   %ax,%ax
  104dc9:	66 90                	xchg   %ax,%ax
  104dcb:	66 90                	xchg   %ax,%ax
  104dcd:	66 90                	xchg   %ax,%ax
  104dcf:	66 90                	xchg   %ax,%ax
  104dd1:	66 90                	xchg   %ax,%ax
  104dd3:	66 90                	xchg   %ax,%ax
  104dd5:	66 90                	xchg   %ax,%ax
  104dd7:	66 90                	xchg   %ax,%ax
  104dd9:	66 90                	xchg   %ax,%ax
  104ddb:	66 90                	xchg   %ax,%ax
  104ddd:	66 90                	xchg   %ax,%ax
  104ddf:	66 90                	xchg   %ax,%ax
  104de1:	66 90                	xchg   %ax,%ax
  104de3:	66 90                	xchg   %ax,%ax
  104de5:	66 90                	xchg   %ax,%ax
  104de7:	66 90                	xchg   %ax,%ax
  104de9:	66 90                	xchg   %ax,%ax
  104deb:	66 90                	xchg   %ax,%ax
  104ded:	66 90                	xchg   %ax,%ax
  104def:	66 90                	xchg   %ax,%ax
  104df1:	66 90                	xchg   %ax,%ax
  104df3:	66 90                	xchg   %ax,%ax
  104df5:	66 90                	xchg   %ax,%ax
  104df7:	66 90                	xchg   %ax,%ax
  104df9:	66 90                	xchg   %ax,%ax
  104dfb:	66 90                	xchg   %ax,%ax
  104dfd:	66 90                	xchg   %ax,%ax
  104dff:	66 90                	xchg   %ax,%ax
  104e01:	66 90                	xchg   %ax,%ax
  104e03:	66 90                	xchg   %ax,%ax
  104e05:	66 90                	xchg   %ax,%ax
  104e07:	66 90                	xchg   %ax,%ax
  104e09:	66 90                	xchg   %ax,%ax
  104e0b:	66 90                	xchg   %ax,%ax
  104e0d:	66 90                	xchg   %ax,%ax
  104e0f:	66 90                	xchg   %ax,%ax
  104e11:	66 90                	xchg   %ax,%ax
  104e13:	66 90                	xchg   %ax,%ax
  104e15:	66 90                	xchg   %ax,%ax
  104e17:	66 90                	xchg   %ax,%ax
  104e19:	66 90                	xchg   %ax,%ax
  104e1b:	66 90                	xchg   %ax,%ax
  104e1d:	66 90                	xchg   %ax,%ax
  104e1f:	66 90                	xchg   %ax,%ax
  104e21:	66 90                	xchg   %ax,%ax
  104e23:	66 90                	xchg   %ax,%ax
  104e25:	66 90                	xchg   %ax,%ax
  104e27:	66 90                	xchg   %ax,%ax
  104e29:	66 90                	xchg   %ax,%ax
  104e2b:	66 90                	xchg   %ax,%ax
  104e2d:	66 90                	xchg   %ax,%ax
  104e2f:	66 90                	xchg   %ax,%ax
  104e31:	66 90                	xchg   %ax,%ax
  104e33:	66 90                	xchg   %ax,%ax
  104e35:	66 90                	xchg   %ax,%ax
  104e37:	66 90                	xchg   %ax,%ax
  104e39:	66 90                	xchg   %ax,%ax
  104e3b:	66 90                	xchg   %ax,%ax
  104e3d:	66 90                	xchg   %ax,%ax
  104e3f:	66 90                	xchg   %ax,%ax
  104e41:	66 90                	xchg   %ax,%ax
  104e43:	66 90                	xchg   %ax,%ax
  104e45:	66 90                	xchg   %ax,%ax
  104e47:	66 90                	xchg   %ax,%ax
  104e49:	66 90                	xchg   %ax,%ax
  104e4b:	66 90                	xchg   %ax,%ax
  104e4d:	66 90                	xchg   %ax,%ax
  104e4f:	66 90                	xchg   %ax,%ax
  104e51:	66 90                	xchg   %ax,%ax
  104e53:	66 90                	xchg   %ax,%ax
  104e55:	66 90                	xchg   %ax,%ax
  104e57:	66 90                	xchg   %ax,%ax
  104e59:	66 90                	xchg   %ax,%ax
  104e5b:	66 90                	xchg   %ax,%ax
  104e5d:	66 90                	xchg   %ax,%ax
  104e5f:	66 90                	xchg   %ax,%ax
  104e61:	66 90                	xchg   %ax,%ax
  104e63:	66 90                	xchg   %ax,%ax
  104e65:	66 90                	xchg   %ax,%ax
  104e67:	66 90                	xchg   %ax,%ax
  104e69:	66 90                	xchg   %ax,%ax
  104e6b:	66 90                	xchg   %ax,%ax
  104e6d:	66 90                	xchg   %ax,%ax
  104e6f:	66 90                	xchg   %ax,%ax
  104e71:	66 90                	xchg   %ax,%ax
  104e73:	66 90                	xchg   %ax,%ax
  104e75:	66 90                	xchg   %ax,%ax
  104e77:	66 90                	xchg   %ax,%ax
  104e79:	66 90                	xchg   %ax,%ax
  104e7b:	66 90                	xchg   %ax,%ax
  104e7d:	66 90                	xchg   %ax,%ax
  104e7f:	66 90                	xchg   %ax,%ax
  104e81:	66 90                	xchg   %ax,%ax
  104e83:	66 90                	xchg   %ax,%ax
  104e85:	66 90                	xchg   %ax,%ax
  104e87:	66 90                	xchg   %ax,%ax
  104e89:	66 90                	xchg   %ax,%ax
  104e8b:	66 90                	xchg   %ax,%ax
  104e8d:	66 90                	xchg   %ax,%ax
  104e8f:	66 90                	xchg   %ax,%ax
  104e91:	66 90                	xchg   %ax,%ax
  104e93:	66 90                	xchg   %ax,%ax
  104e95:	66 90                	xchg   %ax,%ax
  104e97:	66 90                	xchg   %ax,%ax
  104e99:	66 90                	xchg   %ax,%ax
  104e9b:	66 90                	xchg   %ax,%ax
  104e9d:	66 90                	xchg   %ax,%ax
  104e9f:	66 90                	xchg   %ax,%ax
  104ea1:	66 90                	xchg   %ax,%ax
  104ea3:	66 90                	xchg   %ax,%ax
  104ea5:	66 90                	xchg   %ax,%ax
  104ea7:	66 90                	xchg   %ax,%ax
  104ea9:	66 90                	xchg   %ax,%ax
  104eab:	66 90                	xchg   %ax,%ax
  104ead:	66 90                	xchg   %ax,%ax
  104eaf:	66 90                	xchg   %ax,%ax
  104eb1:	66 90                	xchg   %ax,%ax
  104eb3:	66 90                	xchg   %ax,%ax
  104eb5:	66 90                	xchg   %ax,%ax
  104eb7:	66 90                	xchg   %ax,%ax
  104eb9:	66 90                	xchg   %ax,%ax
  104ebb:	66 90                	xchg   %ax,%ax
  104ebd:	66 90                	xchg   %ax,%ax
  104ebf:	66 90                	xchg   %ax,%ax
  104ec1:	66 90                	xchg   %ax,%ax
  104ec3:	66 90                	xchg   %ax,%ax
  104ec5:	66 90                	xchg   %ax,%ax
  104ec7:	66 90                	xchg   %ax,%ax
  104ec9:	66 90                	xchg   %ax,%ax
  104ecb:	66 90                	xchg   %ax,%ax
  104ecd:	66 90                	xchg   %ax,%ax
  104ecf:	66 90                	xchg   %ax,%ax
  104ed1:	66 90                	xchg   %ax,%ax
  104ed3:	66 90                	xchg   %ax,%ax
  104ed5:	66 90                	xchg   %ax,%ax
  104ed7:	66 90                	xchg   %ax,%ax
  104ed9:	66 90                	xchg   %ax,%ax
  104edb:	66 90                	xchg   %ax,%ax
  104edd:	66 90                	xchg   %ax,%ax
  104edf:	66 90                	xchg   %ax,%ax
  104ee1:	66 90                	xchg   %ax,%ax
  104ee3:	66 90                	xchg   %ax,%ax
  104ee5:	66 90                	xchg   %ax,%ax
  104ee7:	66 90                	xchg   %ax,%ax
  104ee9:	66 90                	xchg   %ax,%ax
  104eeb:	66 90                	xchg   %ax,%ax
  104eed:	66 90                	xchg   %ax,%ax
  104eef:	66 90                	xchg   %ax,%ax
  104ef1:	66 90                	xchg   %ax,%ax
  104ef3:	66 90                	xchg   %ax,%ax
  104ef5:	66 90                	xchg   %ax,%ax
  104ef7:	66 90                	xchg   %ax,%ax
  104ef9:	66 90                	xchg   %ax,%ax
  104efb:	66 90                	xchg   %ax,%ax
  104efd:	66 90                	xchg   %ax,%ax
  104eff:	66 90                	xchg   %ax,%ax
  104f01:	66 90                	xchg   %ax,%ax
  104f03:	66 90                	xchg   %ax,%ax
  104f05:	66 90                	xchg   %ax,%ax
  104f07:	66 90                	xchg   %ax,%ax
  104f09:	66 90                	xchg   %ax,%ax
  104f0b:	66 90                	xchg   %ax,%ax
  104f0d:	66 90                	xchg   %ax,%ax
  104f0f:	66 90                	xchg   %ax,%ax
  104f11:	66 90                	xchg   %ax,%ax
  104f13:	66 90                	xchg   %ax,%ax
  104f15:	66 90                	xchg   %ax,%ax
  104f17:	66 90                	xchg   %ax,%ax
  104f19:	66 90                	xchg   %ax,%ax
  104f1b:	66 90                	xchg   %ax,%ax
  104f1d:	66 90                	xchg   %ax,%ax
  104f1f:	66 90                	xchg   %ax,%ax
  104f21:	66 90                	xchg   %ax,%ax
  104f23:	66 90                	xchg   %ax,%ax
  104f25:	66 90                	xchg   %ax,%ax
  104f27:	66 90                	xchg   %ax,%ax
  104f29:	66 90                	xchg   %ax,%ax
  104f2b:	66 90                	xchg   %ax,%ax
  104f2d:	66 90                	xchg   %ax,%ax
  104f2f:	66 90                	xchg   %ax,%ax
  104f31:	66 90                	xchg   %ax,%ax
  104f33:	66 90                	xchg   %ax,%ax
  104f35:	66 90                	xchg   %ax,%ax
  104f37:	66 90                	xchg   %ax,%ax
  104f39:	66 90                	xchg   %ax,%ax
  104f3b:	66 90                	xchg   %ax,%ax
  104f3d:	66 90                	xchg   %ax,%ax
  104f3f:	66 90                	xchg   %ax,%ax
  104f41:	66 90                	xchg   %ax,%ax
  104f43:	66 90                	xchg   %ax,%ax
  104f45:	66 90                	xchg   %ax,%ax
  104f47:	66 90                	xchg   %ax,%ax
  104f49:	66 90                	xchg   %ax,%ax
  104f4b:	66 90                	xchg   %ax,%ax
  104f4d:	66 90                	xchg   %ax,%ax
  104f4f:	66 90                	xchg   %ax,%ax
  104f51:	66 90                	xchg   %ax,%ax
  104f53:	66 90                	xchg   %ax,%ax
  104f55:	66 90                	xchg   %ax,%ax
  104f57:	66 90                	xchg   %ax,%ax
  104f59:	66 90                	xchg   %ax,%ax
  104f5b:	66 90                	xchg   %ax,%ax
  104f5d:	66 90                	xchg   %ax,%ax
  104f5f:	66 90                	xchg   %ax,%ax
  104f61:	66 90                	xchg   %ax,%ax
  104f63:	66 90                	xchg   %ax,%ax
  104f65:	66 90                	xchg   %ax,%ax
  104f67:	66 90                	xchg   %ax,%ax
  104f69:	66 90                	xchg   %ax,%ax
  104f6b:	66 90                	xchg   %ax,%ax
  104f6d:	66 90                	xchg   %ax,%ax
  104f6f:	66 90                	xchg   %ax,%ax
  104f71:	66 90                	xchg   %ax,%ax
  104f73:	66 90                	xchg   %ax,%ax
  104f75:	66 90                	xchg   %ax,%ax
  104f77:	66 90                	xchg   %ax,%ax
  104f79:	66 90                	xchg   %ax,%ax
  104f7b:	66 90                	xchg   %ax,%ax
  104f7d:	66 90                	xchg   %ax,%ax
  104f7f:	66 90                	xchg   %ax,%ax
  104f81:	66 90                	xchg   %ax,%ax
  104f83:	66 90                	xchg   %ax,%ax
  104f85:	66 90                	xchg   %ax,%ax
  104f87:	66 90                	xchg   %ax,%ax
  104f89:	66 90                	xchg   %ax,%ax
  104f8b:	66 90                	xchg   %ax,%ax
  104f8d:	66 90                	xchg   %ax,%ax
  104f8f:	66 90                	xchg   %ax,%ax
  104f91:	66 90                	xchg   %ax,%ax
  104f93:	66 90                	xchg   %ax,%ax
  104f95:	66 90                	xchg   %ax,%ax
  104f97:	66 90                	xchg   %ax,%ax
  104f99:	66 90                	xchg   %ax,%ax
  104f9b:	66 90                	xchg   %ax,%ax
  104f9d:	66 90                	xchg   %ax,%ax
  104f9f:	66 90                	xchg   %ax,%ax
  104fa1:	66 90                	xchg   %ax,%ax
  104fa3:	66 90                	xchg   %ax,%ax
  104fa5:	66 90                	xchg   %ax,%ax
  104fa7:	66 90                	xchg   %ax,%ax
  104fa9:	66 90                	xchg   %ax,%ax
  104fab:	66 90                	xchg   %ax,%ax
  104fad:	66 90                	xchg   %ax,%ax
  104faf:	66 90                	xchg   %ax,%ax
  104fb1:	66 90                	xchg   %ax,%ax
  104fb3:	66 90                	xchg   %ax,%ax
  104fb5:	66 90                	xchg   %ax,%ax
  104fb7:	66 90                	xchg   %ax,%ax
  104fb9:	66 90                	xchg   %ax,%ax
  104fbb:	66 90                	xchg   %ax,%ax
  104fbd:	66 90                	xchg   %ax,%ax
  104fbf:	66 90                	xchg   %ax,%ax
  104fc1:	66 90                	xchg   %ax,%ax
  104fc3:	66 90                	xchg   %ax,%ax
  104fc5:	66 90                	xchg   %ax,%ax
  104fc7:	66 90                	xchg   %ax,%ax
  104fc9:	66 90                	xchg   %ax,%ax
  104fcb:	66 90                	xchg   %ax,%ax
  104fcd:	66 90                	xchg   %ax,%ax
  104fcf:	66 90                	xchg   %ax,%ax
  104fd1:	66 90                	xchg   %ax,%ax
  104fd3:	66 90                	xchg   %ax,%ax
  104fd5:	66 90                	xchg   %ax,%ax
  104fd7:	66 90                	xchg   %ax,%ax
  104fd9:	66 90                	xchg   %ax,%ax
  104fdb:	66 90                	xchg   %ax,%ax
  104fdd:	66 90                	xchg   %ax,%ax
  104fdf:	66 90                	xchg   %ax,%ax
  104fe1:	66 90                	xchg   %ax,%ax
  104fe3:	66 90                	xchg   %ax,%ax
  104fe5:	66 90                	xchg   %ax,%ax
  104fe7:	66 90                	xchg   %ax,%ax
  104fe9:	66 90                	xchg   %ax,%ax
  104feb:	66 90                	xchg   %ax,%ax
  104fed:	66 90                	xchg   %ax,%ax
  104fef:	66 90                	xchg   %ax,%ax
  104ff1:	66 90                	xchg   %ax,%ax
  104ff3:	66 90                	xchg   %ax,%ax
  104ff5:	66 90                	xchg   %ax,%ax
  104ff7:	66 90                	xchg   %ax,%ax
  104ff9:	66 90                	xchg   %ax,%ax
  104ffb:	66 90                	xchg   %ax,%ax
  104ffd:	66 90                	xchg   %ax,%ax
  104fff:	90                   	nop

Disassembly of section .text.__x86.get_pc_thunk.bx:

00105000 <__x86.get_pc_thunk.bx>:
  105000:	8b 1c 24             	mov    (%esp),%ebx
  105003:	c3                   	ret    

Disassembly of section .text.__x86.get_pc_thunk.ax:

00105004 <__x86.get_pc_thunk.ax>:
  105004:	8b 04 24             	mov    (%esp),%eax
  105007:	c3                   	ret    

Disassembly of section .text.__x86.get_pc_thunk.cx:

00105008 <__x86.get_pc_thunk.cx>:
  105008:	8b 0c 24             	mov    (%esp),%ecx
  10500b:	c3                   	ret    

Disassembly of section .text.__x86.get_pc_thunk.dx:

0010500c <__x86.get_pc_thunk.dx>:
  10500c:	8b 14 24             	mov    (%esp),%edx
  10500f:	c3                   	ret    

Disassembly of section .rodata:

00105010 <__kernel_rodata_section_start>:
  105010:	51                   	push   %ecx
  105011:	75 61                	jne    105074 <__kernel_rodata_section_start+0x64>
  105013:	6e                   	outsb  %ds:(%esi),(%dx)
  105014:	74 75                	je     10508b <__kernel_rodata_section_start+0x7b>
  105016:	6d                   	insl   (%dx),%es:(%edi)
  105017:	4f                   	dec    %edi
  105018:	53                   	push   %ebx
  105019:	20 68 61             	and    %ch,0x61(%eax)
  10501c:	73 20                	jae    10503e <__kernel_rodata_section_start+0x2e>
  10501e:	62 6f 6f             	bound  %ebp,0x6f(%edi)
  105021:	74 20                	je     105043 <__kernel_rodata_section_start+0x33>
  105023:	75 70                	jne    105095 <__kernel_rodata_section_start+0x85>
  105025:	21 0a                	and    %ecx,(%edx)
  105027:	00 50 72             	add    %dl,0x72(%eax)
  10502a:	65 73 73             	gs jae 1050a0 <__kernel_rodata_section_start+0x90>
  10502d:	20 61 6e             	and    %ah,0x6e(%ecx)
  105030:	79 20                	jns    105052 <__kernel_rodata_section_start+0x42>
  105032:	6b 65 79 20          	imul   $0x20,0x79(%ebp),%esp
  105036:	74 6f                	je     1050a7 <__kernel_rodata_section_start+0x97>
  105038:	20 63 6f             	and    %ah,0x6f(%ebx)
  10503b:	6e                   	outsb  %ds:(%esi),(%dx)
  10503c:	74 69                	je     1050a7 <__kernel_rodata_section_start+0x97>
  10503e:	6e                   	outsb  %ds:(%esi),(%dx)
  10503f:	75 65                	jne    1050a6 <__kernel_rodata_section_start+0x96>
  105041:	20 62 6f             	and    %ah,0x6f(%edx)
  105044:	6f                   	outsl  %ds:(%esi),(%dx)
  105045:	74 69                	je     1050b0 <__kernel_rodata_section_start+0xa0>
  105047:	6e                   	outsb  %ds:(%esi),(%dx)
  105048:	67 20 69 6e          	and    %ch,0x6e(%bx,%di)
  10504c:	74 6f                	je     1050bd <__kernel_rodata_section_start+0xad>
  10504e:	20 75 73             	and    %dh,0x73(%ebp)
  105051:	65 72 73             	gs jb  1050c7 <__kernel_rodata_section_start+0xb7>
  105054:	70 61                	jo     1050b7 <__kernel_rodata_section_start+0xa7>
  105056:	63 65 21             	arpl   %sp,0x21(%ebp)
  105059:	0a 48 69             	or     0x69(%eax),%cl
  10505c:	74 20                	je     10507e <__kernel_rodata_section_start+0x6e>
  10505e:	27                   	daa    
  10505f:	6b 27 20             	imul   $0x20,(%edi),%esp
  105062:	74 6f                	je     1050d3 <__kernel_rodata_section_start+0xc3>
  105064:	20 65 6e             	and    %ah,0x6e(%ebp)
  105067:	74 65                	je     1050ce <__kernel_rodata_section_start+0xbe>
  105069:	72 20                	jb     10508b <__kernel_rodata_section_start+0x7b>
  10506b:	6b 65 72 6e          	imul   $0x6e,0x72(%ebp),%esp
  10506f:	65 6c                	gs insb (%dx),%es:(%edi)
  105071:	2d 6d 6f 64 65       	sub    $0x65646f6d,%eax
  105076:	2e 2e 2e 0a 00       	cs cs or %cs:(%eax),%al
  10507b:	00 0a                	add    %cl,(%edx)
  10507d:	42                   	inc    %edx
  10507e:	61                   	popa   
  10507f:	69 6c 69 6e 67 20 6f 	imul   $0x756f2067,0x6e(%ecx,%ebp,2),%ebp
  105086:	75 
  105087:	74 21                	je     1050aa <__kernel_rodata_section_start+0x9a>
  105089:	0a 47 6f             	or     0x6f(%edi),%al
  10508c:	6f                   	outsl  %ds:(%esi),(%dx)
  10508d:	64 20 6c 75 63       	and    %ch,%fs:0x63(%ebp,%esi,2)
  105092:	6b 20 79             	imul   $0x79,(%eax),%esp
  105095:	6f                   	outsl  %ds:(%esi),(%dx)
  105096:	75 27                	jne    1050bf <__kernel_rodata_section_start+0xaf>
  105098:	72 65                	jb     1050ff <__kernel_rodata_section_start+0xef>
  10509a:	20 6f 6e             	and    %ch,0x6e(%edi)
  10509d:	20 79 6f             	and    %bh,0x6f(%ecx)
  1050a0:	75 72                	jne    105114 <__kernel_rodata_section_start+0x104>
  1050a2:	20 6f 77             	and    %ch,0x77(%edi)
  1050a5:	6e                   	outsb  %ds:(%esi),(%dx)
  1050a6:	2e 2e 2e 0a 0a       	cs cs or %cs:(%edx),%cl
  1050ab:	00 0a                	add    %cl,(%edx)
  1050ad:	00 42 6f             	add    %al,0x6f(%edx)
  1050b0:	6f                   	outsl  %ds:(%esi),(%dx)
  1050b1:	74 69                	je     10511c <__kernel_rodata_section_start+0x10c>
  1050b3:	6e                   	outsb  %ds:(%esi),(%dx)
  1050b4:	67 20 69 6e          	and    %ch,0x6e(%bx,%di)
  1050b8:	74 6f                	je     105129 <__kernel_rodata_section_start+0x119>
  1050ba:	20 75 73             	and    %dh,0x73(%ebp)
  1050bd:	65 72 73             	gs jb  105133 <__kernel_rodata_section_start+0x123>
  1050c0:	70 61                	jo     105123 <__kernel_rodata_section_start+0x113>
  1050c2:	63 65 2e             	arpl   %sp,0x2e(%ebp)
  1050c5:	2e 2e 0a 00          	cs or  %cs:(%eax),%al
  1050c9:	00 00                	add    %al,(%eax)
  1050cb:	00 49 6e             	add    %cl,0x6e(%ecx)
  1050ce:	69 74 69 61 6c 69 7a 	imul   $0x697a696c,0x61(%ecx,%ebp,2),%esi
  1050d5:	69 
  1050d6:	6e                   	outsb  %ds:(%esi),(%dx)
  1050d7:	67 20 70 72          	and    %dh,0x72(%bx,%si)
  1050db:	69 6e 74 20 64 72 69 	imul   $0x69726420,0x74(%esi),%ebp
  1050e2:	76 65                	jbe    105149 <__kernel_rodata_section_start+0x139>
  1050e4:	72 73                	jb     105159 <__kernel_rodata_section_start+0x149>
  1050e6:	00 20                	add    %ah,(%eax)
  1050e8:	50                   	push   %eax
  1050e9:	72 69                	jb     105154 <__kernel_rodata_section_start+0x144>
  1050eb:	6e                   	outsb  %ds:(%esi),(%dx)
  1050ec:	74 20                	je     10510e <__kernel_rodata_section_start+0xfe>
  1050ee:	20 00                	and    %al,(%eax)
  1050f0:	54                   	push   %esp
  1050f1:	7c ff                	jl     1050f2 <__kernel_rodata_section_start+0xe2>
  1050f3:	ff e2                	jmp    *%edx
  1050f5:	7d ff                	jge    1050f6 <__kernel_rodata_section_start+0xe6>
  1050f7:	ff e2                	jmp    *%edx
  1050f9:	7d ff                	jge    1050fa <__kernel_rodata_section_start+0xea>
  1050fb:	ff e2                	jmp    *%edx
  1050fd:	7d ff                	jge    1050fe <__kernel_rodata_section_start+0xee>
  1050ff:	ff e2                	jmp    *%edx
  105101:	7d ff                	jge    105102 <__kernel_rodata_section_start+0xf2>
  105103:	ff e2                	jmp    *%edx
  105105:	7d ff                	jge    105106 <__kernel_rodata_section_start+0xf6>
  105107:	ff e2                	jmp    *%edx
  105109:	7d ff                	jge    10510a <__kernel_rodata_section_start+0xfa>
  10510b:	ff e2                	jmp    *%edx
  10510d:	7d ff                	jge    10510e <__kernel_rodata_section_start+0xfe>
  10510f:	ff e2                	jmp    *%edx
  105111:	7d ff                	jge    105112 <__kernel_rodata_section_start+0x102>
  105113:	ff e2                	jmp    *%edx
  105115:	7d ff                	jge    105116 <__kernel_rodata_section_start+0x106>
  105117:	ff e2                	jmp    *%edx
  105119:	7d ff                	jge    10511a <__kernel_rodata_section_start+0x10a>
  10511b:	ff e2                	jmp    *%edx
  10511d:	7d ff                	jge    10511e <__kernel_rodata_section_start+0x10e>
  10511f:	ff e2                	jmp    *%edx
  105121:	7d ff                	jge    105122 <__kernel_rodata_section_start+0x112>
  105123:	ff e2                	jmp    *%edx
  105125:	7d ff                	jge    105126 <__kernel_rodata_section_start+0x116>
  105127:	ff e2                	jmp    *%edx
  105129:	7d ff                	jge    10512a <__kernel_rodata_section_start+0x11a>
  10512b:	ff e2                	jmp    *%edx
  10512d:	7d ff                	jge    10512e <__kernel_rodata_section_start+0x11e>
  10512f:	ff e2                	jmp    *%edx
  105131:	7d ff                	jge    105132 <__kernel_rodata_section_start+0x122>
  105133:	ff e2                	jmp    *%edx
  105135:	7d ff                	jge    105136 <__kernel_rodata_section_start+0x126>
  105137:	ff e2                	jmp    *%edx
  105139:	7d ff                	jge    10513a <__kernel_rodata_section_start+0x12a>
  10513b:	ff e2                	jmp    *%edx
  10513d:	7d ff                	jge    10513e <__kernel_rodata_section_start+0x12e>
  10513f:	ff e2                	jmp    *%edx
  105141:	7d ff                	jge    105142 <__kernel_rodata_section_start+0x132>
  105143:	ff e2                	jmp    *%edx
  105145:	7d ff                	jge    105146 <__kernel_rodata_section_start+0x136>
  105147:	ff e2                	jmp    *%edx
  105149:	7d ff                	jge    10514a <__kernel_rodata_section_start+0x13a>
  10514b:	ff e2                	jmp    *%edx
  10514d:	7d ff                	jge    10514e <__kernel_rodata_section_start+0x13e>
  10514f:	ff e2                	jmp    *%edx
  105151:	7d ff                	jge    105152 <__kernel_rodata_section_start+0x142>
  105153:	ff e2                	jmp    *%edx
  105155:	7d ff                	jge    105156 <__kernel_rodata_section_start+0x146>
  105157:	ff e2                	jmp    *%edx
  105159:	7d ff                	jge    10515a <__kernel_rodata_section_start+0x14a>
  10515b:	ff e2                	jmp    *%edx
  10515d:	7d ff                	jge    10515e <__kernel_rodata_section_start+0x14e>
  10515f:	ff e2                	jmp    *%edx
  105161:	7d ff                	jge    105162 <__kernel_rodata_section_start+0x152>
  105163:	ff e2                	jmp    *%edx
  105165:	7d ff                	jge    105166 <__kernel_rodata_section_start+0x156>
  105167:	ff 66 7d             	jmp    *0x7d(%esi)
  10516a:	ff                   	(bad)  
  10516b:	ff 66 7c             	jmp    *0x7c(%esi)
  10516e:	ff                   	(bad)  
  10516f:	ff e2                	jmp    *%edx
  105171:	7d ff                	jge    105172 <__kernel_rodata_section_start+0x162>
  105173:	ff e2                	jmp    *%edx
  105175:	7d ff                	jge    105176 <__kernel_rodata_section_start+0x166>
  105177:	ff e2                	jmp    *%edx
  105179:	7d ff                	jge    10517a <__kernel_rodata_section_start+0x16a>
  10517b:	ff 66 7c             	jmp    *0x7c(%esi)
  10517e:	ff                   	(bad)  
  10517f:	ff 66 7c             	jmp    *0x7c(%esi)
  105182:	ff                   	(bad)  
  105183:	ff e2                	jmp    *%edx
  105185:	7d ff                	jge    105186 <__kernel_rodata_section_start+0x176>
  105187:	ff e2                	jmp    *%edx
  105189:	7d ff                	jge    10518a <__kernel_rodata_section_start+0x17a>
  10518b:	ff e2                	jmp    *%edx
  10518d:	7d ff                	jge    10518e <__kernel_rodata_section_start+0x17e>
  10518f:	ff e2                	jmp    *%edx
  105191:	7d ff                	jge    105192 <__kernel_rodata_section_start+0x182>
  105193:	ff e2                	jmp    *%edx
  105195:	7d ff                	jge    105196 <__kernel_rodata_section_start+0x186>
  105197:	ff 66 7c             	jmp    *0x7c(%esi)
  10519a:	ff                   	(bad)  
  10519b:	ff e2                	jmp    *%edx
  10519d:	7d ff                	jge    10519e <__kernel_rodata_section_start+0x18e>
  10519f:	ff e2                	jmp    *%edx
  1051a1:	7d ff                	jge    1051a2 <__kernel_rodata_section_start+0x192>
  1051a3:	ff e2                	jmp    *%edx
  1051a5:	7d ff                	jge    1051a6 <__kernel_rodata_section_start+0x196>
  1051a7:	ff 86 7d ff ff e2    	incl   -0x1d000083(%esi)
  1051ad:	7d ff                	jge    1051ae <__kernel_rodata_section_start+0x19e>
  1051af:	ff e2                	jmp    *%edx
  1051b1:	7d ff                	jge    1051b2 <__kernel_rodata_section_start+0x1a2>
  1051b3:	ff e2                	jmp    *%edx
  1051b5:	7d ff                	jge    1051b6 <__kernel_rodata_section_start+0x1a6>
  1051b7:	ff e2                	jmp    *%edx
  1051b9:	7d ff                	jge    1051ba <__kernel_rodata_section_start+0x1aa>
  1051bb:	ff 66 7c             	jmp    *0x7c(%esi)
  1051be:	ff                   	(bad)  
  1051bf:	ff e2                	jmp    *%edx
  1051c1:	7d ff                	jge    1051c2 <__kernel_rodata_section_start+0x1b2>
  1051c3:	ff e2                	jmp    *%edx
  1051c5:	7d ff                	jge    1051c6 <__kernel_rodata_section_start+0x1b6>
  1051c7:	ff e2                	jmp    *%edx
  1051c9:	7d ff                	jge    1051ca <__kernel_rodata_section_start+0x1ba>
  1051cb:	ff e2                	jmp    *%edx
  1051cd:	7d ff                	jge    1051ce <__kernel_rodata_section_start+0x1be>
  1051cf:	ff e2                	jmp    *%edx
  1051d1:	7d ff                	jge    1051d2 <__kernel_rodata_section_start+0x1c2>
  1051d3:	ff e2                	jmp    *%edx
  1051d5:	7d ff                	jge    1051d6 <__kernel_rodata_section_start+0x1c6>
  1051d7:	ff e2                	jmp    *%edx
  1051d9:	7d ff                	jge    1051da <__kernel_rodata_section_start+0x1ca>
  1051db:	ff e2                	jmp    *%edx
  1051dd:	7d ff                	jge    1051de <__kernel_rodata_section_start+0x1ce>
  1051df:	ff e2                	jmp    *%edx
  1051e1:	7d ff                	jge    1051e2 <__kernel_rodata_section_start+0x1d2>
  1051e3:	ff e2                	jmp    *%edx
  1051e5:	7d ff                	jge    1051e6 <__kernel_rodata_section_start+0x1d6>
  1051e7:	ff 66 7d             	jmp    *0x7d(%esi)
  1051ea:	ff                   	(bad)  
  1051eb:	ff 66 7c             	jmp    *0x7c(%esi)
  1051ee:	ff                   	(bad)  
  1051ef:	ff e2                	jmp    *%edx
  1051f1:	7d ff                	jge    1051f2 <__kernel_rodata_section_start+0x1e2>
  1051f3:	ff e2                	jmp    *%edx
  1051f5:	7d ff                	jge    1051f6 <__kernel_rodata_section_start+0x1e6>
  1051f7:	ff e2                	jmp    *%edx
  1051f9:	7d ff                	jge    1051fa <__kernel_rodata_section_start+0x1ea>
  1051fb:	ff 66 7c             	jmp    *0x7c(%esi)
  1051fe:	ff                   	(bad)  
  1051ff:	ff 66 7c             	jmp    *0x7c(%esi)
  105202:	ff                   	(bad)  
  105203:	ff e2                	jmp    *%edx
  105205:	7d ff                	jge    105206 <__kernel_rodata_section_start+0x1f6>
  105207:	ff e2                	jmp    *%edx
  105209:	7d ff                	jge    10520a <__kernel_rodata_section_start+0x1fa>
  10520b:	ff e2                	jmp    *%edx
  10520d:	7d ff                	jge    10520e <__kernel_rodata_section_start+0x1fe>
  10520f:	ff e2                	jmp    *%edx
  105211:	7d ff                	jge    105212 <__kernel_rodata_section_start+0x202>
  105213:	ff e2                	jmp    *%edx
  105215:	7d ff                	jge    105216 <__kernel_rodata_section_start+0x206>
  105217:	ff 66 7c             	jmp    *0x7c(%esi)
  10521a:	ff                   	(bad)  
  10521b:	ff e2                	jmp    *%edx
  10521d:	7d ff                	jge    10521e <__kernel_rodata_section_start+0x20e>
  10521f:	ff e2                	jmp    *%edx
  105221:	7d ff                	jge    105222 <__kernel_rodata_section_start+0x212>
  105223:	ff e2                	jmp    *%edx
  105225:	7d ff                	jge    105226 <__kernel_rodata_section_start+0x216>
  105227:	ff 86 7d ff ff e2    	incl   -0x1d000083(%esi)
  10522d:	7d ff                	jge    10522e <__kernel_rodata_section_start+0x21e>
  10522f:	ff e2                	jmp    *%edx
  105231:	7d ff                	jge    105232 <__kernel_rodata_section_start+0x222>
  105233:	ff e2                	jmp    *%edx
  105235:	7d ff                	jge    105236 <__kernel_rodata_section_start+0x226>
  105237:	ff e2                	jmp    *%edx
  105239:	7d ff                	jge    10523a <__kernel_rodata_section_start+0x22a>
  10523b:	ff 66 7c             	jmp    *0x7c(%esi)
  10523e:	ff                   	(bad)  
  10523f:	ff 6e 7e             	ljmp   *0x7e(%esi)
  105242:	ff                   	(bad)  
  105243:	ff                   	(bad)  
  105244:	fc                   	cld    
  105245:	7f ff                	jg     105246 <__kernel_rodata_section_start+0x236>
  105247:	ff                   	(bad)  
  105248:	fc                   	cld    
  105249:	7f ff                	jg     10524a <__kernel_rodata_section_start+0x23a>
  10524b:	ff                   	(bad)  
  10524c:	fc                   	cld    
  10524d:	7f ff                	jg     10524e <__kernel_rodata_section_start+0x23e>
  10524f:	ff                   	(bad)  
  105250:	fc                   	cld    
  105251:	7f ff                	jg     105252 <__kernel_rodata_section_start+0x242>
  105253:	ff                   	(bad)  
  105254:	fc                   	cld    
  105255:	7f ff                	jg     105256 <__kernel_rodata_section_start+0x246>
  105257:	ff                   	(bad)  
  105258:	fc                   	cld    
  105259:	7f ff                	jg     10525a <__kernel_rodata_section_start+0x24a>
  10525b:	ff                   	(bad)  
  10525c:	fc                   	cld    
  10525d:	7f ff                	jg     10525e <__kernel_rodata_section_start+0x24e>
  10525f:	ff                   	(bad)  
  105260:	fc                   	cld    
  105261:	7f ff                	jg     105262 <__kernel_rodata_section_start+0x252>
  105263:	ff                   	(bad)  
  105264:	fc                   	cld    
  105265:	7f ff                	jg     105266 <__kernel_rodata_section_start+0x256>
  105267:	ff                   	(bad)  
  105268:	fc                   	cld    
  105269:	7f ff                	jg     10526a <__kernel_rodata_section_start+0x25a>
  10526b:	ff                   	(bad)  
  10526c:	fc                   	cld    
  10526d:	7f ff                	jg     10526e <__kernel_rodata_section_start+0x25e>
  10526f:	ff                   	(bad)  
  105270:	fc                   	cld    
  105271:	7f ff                	jg     105272 <__kernel_rodata_section_start+0x262>
  105273:	ff                   	(bad)  
  105274:	fc                   	cld    
  105275:	7f ff                	jg     105276 <__kernel_rodata_section_start+0x266>
  105277:	ff                   	(bad)  
  105278:	fc                   	cld    
  105279:	7f ff                	jg     10527a <__kernel_rodata_section_start+0x26a>
  10527b:	ff                   	(bad)  
  10527c:	fc                   	cld    
  10527d:	7f ff                	jg     10527e <__kernel_rodata_section_start+0x26e>
  10527f:	ff                   	(bad)  
  105280:	fc                   	cld    
  105281:	7f ff                	jg     105282 <__kernel_rodata_section_start+0x272>
  105283:	ff                   	(bad)  
  105284:	fc                   	cld    
  105285:	7f ff                	jg     105286 <__kernel_rodata_section_start+0x276>
  105287:	ff                   	(bad)  
  105288:	fc                   	cld    
  105289:	7f ff                	jg     10528a <__kernel_rodata_section_start+0x27a>
  10528b:	ff                   	(bad)  
  10528c:	fc                   	cld    
  10528d:	7f ff                	jg     10528e <__kernel_rodata_section_start+0x27e>
  10528f:	ff                   	(bad)  
  105290:	fc                   	cld    
  105291:	7f ff                	jg     105292 <__kernel_rodata_section_start+0x282>
  105293:	ff                   	(bad)  
  105294:	fc                   	cld    
  105295:	7f ff                	jg     105296 <__kernel_rodata_section_start+0x286>
  105297:	ff                   	(bad)  
  105298:	fc                   	cld    
  105299:	7f ff                	jg     10529a <__kernel_rodata_section_start+0x28a>
  10529b:	ff                   	(bad)  
  10529c:	fc                   	cld    
  10529d:	7f ff                	jg     10529e <__kernel_rodata_section_start+0x28e>
  10529f:	ff                   	(bad)  
  1052a0:	fc                   	cld    
  1052a1:	7f ff                	jg     1052a2 <__kernel_rodata_section_start+0x292>
  1052a3:	ff                   	(bad)  
  1052a4:	fc                   	cld    
  1052a5:	7f ff                	jg     1052a6 <__kernel_rodata_section_start+0x296>
  1052a7:	ff                   	(bad)  
  1052a8:	fc                   	cld    
  1052a9:	7f ff                	jg     1052aa <__kernel_rodata_section_start+0x29a>
  1052ab:	ff                   	(bad)  
  1052ac:	fc                   	cld    
  1052ad:	7f ff                	jg     1052ae <__kernel_rodata_section_start+0x29e>
  1052af:	ff                   	(bad)  
  1052b0:	fc                   	cld    
  1052b1:	7f ff                	jg     1052b2 <__kernel_rodata_section_start+0x2a2>
  1052b3:	ff                   	(bad)  
  1052b4:	fc                   	cld    
  1052b5:	7f ff                	jg     1052b6 <__kernel_rodata_section_start+0x2a6>
  1052b7:	ff 80 7f ff ff 80    	incl   -0x7f000081(%eax)
  1052bd:	7e ff                	jle    1052be <__kernel_rodata_section_start+0x2ae>
  1052bf:	ff                   	(bad)  
  1052c0:	fc                   	cld    
  1052c1:	7f ff                	jg     1052c2 <__kernel_rodata_section_start+0x2b2>
  1052c3:	ff                   	(bad)  
  1052c4:	fc                   	cld    
  1052c5:	7f ff                	jg     1052c6 <__kernel_rodata_section_start+0x2b6>
  1052c7:	ff                   	(bad)  
  1052c8:	fc                   	cld    
  1052c9:	7f ff                	jg     1052ca <__kernel_rodata_section_start+0x2ba>
  1052cb:	ff 80 7e ff ff 80    	incl   -0x7f000082(%eax)
  1052d1:	7e ff                	jle    1052d2 <__kernel_rodata_section_start+0x2c2>
  1052d3:	ff                   	(bad)  
  1052d4:	fc                   	cld    
  1052d5:	7f ff                	jg     1052d6 <__kernel_rodata_section_start+0x2c6>
  1052d7:	ff                   	(bad)  
  1052d8:	fc                   	cld    
  1052d9:	7f ff                	jg     1052da <__kernel_rodata_section_start+0x2ca>
  1052db:	ff                   	(bad)  
  1052dc:	fc                   	cld    
  1052dd:	7f ff                	jg     1052de <__kernel_rodata_section_start+0x2ce>
  1052df:	ff                   	(bad)  
  1052e0:	fc                   	cld    
  1052e1:	7f ff                	jg     1052e2 <__kernel_rodata_section_start+0x2d2>
  1052e3:	ff                   	(bad)  
  1052e4:	fc                   	cld    
  1052e5:	7f ff                	jg     1052e6 <__kernel_rodata_section_start+0x2d6>
  1052e7:	ff 80 7e ff ff fc    	incl   -0x3000082(%eax)
  1052ed:	7f ff                	jg     1052ee <__kernel_rodata_section_start+0x2de>
  1052ef:	ff                   	(bad)  
  1052f0:	fc                   	cld    
  1052f1:	7f ff                	jg     1052f2 <__kernel_rodata_section_start+0x2e2>
  1052f3:	ff                   	(bad)  
  1052f4:	fc                   	cld    
  1052f5:	7f ff                	jg     1052f6 <__kernel_rodata_section_start+0x2e6>
  1052f7:	ff a0 7f ff ff fc    	jmp    *-0x3000081(%eax)
  1052fd:	7f ff                	jg     1052fe <__kernel_rodata_section_start+0x2ee>
  1052ff:	ff                   	(bad)  
  105300:	fc                   	cld    
  105301:	7f ff                	jg     105302 <__kernel_rodata_section_start+0x2f2>
  105303:	ff                   	(bad)  
  105304:	fc                   	cld    
  105305:	7f ff                	jg     105306 <__kernel_rodata_section_start+0x2f6>
  105307:	ff                   	(bad)  
  105308:	fc                   	cld    
  105309:	7f ff                	jg     10530a <__kernel_rodata_section_start+0x2fa>
  10530b:	ff 80 7e ff ff fc    	incl   -0x3000082(%eax)
  105311:	7f ff                	jg     105312 <__kernel_rodata_section_start+0x302>
  105313:	ff                   	(bad)  
  105314:	fc                   	cld    
  105315:	7f ff                	jg     105316 <__kernel_rodata_section_start+0x306>
  105317:	ff                   	(bad)  
  105318:	fc                   	cld    
  105319:	7f ff                	jg     10531a <__kernel_rodata_section_start+0x30a>
  10531b:	ff                   	(bad)  
  10531c:	fc                   	cld    
  10531d:	7f ff                	jg     10531e <__kernel_rodata_section_start+0x30e>
  10531f:	ff                   	(bad)  
  105320:	fc                   	cld    
  105321:	7f ff                	jg     105322 <__kernel_rodata_section_start+0x312>
  105323:	ff                   	(bad)  
  105324:	fc                   	cld    
  105325:	7f ff                	jg     105326 <__kernel_rodata_section_start+0x316>
  105327:	ff                   	(bad)  
  105328:	fc                   	cld    
  105329:	7f ff                	jg     10532a <__kernel_rodata_section_start+0x31a>
  10532b:	ff                   	(bad)  
  10532c:	fc                   	cld    
  10532d:	7f ff                	jg     10532e <__kernel_rodata_section_start+0x31e>
  10532f:	ff                   	(bad)  
  105330:	fc                   	cld    
  105331:	7f ff                	jg     105332 <__kernel_rodata_section_start+0x322>
  105333:	ff                   	(bad)  
  105334:	fc                   	cld    
  105335:	7f ff                	jg     105336 <__kernel_rodata_section_start+0x326>
  105337:	ff 80 7f ff ff 80    	incl   -0x7f000081(%eax)
  10533d:	7e ff                	jle    10533e <__kernel_rodata_section_start+0x32e>
  10533f:	ff                   	(bad)  
  105340:	fc                   	cld    
  105341:	7f ff                	jg     105342 <__kernel_rodata_section_start+0x332>
  105343:	ff                   	(bad)  
  105344:	fc                   	cld    
  105345:	7f ff                	jg     105346 <__kernel_rodata_section_start+0x336>
  105347:	ff                   	(bad)  
  105348:	fc                   	cld    
  105349:	7f ff                	jg     10534a <__kernel_rodata_section_start+0x33a>
  10534b:	ff 80 7e ff ff 80    	incl   -0x7f000082(%eax)
  105351:	7e ff                	jle    105352 <__kernel_rodata_section_start+0x342>
  105353:	ff                   	(bad)  
  105354:	fc                   	cld    
  105355:	7f ff                	jg     105356 <__kernel_rodata_section_start+0x346>
  105357:	ff                   	(bad)  
  105358:	fc                   	cld    
  105359:	7f ff                	jg     10535a <__kernel_rodata_section_start+0x34a>
  10535b:	ff                   	(bad)  
  10535c:	fc                   	cld    
  10535d:	7f ff                	jg     10535e <__kernel_rodata_section_start+0x34e>
  10535f:	ff                   	(bad)  
  105360:	fc                   	cld    
  105361:	7f ff                	jg     105362 <__kernel_rodata_section_start+0x352>
  105363:	ff                   	(bad)  
  105364:	fc                   	cld    
  105365:	7f ff                	jg     105366 <__kernel_rodata_section_start+0x356>
  105367:	ff 80 7e ff ff fc    	incl   -0x3000082(%eax)
  10536d:	7f ff                	jg     10536e <__kernel_rodata_section_start+0x35e>
  10536f:	ff                   	(bad)  
  105370:	fc                   	cld    
  105371:	7f ff                	jg     105372 <__kernel_rodata_section_start+0x362>
  105373:	ff                   	(bad)  
  105374:	fc                   	cld    
  105375:	7f ff                	jg     105376 <__kernel_rodata_section_start+0x366>
  105377:	ff a0 7f ff ff fc    	jmp    *-0x3000081(%eax)
  10537d:	7f ff                	jg     10537e <__kernel_rodata_section_start+0x36e>
  10537f:	ff                   	(bad)  
  105380:	fc                   	cld    
  105381:	7f ff                	jg     105382 <__kernel_rodata_section_start+0x372>
  105383:	ff                   	(bad)  
  105384:	fc                   	cld    
  105385:	7f ff                	jg     105386 <__kernel_rodata_section_start+0x376>
  105387:	ff                   	(bad)  
  105388:	fc                   	cld    
  105389:	7f ff                	jg     10538a <__kernel_rodata_section_start+0x37a>
  10538b:	ff 80 7e ff ff 44    	incl   0x44ffff7e(%eax)
  105391:	69 76 69 73 69 6f 6e 	imul   $0x6e6f6973,0x69(%esi),%esi
  105398:	20 42 79             	and    %al,0x79(%edx)
  10539b:	20 5a 65             	and    %bl,0x65(%edx)
  10539e:	72 6f                	jb     10540f <__kernel_rodata_section_start+0x3ff>
  1053a0:	00 44 65 62          	add    %al,0x62(%ebp,%eiz,2)
  1053a4:	75 67                	jne    10540d <__kernel_rodata_section_start+0x3fd>
  1053a6:	00 4e 6f             	add    %cl,0x6f(%esi)
  1053a9:	6e                   	outsb  %ds:(%esi),(%dx)
  1053aa:	20 4d 61             	and    %cl,0x61(%ebp)
  1053ad:	73 6b                	jae    10541a <__kernel_rodata_section_start+0x40a>
  1053af:	61                   	popa   
  1053b0:	62 6c 65 20          	bound  %ebp,0x20(%ebp,%eiz,2)
  1053b4:	49                   	dec    %ecx
  1053b5:	6e                   	outsb  %ds:(%esi),(%dx)
  1053b6:	74 65                	je     10541d <__kernel_rodata_section_start+0x40d>
  1053b8:	72 72                	jb     10542c <__kernel_rodata_section_start+0x41c>
  1053ba:	75 70                	jne    10542c <__kernel_rodata_section_start+0x41c>
  1053bc:	74 00                	je     1053be <__kernel_rodata_section_start+0x3ae>
  1053be:	42                   	inc    %edx
  1053bf:	72 65                	jb     105426 <__kernel_rodata_section_start+0x416>
  1053c1:	61                   	popa   
  1053c2:	6b 70 6f 69          	imul   $0x69,0x6f(%eax),%esi
  1053c6:	6e                   	outsb  %ds:(%esi),(%dx)
  1053c7:	74 00                	je     1053c9 <__kernel_rodata_section_start+0x3b9>
  1053c9:	4f                   	dec    %edi
  1053ca:	76 65                	jbe    105431 <__kernel_rodata_section_start+0x421>
  1053cc:	72 66                	jb     105434 <__kernel_rodata_section_start+0x424>
  1053ce:	6c                   	insb   (%dx),%es:(%edi)
  1053cf:	6f                   	outsl  %ds:(%esi),(%dx)
  1053d0:	77 00                	ja     1053d2 <__kernel_rodata_section_start+0x3c2>
  1053d2:	42                   	inc    %edx
  1053d3:	4f                   	dec    %edi
  1053d4:	55                   	push   %ebp
  1053d5:	4e                   	dec    %esi
  1053d6:	44                   	inc    %esp
  1053d7:	20 52 61             	and    %dl,0x61(%edx)
  1053da:	6e                   	outsb  %ds:(%esi),(%dx)
  1053db:	67 65 20 45 78       	and    %al,%gs:0x78(%di)
  1053e0:	63 65 65             	arpl   %sp,0x65(%ebp)
  1053e3:	64 65 64 00 49 6e    	fs gs add %cl,%fs:0x6e(%ecx)
  1053e9:	76 61                	jbe    10544c <__kernel_rodata_section_start+0x43c>
  1053eb:	6c                   	insb   (%dx),%es:(%edi)
  1053ec:	69 64 20 4f 70 63 6f 	imul   $0x646f6370,0x4f(%eax,%eiz,1),%esp
  1053f3:	64 
  1053f4:	65 00 00             	add    %al,%gs:(%eax)
  1053f7:	00 44 65 76          	add    %al,0x76(%ebp,%eiz,2)
  1053fb:	69 63 65 20 4e 6f 74 	imul   $0x746f4e20,0x65(%ebx),%esp
  105402:	20 41 76             	and    %al,0x76(%ecx)
  105405:	61                   	popa   
  105406:	69 6c 61 62 6c 65 20 	imul   $0x2820656c,0x62(%ecx,%eiz,2),%ebp
  10540d:	28 
  10540e:	4e                   	dec    %esi
  10540f:	6f                   	outsl  %ds:(%esi),(%dx)
  105410:	20 4d 61             	and    %cl,0x61(%ebp)
  105413:	74 68                	je     10547d <__kernel_rodata_section_start+0x46d>
  105415:	20 43 6f             	and    %al,0x6f(%ebx)
  105418:	70 72                	jo     10548c <__kernel_rodata_section_start+0x47c>
  10541a:	6f                   	outsl  %ds:(%esi),(%dx)
  10541b:	63 65 73             	arpl   %sp,0x73(%ebp)
  10541e:	73 6f                	jae    10548f <__kernel_rodata_section_start+0x47f>
  105420:	72 29                	jb     10544b <__kernel_rodata_section_start+0x43b>
  105422:	00 44 6f 75          	add    %al,0x75(%edi,%ebp,2)
  105426:	62 6c 65 20          	bound  %ebp,0x20(%ebp,%eiz,2)
  10542a:	46                   	inc    %esi
  10542b:	61                   	popa   
  10542c:	75 6c                	jne    10549a <__kernel_rodata_section_start+0x48a>
  10542e:	74 00                	je     105430 <__kernel_rodata_section_start+0x420>
  105430:	43                   	inc    %ebx
  105431:	6f                   	outsl  %ds:(%esi),(%dx)
  105432:	70 72                	jo     1054a6 <__kernel_rodata_section_start+0x496>
  105434:	6f                   	outsl  %ds:(%esi),(%dx)
  105435:	63 65 73             	arpl   %sp,0x73(%ebp)
  105438:	73 6f                	jae    1054a9 <__kernel_rodata_section_start+0x499>
  10543a:	72 20                	jb     10545c <__kernel_rodata_section_start+0x44c>
  10543c:	53                   	push   %ebx
  10543d:	65 67 6d             	gs insl (%dx),%es:(%di)
  105440:	65 6e                	outsb  %gs:(%esi),(%dx)
  105442:	74 20                	je     105464 <__kernel_rodata_section_start+0x454>
  105444:	4f                   	dec    %edi
  105445:	76 65                	jbe    1054ac <__kernel_rodata_section_start+0x49c>
  105447:	72 72                	jb     1054bb <__kernel_rodata_section_start+0x4ab>
  105449:	75 6e                	jne    1054b9 <__kernel_rodata_section_start+0x4a9>
  10544b:	00 49 6e             	add    %cl,0x6e(%ecx)
  10544e:	76 61                	jbe    1054b1 <__kernel_rodata_section_start+0x4a1>
  105450:	6c                   	insb   (%dx),%es:(%edi)
  105451:	69 64 20 54 53 53 00 	imul   $0x53005353,0x54(%eax,%eiz,1),%esp
  105458:	53 
  105459:	65 67 6d             	gs insl (%dx),%es:(%di)
  10545c:	65 6e                	outsb  %gs:(%esi),(%dx)
  10545e:	74 20                	je     105480 <__kernel_rodata_section_start+0x470>
  105460:	4e                   	dec    %esi
  105461:	6f                   	outsl  %ds:(%esi),(%dx)
  105462:	74 20                	je     105484 <__kernel_rodata_section_start+0x474>
  105464:	50                   	push   %eax
  105465:	72 65                	jb     1054cc <__kernel_rodata_section_start+0x4bc>
  105467:	73 65                	jae    1054ce <__kernel_rodata_section_start+0x4be>
  105469:	6e                   	outsb  %ds:(%esi),(%dx)
  10546a:	74 00                	je     10546c <__kernel_rodata_section_start+0x45c>
  10546c:	53                   	push   %ebx
  10546d:	74 61                	je     1054d0 <__kernel_rodata_section_start+0x4c0>
  10546f:	63 6b 2d             	arpl   %bp,0x2d(%ebx)
  105472:	53                   	push   %ebx
  105473:	65 67 6d             	gs insl (%dx),%es:(%di)
  105476:	65 6e                	outsb  %gs:(%esi),(%dx)
  105478:	74 20                	je     10549a <__kernel_rodata_section_start+0x48a>
  10547a:	46                   	inc    %esi
  10547b:	61                   	popa   
  10547c:	75 6c                	jne    1054ea <__kernel_rodata_section_start+0x4da>
  10547e:	74 00                	je     105480 <__kernel_rodata_section_start+0x470>
  105480:	47                   	inc    %edi
  105481:	65 6e                	outsb  %gs:(%esi),(%dx)
  105483:	65 72 61             	gs jb  1054e7 <__kernel_rodata_section_start+0x4d7>
  105486:	6c                   	insb   (%dx),%es:(%edi)
  105487:	20 50 72             	and    %dl,0x72(%eax)
  10548a:	6f                   	outsl  %ds:(%esi),(%dx)
  10548b:	74 65                	je     1054f2 <__kernel_rodata_section_start+0x4e2>
  10548d:	63 74 69 6f          	arpl   %si,0x6f(%ecx,%ebp,2)
  105491:	6e                   	outsb  %ds:(%esi),(%dx)
  105492:	00 50 61             	add    %dl,0x61(%eax)
  105495:	67 65 20 46 61       	and    %al,%gs:0x61(%bp)
  10549a:	75 6c                	jne    105508 <__kernel_rodata_section_start+0x4f8>
  10549c:	74 00                	je     10549e <__kernel_rodata_section_start+0x48e>
  10549e:	00 00                	add    %al,(%eax)
  1054a0:	55                   	push   %ebp
  1054a1:	6e                   	outsb  %ds:(%esi),(%dx)
  1054a2:	6b 6e 6f 77          	imul   $0x77,0x6f(%esi),%ebp
  1054a6:	6e                   	outsb  %ds:(%esi),(%dx)
  1054a7:	20 49 6e             	and    %cl,0x6e(%ecx)
  1054aa:	74 65                	je     105511 <__kernel_rodata_section_start+0x501>
  1054ac:	72 72                	jb     105520 <__kernel_rodata_section_start+0x510>
  1054ae:	75 70                	jne    105520 <__kernel_rodata_section_start+0x510>
  1054b0:	74 20                	je     1054d2 <__kernel_rodata_section_start+0x4c2>
  1054b2:	28 69 6e             	sub    %ch,0x6e(%ecx)
  1054b5:	74 65                	je     10551c <__kernel_rodata_section_start+0x50c>
  1054b7:	6c                   	insb   (%dx),%es:(%edi)
  1054b8:	20 72 65             	and    %dh,0x65(%edx)
  1054bb:	73 65                	jae    105522 <__kernel_rodata_section_start+0x512>
  1054bd:	72 76                	jb     105535 <__kernel_rodata_section_start+0x525>
  1054bf:	65 64 29 00          	gs sub %eax,%fs:(%eax)
  1054c3:	00 78 38             	add    %bh,0x38(%eax)
  1054c6:	37                   	aaa    
  1054c7:	20 46 50             	and    %al,0x50(%esi)
  1054ca:	55                   	push   %ebp
  1054cb:	20 46 6c             	and    %al,0x6c(%esi)
  1054ce:	6f                   	outsl  %ds:(%esi),(%dx)
  1054cf:	61                   	popa   
  1054d0:	74 69                	je     10553b <__kernel_rodata_section_start+0x52b>
  1054d2:	6e                   	outsb  %ds:(%esi),(%dx)
  1054d3:	67 2d 50 6f 69 6e    	addr16 sub $0x6e696f50,%eax
  1054d9:	74 20                	je     1054fb <__kernel_rodata_section_start+0x4eb>
  1054db:	45                   	inc    %ebp
  1054dc:	72 72                	jb     105550 <__kernel_rodata_section_start+0x540>
  1054de:	6f                   	outsl  %ds:(%esi),(%dx)
  1054df:	72 20                	jb     105501 <__kernel_rodata_section_start+0x4f1>
  1054e1:	28 4d 61             	sub    %cl,0x61(%ebp)
  1054e4:	74 68                	je     10554e <__kernel_rodata_section_start+0x53e>
  1054e6:	20 46 61             	and    %al,0x61(%esi)
  1054e9:	75 6c                	jne    105557 <__kernel_rodata_section_start+0x547>
  1054eb:	74 29                	je     105516 <__kernel_rodata_section_start+0x506>
  1054ed:	00 41 6c             	add    %al,0x6c(%ecx)
  1054f0:	69 67 6e 6d 65 6e 74 	imul   $0x746e656d,0x6e(%edi),%esp
  1054f7:	20 43 68             	and    %al,0x68(%ebx)
  1054fa:	65 63 6b 00          	arpl   %bp,%gs:0x0(%ebx)
  1054fe:	4d                   	dec    %ebp
  1054ff:	61                   	popa   
  105500:	63 68 69             	arpl   %bp,0x69(%eax)
  105503:	6e                   	outsb  %ds:(%esi),(%dx)
  105504:	65 20 43 68          	and    %al,%gs:0x68(%ebx)
  105508:	65 63 6b 00          	arpl   %bp,%gs:0x0(%ebx)
  10550c:	53                   	push   %ebx
  10550d:	49                   	dec    %ecx
  10550e:	4d                   	dec    %ebp
  10550f:	44                   	inc    %esp
  105510:	20 46 6c             	and    %al,0x6c(%esi)
  105513:	6f                   	outsl  %ds:(%esi),(%dx)
  105514:	61                   	popa   
  105515:	74 69                	je     105580 <__kernel_rodata_section_start+0x570>
  105517:	6e                   	outsb  %ds:(%esi),(%dx)
  105518:	67 2d 50 6f 69 6e    	addr16 sub $0x6e696f50,%eax
  10551e:	74 20                	je     105540 <__kernel_rodata_section_start+0x530>
  105520:	45                   	inc    %ebp
  105521:	78 63                	js     105586 <__kernel_rodata_section_start+0x576>
  105523:	65 70 74             	gs jo  10559a <__kernel_rodata_section_start+0x58a>
  105526:	69 6f 6e 00 56 69 72 	imul   $0x72695600,0x6e(%edi),%ebp
  10552d:	74 75                	je     1055a4 <__kernel_rodata_section_start+0x594>
  10552f:	61                   	popa   
  105530:	6c                   	insb   (%dx),%es:(%edi)
  105531:	69 7a 61 74 69 6f 6e 	imul   $0x6e6f6974,0x61(%edx),%edi
  105538:	20 45 78             	and    %al,0x78(%ebp)
  10553b:	63 65 70             	arpl   %sp,0x70(%ebp)
  10553e:	74 69                	je     1055a9 <__kernel_rodata_section_start+0x599>
  105540:	6f                   	outsl  %ds:(%esi),(%dx)
  105541:	6e                   	outsb  %ds:(%esi),(%dx)
  105542:	00 52 65             	add    %dl,0x65(%edx)
  105545:	73 65                	jae    1055ac <__kernel_rodata_section_start+0x59c>
  105547:	72 76                	jb     1055bf <__kernel_rodata_section_start+0x5af>
  105549:	65 64 00 49 53       	gs add %cl,%fs:0x53(%ecx)
  10554e:	52                   	push   %edx
  10554f:	20 45 52             	and    %al,0x52(%ebp)
  105552:	52                   	push   %edx
  105553:	4f                   	dec    %edi
  105554:	52                   	push   %edx
  105555:	20 30                	and    %dh,(%eax)
  105557:	78 25                	js     10557e <__kernel_rodata_section_start+0x56e>
  105559:	78 3a                	js     105595 <__kernel_rodata_section_start+0x585>
  10555b:	20 25 73 0a 00 47    	and    %ah,0x47000a73
  105561:	6f                   	outsl  %ds:(%esi),(%dx)
  105562:	74 20                	je     105584 <__kernel_rodata_section_start+0x574>
  105564:	25 64 20 73 79       	and    $0x79732064,%eax
  105569:	73 63                	jae    1055ce <__kernel_rodata_section_start+0x5be>
  10556b:	61                   	popa   
  10556c:	6c                   	insb   (%dx),%es:(%edi)
  10556d:	6c                   	insb   (%dx),%es:(%edi)
  10556e:	00 20                	add    %ah,(%eax)
  105570:	53                   	push   %ebx
  105571:	79 73                	jns    1055e6 <__kernel_rodata_section_start+0x5d6>
  105573:	63 61 6c             	arpl   %sp,0x6c(%ecx)
  105576:	6c                   	insb   (%dx),%es:(%edi)
  105577:	00 53 79             	add    %dl,0x79(%ebx)
  10557a:	73 63                	jae    1055df <__kernel_rodata_section_start+0x5cf>
  10557c:	61                   	popa   
  10557d:	6c                   	insb   (%dx),%es:(%edi)
  10557e:	6c                   	insb   (%dx),%es:(%edi)
  10557f:	20 77 69             	and    %dh,0x69(%edi)
  105582:	74 68                	je     1055ec <__kernel_rodata_section_start+0x5dc>
  105584:	20 6e 75             	and    %ch,0x75(%esi)
  105587:	6d                   	insl   (%dx),%es:(%edi)
  105588:	62 65 72             	bound  %esp,0x72(%ebp)
  10558b:	20 25 64 20 69 73    	and    %ah,0x73692064
  105591:	20 6e 6f             	and    %ch,0x6f(%esi)
  105594:	74 20                	je     1055b6 <__kernel_rodata_section_start+0x5a6>
  105596:	69 6d 70 6c 65 6d 65 	imul   $0x656d656c,0x70(%ebp),%ebp
  10559d:	6e                   	outsb  %ds:(%esi),(%dx)
  10559e:	74 65                	je     105605 <__kernel_rodata_section_start+0x5f5>
  1055a0:	64 00 53 79          	add    %dl,%fs:0x79(%ebx)
  1055a4:	73 63                	jae    105609 <__kernel_rodata_section_start+0x5f9>
  1055a6:	61                   	popa   
  1055a7:	6c                   	insb   (%dx),%es:(%edi)
  1055a8:	6c                   	insb   (%dx),%es:(%edi)
  1055a9:	20 25 64 20 72 65    	and    %ah,0x65722064
  1055af:	74 75                	je     105626 <__kernel_rodata_section_start+0x616>
  1055b1:	72 6e                	jb     105621 <__kernel_rodata_section_start+0x611>
  1055b3:	65 64 20 25 64 00 00 	gs and %ah,%fs:0x64
  1055ba:	00 
  1055bb:	00 53 75             	add    %dl,0x75(%ebx)
  1055be:	63 63 65             	arpl   %sp,0x65(%ebx)
  1055c1:	73 73                	jae    105636 <__kernel_rodata_section_start+0x626>
  1055c3:	66 75 6c             	data16 jne 105632 <__kernel_rodata_section_start+0x622>
  1055c6:	6c                   	insb   (%dx),%es:(%edi)
  1055c7:	79 20                	jns    1055e9 <__kernel_rodata_section_start+0x5d9>
  1055c9:	69 6e 69 74 69 61 6c 	imul   $0x6c616974,0x69(%esi),%ebp
  1055d0:	69 7a 65 64 20 73 79 	imul   $0x79732064,0x65(%edx),%edi
  1055d7:	73 63                	jae    10563c <__kernel_rodata_section_start+0x62c>
  1055d9:	61                   	popa   
  1055da:	6c                   	insb   (%dx),%es:(%edi)
  1055db:	6c                   	insb   (%dx),%es:(%edi)
  1055dc:	20 68 61             	and    %ch,0x61(%eax)
  1055df:	6e                   	outsb  %ds:(%esi),(%dx)
  1055e0:	64 6c                	fs insb (%dx),%es:(%edi)
  1055e2:	65 72 20             	gs jb  105605 <__kernel_rodata_section_start+0x5f5>
  1055e5:	28 30                	sub    %dh,(%eax)
  1055e7:	78 25                	js     10560e <__kernel_rodata_section_start+0x5fe>
  1055e9:	78 29                	js     105614 <__kernel_rodata_section_start+0x604>
  1055eb:	00 5b 00             	add    %bl,0x0(%ebx)
  1055ee:	25 73 00 5d 20       	and    $0x205d0073,%eax
  1055f3:	00 53 75             	add    %dl,0x75(%ebx)
  1055f6:	63 63 65             	arpl   %sp,0x65(%ebx)
  1055f9:	73 73                	jae    10566e <__kernel_rodata_section_start+0x65e>
  1055fb:	66 75 6c             	data16 jne 10566a <__kernel_rodata_section_start+0x65a>
  1055fe:	6c                   	insb   (%dx),%es:(%edi)
  1055ff:	79 20                	jns    105621 <__kernel_rodata_section_start+0x611>
  105601:	61                   	popa   
  105602:	6c                   	insb   (%dx),%es:(%edi)
  105603:	6c                   	insb   (%dx),%es:(%edi)
  105604:	6f                   	outsl  %ds:(%esi),(%dx)
  105605:	63 61 74             	arpl   %sp,0x74(%ecx)
  105608:	65 64 20 32          	gs and %dh,%fs:(%edx)
  10560c:	30 20                	xor    %ah,(%eax)
  10560e:	62 6c 6f 63          	bound  %ebp,0x63(%edi,%ebp,2)
  105612:	6b 73 21 20          	imul   $0x20,0x21(%ebx),%esi
  105616:	53                   	push   %ebx
  105617:	54                   	push   %esp
  105618:	41                   	inc    %ecx
  105619:	52                   	push   %edx
  10561a:	54                   	push   %esp
  10561b:	3a 20                	cmp    (%eax),%ah
  10561d:	30 78 25             	xor    %bh,0x25(%eax)
  105620:	78 20                	js     105642 <__kernel_rodata_section_start+0x632>
  105622:	45                   	inc    %ebp
  105623:	4e                   	dec    %esi
  105624:	44                   	inc    %esp
  105625:	3a 20                	cmp    (%eax),%ah
  105627:	30 78 25             	xor    %bh,0x25(%eax)
  10562a:	78 00                	js     10562c <__kernel_rodata_section_start+0x61c>
  10562c:	20 50 4d             	and    %dl,0x4d(%eax)
  10562f:	4d                   	dec    %ebp
  105630:	09 00                	or     %eax,(%eax)
  105632:	6b 65 72 6e          	imul   $0x6e,0x72(%ebp),%esp
  105636:	65 6c                	gs insb (%dx),%es:(%edi)
  105638:	3a 0a                	cmp    (%edx),%cl
  10563a:	00 00                	add    %al,(%eax)
  10563c:	20 20                	and    %ah,(%eax)
  10563e:	6b 65 72 6e          	imul   $0x6e,0x72(%ebp),%esp
  105642:	65 6c                	gs insb (%dx),%es:(%edi)
  105644:	2d 73 74 61 72       	sub    $0x72617473,%eax
  105649:	74 3a                	je     105685 <__kernel_rodata_section_start+0x675>
  10564b:	20 30                	and    %dh,(%eax)
  10564d:	78 25                	js     105674 <__kernel_rodata_section_start+0x664>
  10564f:	78 2c                	js     10567d <__kernel_rodata_section_start+0x66d>
  105651:	20 6b 65             	and    %ch,0x65(%ebx)
  105654:	72 6e                	jb     1056c4 <__kernel_rodata_section_start+0x6b4>
  105656:	65 6c                	gs insb (%dx),%es:(%edi)
  105658:	2d 65 6e 64 3a       	sub    $0x3a646e65,%eax
  10565d:	20 30                	and    %dh,(%eax)
  10565f:	78 25                	js     105686 <__kernel_rodata_section_start+0x676>
  105661:	78 2c                	js     10568f <__kernel_rodata_section_start+0x67f>
  105663:	20 54 4f 54          	and    %dl,0x54(%edi,%ecx,2)
  105667:	41                   	inc    %ecx
  105668:	4c                   	dec    %esp
  105669:	3a 20                	cmp    (%eax),%ah
  10566b:	25 64 20 62 79       	and    $0x79622064,%eax
  105670:	74 65                	je     1056d7 <__kernel_rodata_section_start+0x6c7>
  105672:	73 0a                	jae    10567e <__kernel_rodata_section_start+0x66e>
  105674:	00 00                	add    %al,(%eax)
  105676:	00 00                	add    %al,(%eax)
  105678:	20 20                	and    %ah,(%eax)
  10567a:	74 65                	je     1056e1 <__kernel_rodata_section_start+0x6d1>
  10567c:	78 74                	js     1056f2 <__kernel_rodata_section_start+0x6e2>
  10567e:	2d 73 74 61 72       	sub    $0x72617473,%eax
  105683:	74 3a                	je     1056bf <__kernel_rodata_section_start+0x6af>
  105685:	20 30                	and    %dh,(%eax)
  105687:	78 25                	js     1056ae <__kernel_rodata_section_start+0x69e>
  105689:	78 2c                	js     1056b7 <__kernel_rodata_section_start+0x6a7>
  10568b:	20 74 65 78          	and    %dh,0x78(%ebp,%eiz,2)
  10568f:	74 2d                	je     1056be <__kernel_rodata_section_start+0x6ae>
  105691:	65 6e                	outsb  %gs:(%esi),(%dx)
  105693:	64 3a 20             	cmp    %fs:(%eax),%ah
  105696:	30 78 25             	xor    %bh,0x25(%eax)
  105699:	78 2c                	js     1056c7 <__kernel_rodata_section_start+0x6b7>
  10569b:	20 54 4f 54          	and    %dl,0x54(%edi,%ecx,2)
  10569f:	41                   	inc    %ecx
  1056a0:	4c                   	dec    %esp
  1056a1:	3a 20                	cmp    (%eax),%ah
  1056a3:	25 64 20 62 79       	and    $0x79622064,%eax
  1056a8:	74 65                	je     10570f <__kernel_rodata_section_start+0x6ff>
  1056aa:	73 0a                	jae    1056b6 <__kernel_rodata_section_start+0x6a6>
  1056ac:	00 00                	add    %al,(%eax)
  1056ae:	00 00                	add    %al,(%eax)
  1056b0:	20 20                	and    %ah,(%eax)
  1056b2:	64 61                	fs popa 
  1056b4:	74 61                	je     105717 <__kernel_rodata_section_start+0x707>
  1056b6:	2d 73 74 61 72       	sub    $0x72617473,%eax
  1056bb:	74 3a                	je     1056f7 <__kernel_rodata_section_start+0x6e7>
  1056bd:	20 30                	and    %dh,(%eax)
  1056bf:	78 25                	js     1056e6 <__kernel_rodata_section_start+0x6d6>
  1056c1:	78 2c                	js     1056ef <__kernel_rodata_section_start+0x6df>
  1056c3:	20 64 61 74          	and    %ah,0x74(%ecx,%eiz,2)
  1056c7:	61                   	popa   
  1056c8:	2d 65 6e 64 3a       	sub    $0x3a646e65,%eax
  1056cd:	20 30                	and    %dh,(%eax)
  1056cf:	78 25                	js     1056f6 <__kernel_rodata_section_start+0x6e6>
  1056d1:	78 2c                	js     1056ff <__kernel_rodata_section_start+0x6ef>
  1056d3:	20 54 4f 54          	and    %dl,0x54(%edi,%ecx,2)
  1056d7:	41                   	inc    %ecx
  1056d8:	4c                   	dec    %esp
  1056d9:	3a 20                	cmp    (%eax),%ah
  1056db:	25 64 20 62 79       	and    $0x79622064,%eax
  1056e0:	74 65                	je     105747 <__kernel_rodata_section_start+0x737>
  1056e2:	73 0a                	jae    1056ee <__kernel_rodata_section_start+0x6de>
  1056e4:	00 00                	add    %al,(%eax)
  1056e6:	00 00                	add    %al,(%eax)
  1056e8:	20 20                	and    %ah,(%eax)
  1056ea:	72 6f                	jb     10575b <__kernel_rodata_section_start+0x74b>
  1056ec:	64 61                	fs popa 
  1056ee:	74 61                	je     105751 <__kernel_rodata_section_start+0x741>
  1056f0:	2d 73 74 61 72       	sub    $0x72617473,%eax
  1056f5:	74 3a                	je     105731 <__kernel_rodata_section_start+0x721>
  1056f7:	20 30                	and    %dh,(%eax)
  1056f9:	78 25                	js     105720 <__kernel_rodata_section_start+0x710>
  1056fb:	78 2c                	js     105729 <__kernel_rodata_section_start+0x719>
  1056fd:	20 72 6f             	and    %dh,0x6f(%edx)
  105700:	64 61                	fs popa 
  105702:	74 61                	je     105765 <__kernel_rodata_section_start+0x755>
  105704:	2d 65 6e 64 3a       	sub    $0x3a646e65,%eax
  105709:	20 30                	and    %dh,(%eax)
  10570b:	78 25                	js     105732 <__kernel_rodata_section_start+0x722>
  10570d:	78 2c                	js     10573b <__kernel_rodata_section_start+0x72b>
  10570f:	20 54 4f 54          	and    %dl,0x54(%edi,%ecx,2)
  105713:	41                   	inc    %ecx
  105714:	4c                   	dec    %esp
  105715:	3a 20                	cmp    (%eax),%ah
  105717:	25 64 0a 00 00       	and    $0xa64,%eax
  10571c:	20 20                	and    %ah,(%eax)
  10571e:	62 73 73             	bound  %esi,0x73(%ebx)
  105721:	2d 73 74 61 72       	sub    $0x72617473,%eax
  105726:	74 3a                	je     105762 <__kernel_rodata_section_start+0x752>
  105728:	20 30                	and    %dh,(%eax)
  10572a:	78 25                	js     105751 <__kernel_rodata_section_start+0x741>
  10572c:	78 2c                	js     10575a <__kernel_rodata_section_start+0x74a>
  10572e:	20 62 73             	and    %ah,0x73(%edx)
  105731:	73 2d                	jae    105760 <__kernel_rodata_section_start+0x750>
  105733:	65 6e                	outsb  %gs:(%esi),(%dx)
  105735:	64 3a 20             	cmp    %fs:(%eax),%ah
  105738:	30 78 25             	xor    %bh,0x25(%eax)
  10573b:	78 2c                	js     105769 <__kernel_rodata_section_start+0x759>
  10573d:	20 54 4f 54          	and    %dl,0x54(%edi,%ecx,2)
  105741:	41                   	inc    %ecx
  105742:	4c                   	dec    %esp
  105743:	3a 20                	cmp    (%eax),%ah
  105745:	25 64 0a 00 74       	and    $0x74000a64,%eax
  10574a:	6f                   	outsl  %ds:(%esi),(%dx)
  10574b:	74 61                	je     1057ae <__kernel_rodata_section_start+0x79e>
  10574d:	6c                   	insb   (%dx),%es:(%edi)
  10574e:	5f                   	pop    %edi
  10574f:	6d                   	insl   (%dx),%es:(%edi)
  105750:	65 6d                	gs insl (%dx),%es:(%edi)
  105752:	6f                   	outsl  %ds:(%esi),(%dx)
  105753:	72 79                	jb     1057ce <__kernel_rodata_section_start+0x7be>
  105755:	3a 20                	cmp    (%eax),%ah
  105757:	25 64 20 4b 42       	and    $0x424b2064,%eax
  10575c:	0a 00                	or     (%eax),%al
  10575e:	61                   	popa   
  10575f:	76 61                	jbe    1057c2 <__kernel_rodata_section_start+0x7b2>
  105761:	69 6c 61 62 6c 65 3a 	imul   $0xa3a656c,0x62(%ecx,%eiz,2),%ebp
  105768:	0a 
  105769:	00 00                	add    %al,(%eax)
  10576b:	00 20                	add    %ah,(%eax)
  10576d:	20 73 74             	and    %dh,0x74(%ebx)
  105770:	61                   	popa   
  105771:	72 74                	jb     1057e7 <__kernel_rodata_section_start+0x7d7>
  105773:	5f                   	pop    %edi
  105774:	61                   	popa   
  105775:	64 64 72 3a          	fs fs jb 1057b3 <__kernel_rodata_section_start+0x7a3>
  105779:	20 30                	and    %dh,(%eax)
  10577b:	78 25                	js     1057a2 <__kernel_rodata_section_start+0x792>
  10577d:	78 0a                	js     105789 <__kernel_rodata_section_start+0x779>
  10577f:	20 20                	and    %ah,(%eax)
  105781:	65 6e                	outsb  %gs:(%esi),(%dx)
  105783:	64 20 61 64          	and    %ah,%fs:0x64(%ecx)
  105787:	64 72 3a             	fs jb  1057c4 <__kernel_rodata_section_start+0x7b4>
  10578a:	20 30                	and    %dh,(%eax)
  10578c:	78 25                	js     1057b3 <__kernel_rodata_section_start+0x7a3>
  10578e:	78 0a                	js     10579a <__kernel_rodata_section_start+0x78a>
  105790:	20 20                	and    %ah,(%eax)
  105792:	73 69                	jae    1057fd <__kernel_rodata_section_start+0x7ed>
  105794:	7a 65                	jp     1057fb <__kernel_rodata_section_start+0x7eb>
  105796:	3a 20                	cmp    (%eax),%ah
  105798:	25 64 0a 00 46       	and    $0x46000a64,%eax
  10579d:	61                   	popa   
  10579e:	69 6c 65 64 20 74 6f 	imul   $0x206f7420,0x64(%ebp,%eiz,2),%ebp
  1057a5:	20 
  1057a6:	69 6e 69 74 69 61 6c 	imul   $0x6c616974,0x69(%esi),%ebp
  1057ad:	69 7a 65 20 50 4d 4d 	imul   $0x4d4d5020,0x65(%edx),%edi
  1057b4:	21 00                	and    %eax,(%eax)
  1057b6:	00 00                	add    %al,(%eax)
  1057b8:	49                   	dec    %ecx
  1057b9:	6e                   	outsb  %ds:(%esi),(%dx)
  1057ba:	69 74 69 61 6c 69 7a 	imul   $0x657a696c,0x61(%ecx,%ebp,2),%esi
  1057c1:	65 
  1057c2:	64 20 50 4d          	and    %dl,%fs:0x4d(%eax)
  1057c6:	4d                   	dec    %ebp
  1057c7:	20 66 72             	and    %ah,0x72(%esi)
  1057ca:	6f                   	outsl  %ds:(%esi),(%dx)
  1057cb:	6d                   	insl   (%dx),%es:(%edi)
  1057cc:	20 61 64             	and    %ah,0x64(%ecx)
  1057cf:	64 72 65             	fs jb  105837 <__kernel_rodata_section_start+0x827>
  1057d2:	73 73                	jae    105847 <__kernel_rodata_section_start+0x837>
  1057d4:	3a 20                	cmp    (%eax),%ah
  1057d6:	30 78 25             	xor    %bh,0x25(%eax)
  1057d9:	78 20                	js     1057fb <__kernel_rodata_section_start+0x7eb>
  1057db:	74 6f                	je     10584c <__kernel_rodata_section_start+0x83c>
  1057dd:	20 30                	and    %dh,(%eax)
  1057df:	78 25                	js     105806 <__kernel_rodata_section_start+0x7f6>
  1057e1:	78 00                	js     1057e3 <__kernel_rodata_section_start+0x7d3>
  1057e3:	49                   	dec    %ecx
  1057e4:	6e                   	outsb  %ds:(%esi),(%dx)
  1057e5:	69 74 69 61 6c 69 7a 	imul   $0x657a696c,0x61(%ecx,%ebp,2),%esi
  1057ec:	65 
  1057ed:	64 20 56 46          	and    %dl,%fs:0x46(%esi)
  1057f1:	53                   	push   %ebx
  1057f2:	21 00                	and    %eax,(%eax)
  1057f4:	20 56 46             	and    %dl,0x46(%esi)
  1057f7:	53                   	push   %ebx
  1057f8:	09 00                	or     %eax,(%eax)
  1057fa:	49                   	dec    %ecx
  1057fb:	6e                   	outsb  %ds:(%esi),(%dx)
  1057fc:	69 74 69 61 6c 7a 69 	imul   $0x6e697a6c,0x61(%ecx,%ebp,2),%esi
  105803:	6e 
  105804:	67 20 6b 65          	and    %ch,0x65(%bp,%di)
  105808:	72 6e                	jb     105878 <__kernel_rodata_section_start+0x868>
  10580a:	65 6c                	gs insb (%dx),%es:(%edi)
  10580c:	20 6d 65             	and    %ch,0x65(%ebp)
  10580f:	6d                   	insl   (%dx),%es:(%edi)
  105810:	6f                   	outsl  %ds:(%esi),(%dx)
  105811:	72 79                	jb     10588c <__kernel_rodata_section_start+0x87c>
  105813:	00 20                	add    %ah,(%eax)
  105815:	4b                   	dec    %ebx
  105816:	4d                   	dec    %ebp
  105817:	65 6d                	gs insl (%dx),%es:(%edi)
  105819:	20 20                	and    %ah,(%eax)
  10581b:	20 00                	and    %al,(%eax)
  10581d:	00 00                	add    %al,(%eax)
  10581f:	00 50 a1             	add    %dl,-0x5f(%eax)
  105822:	ff                   	(bad)  
  105823:	ff 6c a1 ff          	ljmp   *-0x1(%ecx,%eiz,4)
  105827:	ff 6c a1 ff          	ljmp   *-0x1(%ecx,%eiz,4)
  10582b:	ff 6c a1 ff          	ljmp   *-0x1(%ecx,%eiz,4)
  10582f:	ff 6c a1 ff          	ljmp   *-0x1(%ecx,%eiz,4)
  105833:	ff 57 a1             	call   *-0x5f(%edi)
  105836:	ff                   	(bad)  
  105837:	ff 26                	jmp    *(%esi)
  105839:	a1 ff ff 5e a1       	mov    0xa15effff,%eax
  10583e:	ff                   	(bad)  
  10583f:	ff 65 a1             	jmp    *-0x5f(%ebp)
  105842:	ff                   	(bad)  
  105843:	ff 1f                	lcall  *(%edi)
  105845:	a1 ff ff da a0       	mov    0xa0daffff,%eax
  10584a:	ff                   	(bad)  
  10584b:	ff e4                	jmp    *%esp
  10584d:	a0 ff ff ee a0       	mov    0xa0eeffff,%al
  105852:	ff                   	(bad)  
  105853:	ff f5                	push   %ebp
  105855:	a0 ff ff fc a0       	mov    0xa0fcffff,%al
  10585a:	ff                   	(bad)  
  10585b:	ff 03                	incl   (%ebx)
  10585d:	a1 ff ff 0a a1       	mov    0xa10affff,%eax
  105862:	ff                   	(bad)  
  105863:	ff 11                	call   *(%ecx)
  105865:	a1 ff ff 18 a1       	mov    0xa118ffff,%eax
  10586a:	ff                   	(bad)  
  10586b:	ff 6c a1 ff          	ljmp   *-0x1(%ecx,%eiz,4)
  10586f:	ff 49 a1             	decl   -0x5f(%ecx)
  105872:	ff                   	(bad)  
  105873:	ff 6c a1 ff          	ljmp   *-0x1(%ecx,%eiz,4)
  105877:	ff 2d a1 ff ff 6c    	ljmp   *0x6cffffa1
  10587d:	a1 ff ff 6c a1       	mov    0xa16cffff,%eax
  105882:	ff                   	(bad)  
  105883:	ff 6c a1 ff          	ljmp   *-0x1(%ecx,%eiz,4)
  105887:	ff 6c a1 ff          	ljmp   *-0x1(%ecx,%eiz,4)
  10588b:	ff 6c a1 ff          	ljmp   *-0x1(%ecx,%eiz,4)
  10588f:	ff 6c a1 ff          	ljmp   *-0x1(%ecx,%eiz,4)
  105893:	ff 6c a1 ff          	ljmp   *-0x1(%ecx,%eiz,4)
  105897:	ff 6c a1 ff          	ljmp   *-0x1(%ecx,%eiz,4)
  10589b:	ff 6c a1 ff          	ljmp   *-0x1(%ecx,%eiz,4)
  10589f:	ff 6c a1 ff          	ljmp   *-0x1(%ecx,%eiz,4)
  1058a3:	ff 6c a1 ff          	ljmp   *-0x1(%ecx,%eiz,4)
  1058a7:	ff 6c a1 ff          	ljmp   *-0x1(%ecx,%eiz,4)
  1058ab:	ff 6c a1 ff          	ljmp   *-0x1(%ecx,%eiz,4)
  1058af:	ff 6c a1 ff          	ljmp   *-0x1(%ecx,%eiz,4)
  1058b3:	ff 6c a1 ff          	ljmp   *-0x1(%ecx,%eiz,4)
  1058b7:	ff 6c a1 ff          	ljmp   *-0x1(%ecx,%eiz,4)
  1058bb:	ff 6c a1 ff          	ljmp   *-0x1(%ecx,%eiz,4)
  1058bf:	ff 6c a1 ff          	ljmp   *-0x1(%ecx,%eiz,4)
  1058c3:	ff 6c a1 ff          	ljmp   *-0x1(%ecx,%eiz,4)
  1058c7:	ff 6c a1 ff          	ljmp   *-0x1(%ecx,%eiz,4)
  1058cb:	ff 6c a1 ff          	ljmp   *-0x1(%ecx,%eiz,4)
  1058cf:	ff 6c a1 ff          	ljmp   *-0x1(%ecx,%eiz,4)
  1058d3:	ff 6c a1 ff          	ljmp   *-0x1(%ecx,%eiz,4)
  1058d7:	ff 6c a1 ff          	ljmp   *-0x1(%ecx,%eiz,4)
  1058db:	ff 6c a1 ff          	ljmp   *-0x1(%ecx,%eiz,4)
  1058df:	ff 6c a1 ff          	ljmp   *-0x1(%ecx,%eiz,4)
  1058e3:	ff 6c a1 ff          	ljmp   *-0x1(%ecx,%eiz,4)
  1058e7:	ff 6c a1 ff          	ljmp   *-0x1(%ecx,%eiz,4)
  1058eb:	ff 6c a1 ff          	ljmp   *-0x1(%ecx,%eiz,4)
  1058ef:	ff 34 a1             	pushl  (%ecx,%eiz,4)
  1058f2:	ff                   	(bad)  
  1058f3:	ff 42 a1             	incl   -0x5f(%edx)
  1058f6:	ff                   	(bad)  
  1058f7:	ff                   	(bad)  
  1058f8:	3b a1 ff ff 6c a1    	cmp    -0x5e930001(%ecx),%esp
  1058fe:	ff                   	(bad)  
  1058ff:	ff 6c a1 ff          	ljmp   *-0x1(%ecx,%eiz,4)
  105903:	ff d0                	call   *%eax
  105905:	a0 ff ff 08 00       	mov    0x8ffff,%al
  10590a:	25 63 00 00 00       	and    $0x63,%eax
  10590f:	00 81 a3 ff ff 75    	add    %al,0x75ffffa3(%ecx)
  105915:	a3 ff ff ab a3       	mov    %eax,0xa3abffff
  10591a:	ff                   	(bad)  
  10591b:	ff ab a3 ff ff ab    	ljmp   *-0x5400005d(%ebx)
  105921:	a3 ff ff ab a3       	mov    %eax,0xa3abffff
  105926:	ff                   	(bad)  
  105927:	ff ab a3 ff ff ab    	ljmp   *-0x5400005d(%ebx)
  10592d:	a3 ff ff ab a3       	mov    %eax,0xa3abffff
  105932:	ff                   	(bad)  
  105933:	ff ab a3 ff ff ab    	ljmp   *-0x5400005d(%ebx)
  105939:	a3 ff ff ab a3       	mov    %eax,0xa3abffff
  10593e:	ff                   	(bad)  
  10593f:	ff ab a3 ff ff ab    	ljmp   *-0x5400005d(%ebx)
  105945:	a3 ff ff 69 a3       	mov    %eax,0xa369ffff
  10594a:	ff                   	(bad)  
  10594b:	ff ab a3 ff ff ab    	ljmp   *-0x5400005d(%ebx)
  105951:	a3 ff ff ab a3       	mov    %eax,0xa3abffff
  105956:	ff                   	(bad)  
  105957:	ff ab a3 ff ff ab    	ljmp   *-0x5400005d(%ebx)
  10595d:	a3 ff ff ab a3       	mov    %eax,0xa3abffff
  105962:	ff                   	(bad)  
  105963:	ff ab a3 ff ff ab    	ljmp   *-0x5400005d(%ebx)
  105969:	a3 ff ff ab a3       	mov    %eax,0xa3abffff
  10596e:	ff                   	(bad)  
  10596f:	ff ab a3 ff ff ab    	ljmp   *-0x5400005d(%ebx)
  105975:	a3 ff ff ab a3       	mov    %eax,0xa3abffff
  10597a:	ff                   	(bad)  
  10597b:	ff ab a3 ff ff 8d    	ljmp   *-0x7200005d(%ebx)
  105981:	a3 ff ff ab a3       	mov    %eax,0xa3abffff
  105986:	ff                   	(bad)  
  105987:	ff ab a3 ff ff ab    	ljmp   *-0x5400005d(%ebx)
  10598d:	a3 ff ff ab a3       	mov    %eax,0xa3abffff
  105992:	ff                   	(bad)  
  105993:	ff ab a3 ff ff ab    	ljmp   *-0x5400005d(%ebx)
  105999:	a3 ff ff ab a3       	mov    %eax,0xa3abffff
  10599e:	ff                   	(bad)  
  10599f:	ff ab a3 ff ff ab    	ljmp   *-0x5400005d(%ebx)
  1059a5:	a3 ff ff ab a3       	mov    %eax,0xa3abffff
  1059aa:	ff                   	(bad)  
  1059ab:	ff ab a3 ff ff 9c    	ljmp   *-0x6300005d(%ebx)
  1059b1:	a3 ff ff ab a3       	mov    %eax,0xa3abffff
  1059b6:	ff                   	(bad)  
  1059b7:	ff ab a3 ff ff ab    	ljmp   *-0x5400005d(%ebx)
  1059bd:	a3 ff ff 41 a3       	mov    %eax,0xa341ffff
  1059c2:	ff                   	(bad)  
  1059c3:	ff 49 6e             	decl   0x6e(%ecx)
  1059c6:	69 74 69 61 6c 69 7a 	imul   $0x697a696c,0x61(%ecx,%ebp,2),%esi
  1059cd:	69 
  1059ce:	6e                   	outsb  %ds:(%esi),(%dx)
  1059cf:	67 20 6b 65          	and    %ch,0x65(%bp,%di)
  1059d3:	79 62                	jns    105a37 <__kernel_rodata_section_start+0xa27>
  1059d5:	6f                   	outsl  %ds:(%esi),(%dx)
  1059d6:	61                   	popa   
  1059d7:	72 64                	jb     105a3d <__kernel_rodata_section_start+0xa2d>
  1059d9:	20 64 72 69          	and    %ah,0x69(%edx,%esi,2)
  1059dd:	76 65                	jbe    105a44 <__kernel_rodata_section_start+0xa34>
  1059df:	72 73                	jb     105a54 <__kernel_rodata_section_start+0xa44>
  1059e1:	00 4b 65             	add    %cl,0x65(%ebx)
  1059e4:	79 62                	jns    105a48 <__kernel_rodata_section_start+0xa38>
  1059e6:	6f                   	outsl  %ds:(%esi),(%dx)
  1059e7:	61                   	popa   
  1059e8:	72 64                	jb     105a4e <__kernel_rodata_section_start+0xa3e>
  1059ea:	00 49 6e             	add    %cl,0x6e(%ecx)
  1059ed:	69 74 69 61 6c 69 7a 	imul   $0x697a696c,0x61(%ecx,%ebp,2),%esi
  1059f4:	69 
  1059f5:	6e                   	outsb  %ds:(%esi),(%dx)
  1059f6:	67 20 6d 6f          	and    %ch,0x6f(%di)
  1059fa:	75 73                	jne    105a6f <__kernel_rodata_section_start+0xa5f>
  1059fc:	65 20 64 72 69       	and    %ah,%gs:0x69(%edx,%esi,2)
  105a01:	76 65                	jbe    105a68 <__kernel_rodata_section_start+0xa58>
  105a03:	72 73                	jb     105a78 <__kernel_rodata_section_start+0xa68>
  105a05:	00 20                	add    %ah,(%eax)
  105a07:	4d                   	dec    %ebp
  105a08:	6f                   	outsl  %ds:(%esi),(%dx)
  105a09:	75 73                	jne    105a7e <__kernel_rodata_section_start+0xa6e>
  105a0b:	65 20 20             	and    %ah,%gs:(%eax)
  105a0e:	00 00                	add    %al,(%eax)
  105a10:	4b                   	dec    %ebx
  105a11:	45                   	inc    %ebp
  105a12:	52                   	push   %edx
  105a13:	4e                   	dec    %esi
  105a14:	45                   	inc    %ebp
  105a15:	4c                   	dec    %esp
  105a16:	20 50 41             	and    %dl,0x41(%eax)
  105a19:	4e                   	dec    %esi
  105a1a:	49                   	dec    %ecx
  105a1b:	43                   	inc    %ebx
  105a1c:	3a 20                	cmp    (%eax),%ah
  105a1e:	5b                   	pop    %ebx
  105a1f:	25 73 5d 0a 48       	and    $0x480a5d73,%eax
  105a24:	41                   	inc    %ecx
  105a25:	4c                   	dec    %esp
  105a26:	54                   	push   %esp
  105a27:	49                   	dec    %ecx
  105a28:	4e                   	dec    %esi
  105a29:	47                   	inc    %edi
  105a2a:	20 54 48 45          	and    %dl,0x45(%eax,%ecx,2)
  105a2e:	20 53 59             	and    %dl,0x59(%ebx)
  105a31:	53                   	push   %ebx
  105a32:	54                   	push   %esp
  105a33:	45                   	inc    %ebp
  105a34:	4d                   	dec    %ebp
  105a35:	21 00                	and    %eax,(%eax)
  105a37:	00 2f                	add    %ch,(%edi)
  105a39:	00 68 6f             	add    %ch,0x6f(%eax)
  105a3c:	6d                   	insl   (%dx),%es:(%edi)
  105a3d:	65 00 74 6d 70       	add    %dh,%gs:0x70(%ebp,%ebp,2)
  105a42:	00 76 61             	add    %dh,0x61(%esi)
  105a45:	72 00                	jb     105a47 <__kernel_rodata_section_start+0xa37>
  105a47:	75 73                	jne    105abc <__kernel_rodata_section_start+0xaac>
  105a49:	72 00                	jb     105a4b <__kernel_rodata_section_start+0xa3b>
  105a4b:	2e 00 2e             	add    %ch,%cs:(%esi)
  105a4e:	2e 00 56 46          	add    %dl,%cs:0x46(%esi)
  105a52:	53                   	push   %ebx
  105a53:	3a 20                	cmp    (%eax),%ah
  105a55:	45                   	inc    %ebp
  105a56:	72 72                	jb     105aca <__kernel_rodata_section_start+0xaba>
  105a58:	6f                   	outsl  %ds:(%esi),(%dx)
  105a59:	72 20                	jb     105a7b <__kernel_rodata_section_start+0xa6b>
  105a5b:	45                   	inc    %ebp
  105a5c:	4f                   	dec    %edi
  105a5d:	50                   	push   %eax
  105a5e:	20 69 73             	and    %ch,0x73(%ecx)
  105a61:	20 61 20             	and    %ah,0x20(%ecx)
  105a64:	66 69 6c 65 20 6e 6f 	imul   $0x6f6e,0x20(%ebp,%eiz,2),%bp
  105a6b:	74 20                	je     105a8d <__kernel_rodata_section_start+0xa7d>
  105a6d:	61                   	popa   
  105a6e:	20 64 69 72          	and    %ah,0x72(%ecx,%ebp,2)
  105a72:	65 63 74 6f 72       	arpl   %si,%gs:0x72(%edi,%ebp,2)
  105a77:	79 21                	jns    105a9a <__kernel_rodata_section_start+0xa8a>
  105a79:	20 5b 25             	and    %bl,0x25(%ebx)
  105a7c:	73 5d                	jae    105adb <__kernel_rodata_section_start+0xacb>
  105a7e:	0a 00                	or     (%eax),%al
  105a80:	00 00                	add    %al,(%eax)
  105a82:	00 00                	add    %al,(%eax)
  105a84:	56                   	push   %esi
  105a85:	46                   	inc    %esi
  105a86:	53                   	push   %ebx
  105a87:	3a 20                	cmp    (%eax),%ah
  105a89:	45                   	inc    %ebp
  105a8a:	72 72                	jb     105afe <__kernel_rodata_section_start+0xaee>
  105a8c:	6f                   	outsl  %ds:(%esi),(%dx)
  105a8d:	72 20                	jb     105aaf <__kernel_rodata_section_start+0xa9f>
  105a8f:	45                   	inc    %ebp
  105a90:	4f                   	dec    %edi
  105a91:	50                   	push   %eax
  105a92:	20 6e 6f             	and    %ch,0x6f(%esi)
  105a95:	20 73 75             	and    %dh,0x75(%ebx)
  105a98:	63 68 20             	arpl   %bp,0x20(%eax)
  105a9b:	66 69 6c 65 20 6f 72 	imul   $0x726f,0x20(%ebp,%eiz,2),%bp
  105aa2:	20 64 69 72          	and    %ah,0x72(%ecx,%ebp,2)
  105aa6:	65 63 74 6f 72       	arpl   %si,%gs:0x72(%edi,%ebp,2)
  105aab:	79 21                	jns    105ace <__kernel_rodata_section_start+0xabe>
  105aad:	20 5b 25             	and    %bl,0x25(%ebx)
  105ab0:	73 5d                	jae    105b0f <__kernel_rodata_section_start+0xaff>
  105ab2:	0a 00                	or     (%eax),%al
  105ab4:	56                   	push   %esi
  105ab5:	46                   	inc    %esi
  105ab6:	53                   	push   %ebx
  105ab7:	3a 20                	cmp    (%eax),%ah
  105ab9:	45                   	inc    %ebp
  105aba:	72 72                	jb     105b2e <__kernel_rodata_section_start+0xb1e>
  105abc:	6f                   	outsl  %ds:(%esi),(%dx)
  105abd:	72 20                	jb     105adf <__kernel_rodata_section_start+0xacf>
  105abf:	45                   	inc    %ebp
  105ac0:	4f                   	dec    %edi
  105ac1:	50                   	push   %eax
  105ac2:	20 66 69             	and    %ah,0x69(%esi)
  105ac5:	6c                   	insb   (%dx),%es:(%edi)
  105ac6:	65 20 61 6c          	and    %ah,%gs:0x6c(%ecx)
  105aca:	72 65                	jb     105b31 <__kernel_rodata_section_start+0xb21>
  105acc:	61                   	popa   
  105acd:	64 79 20             	fs jns 105af0 <__kernel_rodata_section_start+0xae0>
  105ad0:	65 78 69             	gs js  105b3c <__kernel_rodata_section_start+0xb2c>
  105ad3:	73 74                	jae    105b49 <__kernel_rodata_section_start+0xb39>
  105ad5:	73 21                	jae    105af8 <__kernel_rodata_section_start+0xae8>
  105ad7:	20 5b 25             	and    %bl,0x25(%ebx)
  105ada:	73 5d                	jae    105b39 <__kernel_rodata_section_start+0xb29>
  105adc:	0a 00                	or     (%eax),%al
  105ade:	00 00                	add    %al,(%eax)
  105ae0:	56                   	push   %esi
  105ae1:	46                   	inc    %esi
  105ae2:	53                   	push   %ebx
  105ae3:	3a 20                	cmp    (%eax),%ah
  105ae5:	45                   	inc    %ebp
  105ae6:	72 72                	jb     105b5a <__kernel_rodata_section_start+0xb4a>
  105ae8:	6f                   	outsl  %ds:(%esi),(%dx)
  105ae9:	72 20                	jb     105b0b <__kernel_rodata_section_start+0xafb>
  105aeb:	45                   	inc    %ebp
  105aec:	4f                   	dec    %edi
  105aed:	50                   	push   %eax
  105aee:	20 61 20             	and    %ah,0x20(%ecx)
  105af1:	64 69 72 65 63 74 6f 	imul   $0x726f7463,%fs:0x65(%edx),%esi
  105af8:	72 
  105af9:	79 20                	jns    105b1b <__kernel_rodata_section_start+0xb0b>
  105afb:	77 69                	ja     105b66 <__kernel_rodata_section_start+0xb56>
  105afd:	74 68                	je     105b67 <__kernel_rodata_section_start+0xb57>
  105aff:	20 74 68 69          	and    %dh,0x69(%eax,%ebp,2)
  105b03:	73 20                	jae    105b25 <__kernel_rodata_section_start+0xb15>
  105b05:	6e                   	outsb  %ds:(%esi),(%dx)
  105b06:	61                   	popa   
  105b07:	6d                   	insl   (%dx),%es:(%edi)
  105b08:	65 20 61 6c          	and    %ah,%gs:0x6c(%ecx)
  105b0c:	72 65                	jb     105b73 <__kernel_rodata_section_start+0xb63>
  105b0e:	61                   	popa   
  105b0f:	64 79 20             	fs jns 105b32 <__kernel_rodata_section_start+0xb22>
  105b12:	65 78 69             	gs js  105b7e <__kernel_rodata_section_start+0xb6e>
  105b15:	73 74                	jae    105b8b <__kernel_rodata_section_start+0xb7b>
  105b17:	73 21                	jae    105b3a <__kernel_rodata_section_start+0xb2a>
  105b19:	20 5b 25             	and    %bl,0x25(%ebx)
  105b1c:	73 5d                	jae    105b7b <__kernel_rodata_section_start+0xb6b>
  105b1e:	0a 00                	or     (%eax),%al
  105b20:	56                   	push   %esi
  105b21:	46                   	inc    %esi
  105b22:	53                   	push   %ebx
  105b23:	3a 20                	cmp    (%eax),%ah
  105b25:	45                   	inc    %ebp
  105b26:	72 72                	jb     105b9a <__kernel_rodata_section_start+0xb8a>
  105b28:	6f                   	outsl  %ds:(%esi),(%dx)
  105b29:	72 20                	jb     105b4b <__kernel_rodata_section_start+0xb3b>
  105b2b:	64 69 72 65 63 74 6f 	imul   $0x726f7463,%fs:0x65(%edx),%esi
  105b32:	72 
  105b33:	79 20                	jns    105b55 <__kernel_rodata_section_start+0xb45>
  105b35:	69 73 20 66 75 6c 6c 	imul   $0x6c6c7566,0x20(%ebx),%esi
  105b3c:	21 20                	and    %esp,(%eax)
  105b3e:	5b                   	pop    %ebx
  105b3f:	25 73 5d 0a 00       	and    $0xa5d73,%eax
  105b44:	00 00                	add    %al,(%eax)
  105b46:	00 00                	add    %al,(%eax)
  105b48:	56                   	push   %esi
  105b49:	46                   	inc    %esi
  105b4a:	53                   	push   %ebx
  105b4b:	3a 20                	cmp    (%eax),%ah
  105b4d:	45                   	inc    %ebp
  105b4e:	72 72                	jb     105bc2 <__kernel_rodata_section_start+0xbb2>
  105b50:	6f                   	outsl  %ds:(%esi),(%dx)
  105b51:	72 20                	jb     105b73 <__kernel_rodata_section_start+0xb63>
  105b53:	45                   	inc    %ebp
  105b54:	4f                   	dec    %edi
  105b55:	50                   	push   %eax
  105b56:	20 64 69 72          	and    %ah,0x72(%ecx,%ebp,2)
  105b5a:	65 63 74 6f 72       	arpl   %si,%gs:0x72(%edi,%ebp,2)
  105b5f:	79 20                	jns    105b81 <__kernel_rodata_section_start+0xb71>
  105b61:	61                   	popa   
  105b62:	6c                   	insb   (%dx),%es:(%edi)
  105b63:	72 65                	jb     105bca <__kernel_rodata_section_start+0xbba>
  105b65:	61                   	popa   
  105b66:	64 79 20             	fs jns 105b89 <__kernel_rodata_section_start+0xb79>
  105b69:	65 78 69             	gs js  105bd5 <__kernel_rodata_section_start+0xbc5>
  105b6c:	73 74                	jae    105be2 <__kernel_rodata_section_start+0xbd2>
  105b6e:	73 21                	jae    105b91 <__kernel_rodata_section_start+0xb81>
  105b70:	20 5b 25             	and    %bl,0x25(%ebx)
  105b73:	73 5d                	jae    105bd2 <__kernel_rodata_section_start+0xbc2>
  105b75:	0a 00                	or     (%eax),%al
  105b77:	00 56 46             	add    %dl,0x46(%esi)
  105b7a:	53                   	push   %ebx
  105b7b:	3a 20                	cmp    (%eax),%ah
  105b7d:	45                   	inc    %ebp
  105b7e:	72 72                	jb     105bf2 <__kernel_rodata_section_start+0xbe2>
  105b80:	6f                   	outsl  %ds:(%esi),(%dx)
  105b81:	72 20                	jb     105ba3 <__kernel_rodata_section_start+0xb93>
  105b83:	45                   	inc    %ebp
  105b84:	4f                   	dec    %edi
  105b85:	50                   	push   %eax
  105b86:	20 61 20             	and    %ah,0x20(%ecx)
  105b89:	66 69 6c 65 20 77 69 	imul   $0x6977,0x20(%ebp,%eiz,2),%bp
  105b90:	74 68                	je     105bfa <__kernel_rodata_section_start+0xbea>
  105b92:	20 74 68 69          	and    %dh,0x69(%eax,%ebp,2)
  105b96:	73 20                	jae    105bb8 <__kernel_rodata_section_start+0xba8>
  105b98:	6e                   	outsb  %ds:(%esi),(%dx)
  105b99:	61                   	popa   
  105b9a:	6d                   	insl   (%dx),%es:(%edi)
  105b9b:	65 20 61 6c          	and    %ah,%gs:0x6c(%ecx)
  105b9f:	72 65                	jb     105c06 <__kernel_rodata_section_start+0xbf6>
  105ba1:	61                   	popa   
  105ba2:	64 79 20             	fs jns 105bc5 <__kernel_rodata_section_start+0xbb5>
  105ba5:	65 78 69             	gs js  105c11 <__kernel_rodata_section_start+0xc01>
  105ba8:	73 74                	jae    105c1e <__kernel_rodata_section_start+0xc0e>
  105baa:	73 21                	jae    105bcd <__kernel_rodata_section_start+0xbbd>
  105bac:	20 5b 25             	and    %bl,0x25(%ebx)
  105baf:	73 5d                	jae    105c0e <__kernel_rodata_section_start+0xbfe>
  105bb1:	0a 00                	or     (%eax),%al
  105bb3:	00 51 75             	add    %dl,0x75(%ecx)
  105bb6:	61                   	popa   
  105bb7:	6e                   	outsb  %ds:(%esi),(%dx)
  105bb8:	74 75                	je     105c2f <__kernel_rodata_section_start+0xc1f>
  105bba:	6d                   	insl   (%dx),%es:(%edi)
  105bbb:	4f                   	dec    %edi
  105bbc:	53                   	push   %ebx
  105bbd:	20 3e                	and    %bh,(%esi)
  105bbf:	20 00                	and    %al,(%eax)
  105bc1:	65 72 72             	gs jb  105c36 <__kernel_rodata_section_start+0xc26>
  105bc4:	21 0a                	and    %ecx,(%edx)
  105bc6:	00 20                	add    %ah,(%eax)
  105bc8:	00 0a                	add    %cl,(%edx)
  105bca:	00 68 65             	add    %ch,0x65(%eax)
  105bcd:	6c                   	insb   (%dx),%es:(%edi)
  105bce:	70 00                	jo     105bd0 <__kernel_rodata_section_start+0xbc0>
  105bd0:	48                   	dec    %eax
  105bd1:	65 6c                	gs insb (%dx),%es:(%edi)
  105bd3:	70 20                	jo     105bf5 <__kernel_rodata_section_start+0xbe5>
  105bd5:	70 61                	jo     105c38 <__kernel_rodata_section_start+0xc28>
  105bd7:	67 65 3a 0a          	cmp    %gs:(%bp,%si),%cl
  105bdb:	72 65                	jb     105c42 <__kernel_rodata_section_start+0xc32>
  105bdd:	62 6f 6f             	bound  %ebp,0x6f(%edi)
  105be0:	74 3a                	je     105c1c <__kernel_rodata_section_start+0xc0c>
  105be2:	20 20                	and    %ah,(%eax)
  105be4:	20 20                	and    %ah,(%eax)
  105be6:	20 52 65             	and    %dl,0x65(%edx)
  105be9:	62 6f 6f             	bound  %ebp,0x6f(%edi)
  105bec:	74 20                	je     105c0e <__kernel_rodata_section_start+0xbfe>
  105bee:	74 68                	je     105c58 <__kernel_rodata_section_start+0xc48>
  105bf0:	65 20 73 79          	and    %dh,%gs:0x79(%ebx)
  105bf4:	73 74                	jae    105c6a <__kernel_rodata_section_start+0xc5a>
  105bf6:	65 6d                	gs insl (%dx),%es:(%edi)
  105bf8:	2e 0a 74 69 6d       	or     %cs:0x6d(%ecx,%ebp,2),%dh
  105bfd:	65 3a 20             	cmp    %gs:(%eax),%ah
  105c00:	20 20                	and    %ah,(%eax)
  105c02:	20 20                	and    %ah,(%eax)
  105c04:	20 20                	and    %ah,(%eax)
  105c06:	53                   	push   %ebx
  105c07:	68 6f 77 20 63       	push   $0x6320776f
  105c0c:	75 72                	jne    105c80 <__kernel_rodata_section_start+0xc70>
  105c0e:	72 65                	jb     105c75 <__kernel_rodata_section_start+0xc65>
  105c10:	6e                   	outsb  %ds:(%esi),(%dx)
  105c11:	74 20                	je     105c33 <__kernel_rodata_section_start+0xc23>
  105c13:	74 69                	je     105c7e <__kernel_rodata_section_start+0xc6e>
  105c15:	6d                   	insl   (%dx),%es:(%edi)
  105c16:	65 2e 0a 75 73       	gs or  %cs:0x73(%ebp),%dh
  105c1b:	65 72 73             	gs jb  105c91 <__kernel_rodata_section_start+0xc81>
  105c1e:	70 61                	jo     105c81 <__kernel_rodata_section_start+0xc71>
  105c20:	63 65 3a             	arpl   %sp,0x3a(%ebp)
  105c23:	20 20                	and    %ah,(%eax)
  105c25:	51                   	push   %ecx
  105c26:	75 69                	jne    105c91 <__kernel_rodata_section_start+0xc81>
  105c28:	74 20                	je     105c4a <__kernel_rodata_section_start+0xc3a>
  105c2a:	6b 65 72 6e          	imul   $0x6e,0x72(%ebp),%esp
  105c2e:	65 6c                	gs insb (%dx),%es:(%edi)
  105c30:	2d 6d 6f 64 65       	sub    $0x65646f6d,%eax
  105c35:	20 61 6e             	and    %ah,0x6e(%ecx)
  105c38:	64 20 67 6f          	and    %ah,%fs:0x6f(%edi)
  105c3c:	20 69 6e             	and    %ch,0x6e(%ecx)
  105c3f:	74 6f                	je     105cb0 <__kernel_rodata_section_end+0x14>
  105c41:	20 75 73             	and    %dh,0x73(%ebp)
  105c44:	65 72 73             	gs jb  105cba <__kernel_rodata_section_end+0x1e>
  105c47:	70 61                	jo     105caa <__kernel_rodata_section_end+0xe>
  105c49:	63 65 21             	arpl   %sp,0x21(%ebp)
  105c4c:	0a 68 65             	or     0x65(%eax),%ch
  105c4f:	6c                   	insb   (%dx),%es:(%edi)
  105c50:	70 3a                	jo     105c8c <__kernel_rodata_section_start+0xc7c>
  105c52:	20 20                	and    %ah,(%eax)
  105c54:	20 20                	and    %ah,(%eax)
  105c56:	20 20                	and    %ah,(%eax)
  105c58:	20 44 69 73          	and    %al,0x73(%ecx,%ebp,2)
  105c5c:	70 6c                	jo     105cca <__kernel_rodata_section_end+0x2e>
  105c5e:	61                   	popa   
  105c5f:	79 20                	jns    105c81 <__kernel_rodata_section_start+0xc71>
  105c61:	74 68                	je     105ccb <__kernel_rodata_section_end+0x2f>
  105c63:	69 73 20 68 65 6c 70 	imul   $0x706c6568,0x20(%ebx),%esi
  105c6a:	20 77 69             	and    %dh,0x69(%edi)
  105c6d:	6e                   	outsb  %ds:(%esi),(%dx)
  105c6e:	64 6f                	outsl  %fs:(%esi),(%dx)
  105c70:	77 2e                	ja     105ca0 <__kernel_rodata_section_end+0x4>
  105c72:	0a 00                	or     (%eax),%al
  105c74:	72 65                	jb     105cdb <__kernel_rodata_section_end+0x3f>
  105c76:	62 6f 6f             	bound  %ebp,0x6f(%edi)
  105c79:	74 00                	je     105c7b <__kernel_rodata_section_start+0xc6b>
  105c7b:	75 73                	jne    105cf0 <__kernel_rodata_section_end+0x54>
  105c7d:	65 72 73             	gs jb  105cf3 <__kernel_rodata_section_end+0x57>
  105c80:	70 61                	jo     105ce3 <__kernel_rodata_section_end+0x47>
  105c82:	63 65 00             	arpl   %sp,0x0(%ebp)
  105c85:	49                   	dec    %ecx
  105c86:	6e                   	outsb  %ds:(%esi),(%dx)
  105c87:	76 61                	jbe    105cea <__kernel_rodata_section_end+0x4e>
  105c89:	6c                   	insb   (%dx),%es:(%edi)
  105c8a:	69 64 20 63 6f 6d 6d 	imul   $0x616d6d6f,0x63(%eax,%eiz,1),%esp
  105c91:	61 
  105c92:	6e                   	outsb  %ds:(%esi),(%dx)
  105c93:	64 3a 20             	cmp    %fs:(%eax),%ah
  105c96:	5b                   	pop    %ebx
  105c97:	25 73 5d 0a 00       	and    $0xa5d73,%eax

Disassembly of section .eh_frame:

00105c9c <.eh_frame>:
  105c9c:	14 00                	adc    $0x0,%al
  105c9e:	00 00                	add    %al,(%eax)
  105ca0:	00 00                	add    %al,(%eax)
  105ca2:	00 00                	add    %al,(%eax)
  105ca4:	01 7a 52             	add    %edi,0x52(%edx)
  105ca7:	00 01                	add    %al,(%ecx)
  105ca9:	7c 08                	jl     105cb3 <__kernel_rodata_section_end+0x17>
  105cab:	01 1b                	add    %ebx,(%ebx)
  105cad:	0c 04                	or     $0x4,%al
  105caf:	04 88                	add    $0x88,%al
  105cb1:	01 00                	add    %eax,(%eax)
  105cb3:	00 20                	add    %ah,(%eax)
  105cb5:	00 00                	add    %al,(%eax)
  105cb7:	00 1c 00             	add    %bl,(%eax,%eax,1)
  105cba:	00 00                	add    %al,(%eax)
  105cbc:	87 a3 ff ff be 00    	xchg   %esp,0xbeffff(%ebx)
  105cc2:	00 00                	add    %al,(%eax)
  105cc4:	00 41 0e             	add    %al,0xe(%ecx)
  105cc7:	08 85 02 42 0d 05    	or     %al,0x50d4202(%ebp)
  105ccd:	44                   	inc    %esp
  105cce:	83 03 02             	addl   $0x2,(%ebx)
  105cd1:	b6 c5                	mov    $0xc5,%dh
  105cd3:	c3                   	ret    
  105cd4:	0c 04                	or     $0x4,%al
  105cd6:	04 00                	add    $0x0,%al
  105cd8:	10 00                	adc    %al,(%eax)
  105cda:	00 00                	add    %al,(%eax)
  105cdc:	40                   	inc    %eax
  105cdd:	00 00                	add    %al,(%eax)
  105cdf:	00 20                	add    %ah,(%eax)
  105ce1:	f3 ff                	repz (bad) 
  105ce3:	ff 04 00             	incl   (%eax,%eax,1)
  105ce6:	00 00                	add    %al,(%eax)
  105ce8:	00 00                	add    %al,(%eax)
  105cea:	00 00                	add    %al,(%eax)
  105cec:	18 00                	sbb    %al,(%eax)
  105cee:	00 00                	add    %al,(%eax)
  105cf0:	54                   	push   %esp
  105cf1:	00 00                	add    %al,(%eax)
  105cf3:	00 0d a4 ff ff 35    	add    %cl,0x35ffffa4
  105cf9:	00 00                	add    %al,(%eax)
  105cfb:	00 00                	add    %al,(%eax)
  105cfd:	41                   	inc    %ecx
  105cfe:	0e                   	push   %cs
  105cff:	08 85 02 42 0d 05    	or     %al,0x50d4202(%ebp)
  105d05:	44                   	inc    %esp
  105d06:	83 03 20             	addl   $0x20,(%ebx)
  105d09:	00 00                	add    %al,(%eax)
  105d0b:	00 70 00             	add    %dh,0x0(%eax)
  105d0e:	00 00                	add    %al,(%eax)
  105d10:	26 a4                	movsb  %es:(%esi),%es:(%edi)
  105d12:	ff                   	(bad)  
  105d13:	ff                   	(bad)  
  105d14:	7c 00                	jl     105d16 <__kernel_rodata_section_end+0x7a>
  105d16:	00 00                	add    %al,(%eax)
  105d18:	00 41 0e             	add    %al,0xe(%ecx)
  105d1b:	08 85 02 42 0d 05    	or     %al,0x50d4202(%ebp)
  105d21:	44                   	inc    %esp
  105d22:	83 03 02             	addl   $0x2,(%ebx)
  105d25:	74 c5                	je     105cec <__kernel_rodata_section_end+0x50>
  105d27:	c3                   	ret    
  105d28:	0c 04                	or     $0x4,%al
  105d2a:	04 00                	add    $0x0,%al
  105d2c:	20 00                	and    %al,(%eax)
  105d2e:	00 00                	add    %al,(%eax)
  105d30:	94                   	xchg   %eax,%esp
  105d31:	00 00                	add    %al,(%eax)
  105d33:	00 7e a4             	add    %bh,-0x5c(%esi)
  105d36:	ff                   	(bad)  
  105d37:	ff 6f 00             	ljmp   *0x0(%edi)
  105d3a:	00 00                	add    %al,(%eax)
  105d3c:	00 41 0e             	add    %al,0xe(%ecx)
  105d3f:	08 85 02 42 0d 05    	or     %al,0x50d4202(%ebp)
  105d45:	44                   	inc    %esp
  105d46:	83 03 02             	addl   $0x2,(%ebx)
  105d49:	67 c5 c3 0c          	(bad)
  105d4d:	04 04                	add    $0x4,%al
  105d4f:	00 1c 00             	add    %bl,(%eax,%eax,1)
  105d52:	00 00                	add    %al,(%eax)
  105d54:	b8 00 00 00 c9       	mov    $0xc9000000,%eax
  105d59:	a4                   	movsb  %ds:(%esi),%es:(%edi)
  105d5a:	ff                   	(bad)  
  105d5b:	ff 27                	jmp    *(%edi)
  105d5d:	00 00                	add    %al,(%eax)
  105d5f:	00 00                	add    %al,(%eax)
  105d61:	41                   	inc    %ecx
  105d62:	0e                   	push   %cs
  105d63:	08 85 02 42 0d 05    	or     %al,0x50d4202(%ebp)
  105d69:	63 c5                	arpl   %ax,%bp
  105d6b:	0c 04                	or     $0x4,%al
  105d6d:	04 00                	add    $0x0,%al
  105d6f:	00 1c 00             	add    %bl,(%eax,%eax,1)
  105d72:	00 00                	add    %al,(%eax)
  105d74:	d8 00                	fadds  (%eax)
  105d76:	00 00                	add    %al,(%eax)
  105d78:	d0 a4 ff ff 25 00 00 	shlb   0x25ff(%edi,%edi,8)
  105d7f:	00 00                	add    %al,(%eax)
  105d81:	41                   	inc    %ecx
  105d82:	0e                   	push   %cs
  105d83:	08 85 02 42 0d 05    	or     %al,0x50d4202(%ebp)
  105d89:	61                   	popa   
  105d8a:	c5 0c 04             	lds    (%esp,%eax,1),%ecx
  105d8d:	04 00                	add    $0x0,%al
  105d8f:	00 20                	add    %ah,(%eax)
  105d91:	00 00                	add    %al,(%eax)
  105d93:	00 f8                	add    %bh,%al
  105d95:	00 00                	add    %al,(%eax)
  105d97:	00 d5                	add    %dl,%ch
  105d99:	a4                   	movsb  %ds:(%esi),%es:(%edi)
  105d9a:	ff                   	(bad)  
  105d9b:	ff                   	(bad)  
  105d9c:	38 00                	cmp    %al,(%eax)
  105d9e:	00 00                	add    %al,(%eax)
  105da0:	00 41 0e             	add    %al,0xe(%ecx)
  105da3:	08 85 02 42 0d 05    	or     %al,0x50d4202(%ebp)
  105da9:	41                   	inc    %ecx
  105daa:	83 03 73             	addl   $0x73,(%ebx)
  105dad:	c5 c3 0c             	(bad)
  105db0:	04 04                	add    $0x4,%al
  105db2:	00 00                	add    %al,(%eax)
  105db4:	24 00                	and    $0x0,%al
  105db6:	00 00                	add    %al,(%eax)
  105db8:	1c 01                	sbb    $0x1,%al
  105dba:	00 00                	add    %al,(%eax)
  105dbc:	e9 a4 ff ff 87       	jmp    88105d65 <BOOTLOADER_MAGIC+0x5c62ad63>
  105dc1:	00 00                	add    %al,(%eax)
  105dc3:	00 00                	add    %al,(%eax)
  105dc5:	41                   	inc    %ecx
  105dc6:	0e                   	push   %cs
  105dc7:	08 85 02 42 0d 05    	or     %al,0x50d4202(%ebp)
  105dcd:	45                   	inc    %ebp
  105dce:	86 03                	xchg   %al,(%ebx)
  105dd0:	83 04 02 7c          	addl   $0x7c,(%edx,%eax,1)
  105dd4:	c3                   	ret    
  105dd5:	41                   	inc    %ecx
  105dd6:	c6 41 c5 0c          	movb   $0xc,-0x3b(%ecx)
  105dda:	04 04                	add    $0x4,%al
  105ddc:	20 00                	and    %al,(%eax)
  105dde:	00 00                	add    %al,(%eax)
  105de0:	44                   	inc    %esp
  105de1:	01 00                	add    %eax,(%eax)
  105de3:	00 48 a5             	add    %cl,-0x5b(%eax)
  105de6:	ff                   	(bad)  
  105de7:	ff 93 00 00 00 00    	call   *0x0(%ebx)
  105ded:	41                   	inc    %ecx
  105dee:	0e                   	push   %cs
  105def:	08 85 02 42 0d 05    	or     %al,0x50d4202(%ebp)
  105df5:	44                   	inc    %esp
  105df6:	83 03 02             	addl   $0x2,(%ebx)
  105df9:	8b c5                	mov    %ebp,%eax
  105dfb:	c3                   	ret    
  105dfc:	0c 04                	or     $0x4,%al
  105dfe:	04 00                	add    $0x0,%al
  105e00:	20 00                	and    %al,(%eax)
  105e02:	00 00                	add    %al,(%eax)
  105e04:	68 01 00 00 b7       	push   $0xb7000001
  105e09:	a5                   	movsl  %ds:(%esi),%es:(%edi)
  105e0a:	ff                   	(bad)  
  105e0b:	ff 58 00             	lcall  *0x0(%eax)
  105e0e:	00 00                	add    %al,(%eax)
  105e10:	00 41 0e             	add    %al,0xe(%ecx)
  105e13:	08 85 02 42 0d 05    	or     %al,0x50d4202(%ebp)
  105e19:	44                   	inc    %esp
  105e1a:	83 03 02             	addl   $0x2,(%ebx)
  105e1d:	50                   	push   %eax
  105e1e:	c5 c3 0c             	(bad)
  105e21:	04 04                	add    $0x4,%al
  105e23:	00 1c 00             	add    %bl,(%eax,%eax,1)
  105e26:	00 00                	add    %al,(%eax)
  105e28:	8c 01                	mov    %es,(%ecx)
  105e2a:	00 00                	add    %al,(%eax)
  105e2c:	eb a5                	jmp    105dd3 <__kernel_rodata_section_end+0x137>
  105e2e:	ff                   	(bad)  
  105e2f:	ff 44 00 00          	incl   0x0(%eax,%eax,1)
  105e33:	00 00                	add    %al,(%eax)
  105e35:	41                   	inc    %ecx
  105e36:	0e                   	push   %cs
  105e37:	08 85 02 42 0d 05    	or     %al,0x50d4202(%ebp)
  105e3d:	02 40 c5             	add    -0x3b(%eax),%al
  105e40:	0c 04                	or     $0x4,%al
  105e42:	04 00                	add    $0x0,%al
  105e44:	10 00                	adc    %al,(%eax)
  105e46:	00 00                	add    %al,(%eax)
  105e48:	ac                   	lods   %ds:(%esi),%al
  105e49:	01 00                	add    %eax,(%eax)
  105e4b:	00 b8 f1 ff ff 04    	add    %bh,0x4fffff1(%eax)
  105e51:	00 00                	add    %al,(%eax)
  105e53:	00 00                	add    %al,(%eax)
  105e55:	00 00                	add    %al,(%eax)
  105e57:	00 1c 00             	add    %bl,(%eax,%eax,1)
  105e5a:	00 00                	add    %al,(%eax)
  105e5c:	c0 01 00             	rolb   $0x0,(%ecx)
  105e5f:	00 fb                	add    %bh,%bl
  105e61:	a5                   	movsl  %ds:(%esi),%es:(%edi)
  105e62:	ff                   	(bad)  
  105e63:	ff 31                	pushl  (%ecx)
  105e65:	00 00                	add    %al,(%eax)
  105e67:	00 00                	add    %al,(%eax)
  105e69:	41                   	inc    %ecx
  105e6a:	0e                   	push   %cs
  105e6b:	08 85 02 42 0d 05    	or     %al,0x50d4202(%ebp)
  105e71:	6d                   	insl   (%dx),%es:(%edi)
  105e72:	c5 0c 04             	lds    (%esp,%eax,1),%ecx
  105e75:	04 00                	add    $0x0,%al
  105e77:	00 1c 00             	add    %bl,(%eax,%eax,1)
  105e7a:	00 00                	add    %al,(%eax)
  105e7c:	e0 01                	loopne 105e7f <__kernel_rodata_section_end+0x1e3>
  105e7e:	00 00                	add    %al,(%eax)
  105e80:	0c a6                	or     $0xa6,%al
  105e82:	ff                   	(bad)  
  105e83:	ff 1f                	lcall  *(%edi)
  105e85:	00 00                	add    %al,(%eax)
  105e87:	00 00                	add    %al,(%eax)
  105e89:	41                   	inc    %ecx
  105e8a:	0e                   	push   %cs
  105e8b:	08 85 02 42 0d 05    	or     %al,0x50d4202(%ebp)
  105e91:	5b                   	pop    %ebx
  105e92:	c5 0c 04             	lds    (%esp,%eax,1),%ecx
  105e95:	04 00                	add    $0x0,%al
  105e97:	00 1c 00             	add    %bl,(%eax,%eax,1)
  105e9a:	00 00                	add    %al,(%eax)
  105e9c:	00 02                	add    %al,(%edx)
  105e9e:	00 00                	add    %al,(%eax)
  105ea0:	0b a6 ff ff 1f 00    	or     0x1fffff(%esi),%esp
  105ea6:	00 00                	add    %al,(%eax)
  105ea8:	00 41 0e             	add    %al,0xe(%ecx)
  105eab:	08 85 02 42 0d 05    	or     %al,0x50d4202(%ebp)
  105eb1:	5b                   	pop    %ebx
  105eb2:	c5 0c 04             	lds    (%esp,%eax,1),%ecx
  105eb5:	04 00                	add    $0x0,%al
  105eb7:	00 1c 00             	add    %bl,(%eax,%eax,1)
  105eba:	00 00                	add    %al,(%eax)
  105ebc:	20 02                	and    %al,(%edx)
  105ebe:	00 00                	add    %al,(%eax)
  105ec0:	0a a6 ff ff 71 00    	or     0x71ffff(%esi),%ah
  105ec6:	00 00                	add    %al,(%eax)
  105ec8:	00 41 0e             	add    %al,0xe(%ecx)
  105ecb:	08 85 02 42 0d 05    	or     %al,0x50d4202(%ebp)
  105ed1:	02 6d c5             	add    -0x3b(%ebp),%ch
  105ed4:	0c 04                	or     $0x4,%al
  105ed6:	04 00                	add    $0x0,%al
  105ed8:	1c 00                	sbb    $0x0,%al
  105eda:	00 00                	add    %al,(%eax)
  105edc:	40                   	inc    %eax
  105edd:	02 00                	add    (%eax),%al
  105edf:	00 5b a6             	add    %bl,-0x5a(%ebx)
  105ee2:	ff                   	(bad)  
  105ee3:	ff 58 00             	lcall  *0x0(%eax)
  105ee6:	00 00                	add    %al,(%eax)
  105ee8:	00 41 0e             	add    %al,0xe(%ecx)
  105eeb:	08 85 02 42 0d 05    	or     %al,0x50d4202(%ebp)
  105ef1:	02 54 c5 0c          	add    0xc(%ebp,%eax,8),%dl
  105ef5:	04 04                	add    $0x4,%al
  105ef7:	00 1c 00             	add    %bl,(%eax,%eax,1)
  105efa:	00 00                	add    %al,(%eax)
  105efc:	60                   	pusha  
  105efd:	02 00                	add    (%eax),%al
  105eff:	00 93 a6 ff ff 2f    	add    %dl,0x2fffffa6(%ebx)
  105f05:	00 00                	add    %al,(%eax)
  105f07:	00 00                	add    %al,(%eax)
  105f09:	41                   	inc    %ecx
  105f0a:	0e                   	push   %cs
  105f0b:	08 85 02 42 0d 05    	or     %al,0x50d4202(%ebp)
  105f11:	6b c5 0c             	imul   $0xc,%ebp,%eax
  105f14:	04 04                	add    $0x4,%al
  105f16:	00 00                	add    %al,(%eax)
  105f18:	1c 00                	sbb    $0x0,%al
  105f1a:	00 00                	add    %al,(%eax)
  105f1c:	80 02 00             	addb   $0x0,(%edx)
  105f1f:	00 a2 a6 ff ff 43    	add    %ah,0x43ffffa6(%edx)
  105f25:	00 00                	add    %al,(%eax)
  105f27:	00 00                	add    %al,(%eax)
  105f29:	41                   	inc    %ecx
  105f2a:	0e                   	push   %cs
  105f2b:	08 85 02 42 0d 05    	or     %al,0x50d4202(%ebp)
  105f31:	7f c5                	jg     105ef8 <__kernel_rodata_section_end+0x25c>
  105f33:	0c 04                	or     $0x4,%al
  105f35:	04 00                	add    $0x0,%al
  105f37:	00 1c 00             	add    %bl,(%eax,%eax,1)
  105f3a:	00 00                	add    %al,(%eax)
  105f3c:	a0 02 00 00 c5       	mov    0xc5000002,%al
  105f41:	a6                   	cmpsb  %es:(%edi),%ds:(%esi)
  105f42:	ff                   	(bad)  
  105f43:	ff 51 00             	call   *0x0(%ecx)
  105f46:	00 00                	add    %al,(%eax)
  105f48:	00 41 0e             	add    %al,0xe(%ecx)
  105f4b:	08 85 02 42 0d 05    	or     %al,0x50d4202(%ebp)
  105f51:	02 4d c5             	add    -0x3b(%ebp),%cl
  105f54:	0c 04                	or     $0x4,%al
  105f56:	04 00                	add    $0x0,%al
  105f58:	1c 00                	sbb    $0x0,%al
  105f5a:	00 00                	add    %al,(%eax)
  105f5c:	c0 02 00             	rolb   $0x0,(%edx)
  105f5f:	00 f6                	add    %dh,%dh
  105f61:	a6                   	cmpsb  %es:(%edi),%ds:(%esi)
  105f62:	ff                   	(bad)  
  105f63:	ff                   	(bad)  
  105f64:	3f                   	aas    
  105f65:	00 00                	add    %al,(%eax)
  105f67:	00 00                	add    %al,(%eax)
  105f69:	41                   	inc    %ecx
  105f6a:	0e                   	push   %cs
  105f6b:	08 85 02 42 0d 05    	or     %al,0x50d4202(%ebp)
  105f71:	7b c5                	jnp    105f38 <__kernel_rodata_section_end+0x29c>
  105f73:	0c 04                	or     $0x4,%al
  105f75:	04 00                	add    $0x0,%al
  105f77:	00 20                	add    %ah,(%eax)
  105f79:	00 00                	add    %al,(%eax)
  105f7b:	00 e0                	add    %ah,%al
  105f7d:	02 00                	add    (%eax),%al
  105f7f:	00 15 a7 ff ff bb    	add    %dl,0xbbffffa7
  105f85:	00 00                	add    %al,(%eax)
  105f87:	00 00                	add    %al,(%eax)
  105f89:	41                   	inc    %ecx
  105f8a:	0e                   	push   %cs
  105f8b:	08 85 02 42 0d 05    	or     %al,0x50d4202(%ebp)
  105f91:	44                   	inc    %esp
  105f92:	83 03 02             	addl   $0x2,(%ebx)
  105f95:	b3 c5                	mov    $0xc5,%bl
  105f97:	c3                   	ret    
  105f98:	0c 04                	or     $0x4,%al
  105f9a:	04 00                	add    $0x0,%al
  105f9c:	1c 00                	sbb    $0x0,%al
  105f9e:	00 00                	add    %al,(%eax)
  105fa0:	04 03                	add    $0x3,%al
  105fa2:	00 00                	add    %al,(%eax)
  105fa4:	ac                   	lods   %ds:(%esi),%al
  105fa5:	a7                   	cmpsl  %es:(%edi),%ds:(%esi)
  105fa6:	ff                   	(bad)  
  105fa7:	ff 73 00             	pushl  0x0(%ebx)
  105faa:	00 00                	add    %al,(%eax)
  105fac:	00 41 0e             	add    %al,0xe(%ecx)
  105faf:	08 85 02 42 0d 05    	or     %al,0x50d4202(%ebp)
  105fb5:	02 6f c5             	add    -0x3b(%edi),%ch
  105fb8:	0c 04                	or     $0x4,%al
  105fba:	04 00                	add    $0x0,%al
  105fbc:	20 00                	and    %al,(%eax)
  105fbe:	00 00                	add    %al,(%eax)
  105fc0:	24 03                	and    $0x3,%al
  105fc2:	00 00                	add    %al,(%eax)
  105fc4:	ff a7 ff ff 57 00    	jmp    *0x57ffff(%edi)
  105fca:	00 00                	add    %al,(%eax)
  105fcc:	00 41 0e             	add    %al,0xe(%ecx)
  105fcf:	08 85 02 42 0d 05    	or     %al,0x50d4202(%ebp)
  105fd5:	44                   	inc    %esp
  105fd6:	83 03 02             	addl   $0x2,(%ebx)
  105fd9:	4f                   	dec    %edi
  105fda:	c5 c3 0c             	(bad)
  105fdd:	04 04                	add    $0x4,%al
  105fdf:	00 1c 00             	add    %bl,(%eax,%eax,1)
  105fe2:	00 00                	add    %al,(%eax)
  105fe4:	48                   	dec    %eax
  105fe5:	03 00                	add    (%eax),%eax
  105fe7:	00 32                	add    %dh,(%edx)
  105fe9:	a8 ff                	test   $0xff,%al
  105feb:	ff 4f 00             	decl   0x0(%edi)
  105fee:	00 00                	add    %al,(%eax)
  105ff0:	00 41 0e             	add    %al,0xe(%ecx)
  105ff3:	08 85 02 42 0d 05    	or     %al,0x50d4202(%ebp)
  105ff9:	02 4b c5             	add    -0x3b(%ebx),%cl
  105ffc:	0c 04                	or     $0x4,%al
  105ffe:	04 00                	add    $0x0,%al
  106000:	1c 00                	sbb    $0x0,%al
  106002:	00 00                	add    %al,(%eax)
  106004:	68 03 00 00 61       	push   $0x61000003
  106009:	a8 ff                	test   $0xff,%al
  10600b:	ff d4                	call   *%esp
  10600d:	00 00                	add    %al,(%eax)
  10600f:	00 00                	add    %al,(%eax)
  106011:	41                   	inc    %ecx
  106012:	0e                   	push   %cs
  106013:	08 85 02 42 0d 05    	or     %al,0x50d4202(%ebp)
  106019:	02 d0                	add    %al,%dl
  10601b:	c5 0c 04             	lds    (%esp,%eax,1),%ecx
  10601e:	04 00                	add    $0x0,%al
  106020:	1c 00                	sbb    $0x0,%al
  106022:	00 00                	add    %al,(%eax)
  106024:	88 03                	mov    %al,(%ebx)
  106026:	00 00                	add    %al,(%eax)
  106028:	15 a9 ff ff 2b       	adc    $0x2bffffa9,%eax
  10602d:	00 00                	add    %al,(%eax)
  10602f:	00 00                	add    %al,(%eax)
  106031:	41                   	inc    %ecx
  106032:	0e                   	push   %cs
  106033:	08 85 02 42 0d 05    	or     %al,0x50d4202(%ebp)
  106039:	67 c5 0c             	lds    (%si),%ecx
  10603c:	04 04                	add    $0x4,%al
  10603e:	00 00                	add    %al,(%eax)
  106040:	1c 00                	sbb    $0x0,%al
  106042:	00 00                	add    %al,(%eax)
  106044:	a8 03                	test   $0x3,%al
  106046:	00 00                	add    %al,(%eax)
  106048:	20 a9 ff ff 24 00    	and    %ch,0x24ffff(%ecx)
  10604e:	00 00                	add    %al,(%eax)
  106050:	00 41 0e             	add    %al,0xe(%ecx)
  106053:	08 85 02 42 0d 05    	or     %al,0x50d4202(%ebp)
  106059:	60                   	pusha  
  10605a:	c5 0c 04             	lds    (%esp,%eax,1),%ecx
  10605d:	04 00                	add    $0x0,%al
  10605f:	00 20                	add    %ah,(%eax)
  106061:	00 00                	add    %al,(%eax)
  106063:	00 c8                	add    %cl,%al
  106065:	03 00                	add    (%eax),%eax
  106067:	00 24 a9             	add    %ah,(%ecx,%ebp,4)
  10606a:	ff                   	(bad)  
  10606b:	ff 84 00 00 00 00 41 	incl   0x41000000(%eax,%eax,1)
  106072:	0e                   	push   %cs
  106073:	08 85 02 42 0d 05    	or     %al,0x50d4202(%ebp)
  106079:	44                   	inc    %esp
  10607a:	83 03 02             	addl   $0x2,(%ebx)
  10607d:	7c c5                	jl     106044 <__kernel_rodata_section_end+0x3a8>
  10607f:	c3                   	ret    
  106080:	0c 04                	or     $0x4,%al
  106082:	04 00                	add    $0x0,%al
  106084:	1c 00                	sbb    $0x0,%al
  106086:	00 00                	add    %al,(%eax)
  106088:	ec                   	in     (%dx),%al
  106089:	03 00                	add    (%eax),%eax
  10608b:	00 84 a9 ff ff 34 00 	add    %al,0x34ffff(%ecx,%ebp,4)
  106092:	00 00                	add    %al,(%eax)
  106094:	00 41 0e             	add    %al,0xe(%ecx)
  106097:	08 85 02 42 0d 05    	or     %al,0x50d4202(%ebp)
  10609d:	70 c5                	jo     106064 <__kernel_rodata_section_end+0x3c8>
  10609f:	0c 04                	or     $0x4,%al
  1060a1:	04 00                	add    $0x0,%al
  1060a3:	00 20                	add    %ah,(%eax)
  1060a5:	00 00                	add    %al,(%eax)
  1060a7:	00 0c 04             	add    %cl,(%esp,%eax,1)
  1060aa:	00 00                	add    %al,(%eax)
  1060ac:	98                   	cwtl   
  1060ad:	a9 ff ff 4d 00       	test   $0x4dffff,%eax
  1060b2:	00 00                	add    %al,(%eax)
  1060b4:	00 41 0e             	add    %al,0xe(%ecx)
  1060b7:	08 85 02 42 0d 05    	or     %al,0x50d4202(%ebp)
  1060bd:	44                   	inc    %esp
  1060be:	83 03 02             	addl   $0x2,(%ebx)
  1060c1:	45                   	inc    %ebp
  1060c2:	c5 c3 0c             	(bad)
  1060c5:	04 04                	add    $0x4,%al
  1060c7:	00 28                	add    %ch,(%eax)
  1060c9:	00 00                	add    %al,(%eax)
  1060cb:	00 30                	add    %dh,(%eax)
  1060cd:	04 00                	add    $0x0,%al
  1060cf:	00 c1                	add    %al,%cl
  1060d1:	a9 ff ff 81 00       	test   $0x81ffff,%eax
  1060d6:	00 00                	add    %al,(%eax)
  1060d8:	00 41 0e             	add    %al,0xe(%ecx)
  1060db:	08 85 02 42 0d 05    	or     %al,0x50d4202(%ebp)
  1060e1:	46                   	inc    %esi
  1060e2:	87 03                	xchg   %eax,(%ebx)
  1060e4:	86 04 83             	xchg   %al,(%ebx,%eax,4)
  1060e7:	05 02 74 c3 41       	add    $0x41c37402,%eax
  1060ec:	c6 41 c7 41          	movb   $0x41,-0x39(%ecx)
  1060f0:	c5 0c 04             	lds    (%esp,%eax,1),%ecx
  1060f3:	04 28                	add    $0x28,%al
  1060f5:	00 00                	add    %al,(%eax)
  1060f7:	00 5c 04 00          	add    %bl,0x0(%esp,%eax,1)
  1060fb:	00 16                	add    %dl,(%esi)
  1060fd:	aa                   	stos   %al,%es:(%edi)
  1060fe:	ff                   	(bad)  
  1060ff:	ff d3                	call   *%ebx
  106101:	00 00                	add    %al,(%eax)
  106103:	00 00                	add    %al,(%eax)
  106105:	41                   	inc    %ecx
  106106:	0e                   	push   %cs
  106107:	08 85 02 42 0d 05    	or     %al,0x50d4202(%ebp)
  10610d:	46                   	inc    %esi
  10610e:	87 03                	xchg   %eax,(%ebx)
  106110:	86 04 83             	xchg   %al,(%ebx,%eax,4)
  106113:	05 02 c6 c3 41       	add    $0x41c3c602,%eax
  106118:	c6 41 c7 41          	movb   $0x41,-0x39(%ecx)
  10611c:	c5 0c 04             	lds    (%esp,%eax,1),%ecx
  10611f:	04 20                	add    $0x20,%al
  106121:	00 00                	add    %al,(%eax)
  106123:	00 88 04 00 00 bd    	add    %cl,-0x42fffffc(%eax)
  106129:	aa                   	stos   %al,%es:(%edi)
  10612a:	ff                   	(bad)  
  10612b:	ff 20                	jmp    *(%eax)
  10612d:	02 00                	add    (%eax),%al
  10612f:	00 00                	add    %al,(%eax)
  106131:	41                   	inc    %ecx
  106132:	0e                   	push   %cs
  106133:	08 85 02 42 0d 05    	or     %al,0x50d4202(%ebp)
  106139:	47                   	inc    %edi
  10613a:	83 03 03             	addl   $0x3,(%ebx)
  10613d:	15 02 c5 c3 0c       	adc    $0xcc3c502,%eax
  106142:	04 04                	add    $0x4,%al
  106144:	20 00                	and    %al,(%eax)
  106146:	00 00                	add    %al,(%eax)
  106148:	ac                   	lods   %ds:(%esi),%al
  106149:	04 00                	add    $0x0,%al
  10614b:	00 b9 ac ff ff 1a    	add    %bh,0x1affffac(%ecx)
  106151:	02 00                	add    (%eax),%al
  106153:	00 00                	add    %al,(%eax)
  106155:	41                   	inc    %ecx
  106156:	0e                   	push   %cs
  106157:	08 85 02 42 0d 05    	or     %al,0x50d4202(%ebp)
  10615d:	47                   	inc    %edi
  10615e:	83 03 03             	addl   $0x3,(%ebx)
  106161:	0f 02 c5             	lar    %bp,%eax
  106164:	c3                   	ret    
  106165:	0c 04                	or     $0x4,%al
  106167:	04 1c                	add    $0x1c,%al
  106169:	00 00                	add    %al,(%eax)
  10616b:	00 d0                	add    %dl,%al
  10616d:	04 00                	add    $0x0,%al
  10616f:	00 af ae ff ff 19    	add    %ch,0x19ffffae(%edi)
  106175:	00 00                	add    %al,(%eax)
  106177:	00 00                	add    %al,(%eax)
  106179:	41                   	inc    %ecx
  10617a:	0e                   	push   %cs
  10617b:	08 85 02 42 0d 05    	or     %al,0x50d4202(%ebp)
  106181:	55                   	push   %ebp
  106182:	c5 0c 04             	lds    (%esp,%eax,1),%ecx
  106185:	04 00                	add    $0x0,%al
  106187:	00 1c 00             	add    %bl,(%eax,%eax,1)
  10618a:	00 00                	add    %al,(%eax)
  10618c:	f0 04 00             	lock add $0x0,%al
  10618f:	00 a8 ae ff ff 6e    	add    %ch,0x6effffae(%eax)
  106195:	00 00                	add    %al,(%eax)
  106197:	00 00                	add    %al,(%eax)
  106199:	41                   	inc    %ecx
  10619a:	0e                   	push   %cs
  10619b:	08 85 02 42 0d 05    	or     %al,0x50d4202(%ebp)
  1061a1:	02 6a c5             	add    -0x3b(%edx),%ch
  1061a4:	0c 04                	or     $0x4,%al
  1061a6:	04 00                	add    $0x0,%al
  1061a8:	1c 00                	sbb    $0x0,%al
  1061aa:	00 00                	add    %al,(%eax)
  1061ac:	10 05 00 00 f6 ae    	adc    %al,0xaef60000
  1061b2:	ff                   	(bad)  
  1061b3:	ff 64 00 00          	jmp    *0x0(%eax,%eax,1)
  1061b7:	00 00                	add    %al,(%eax)
  1061b9:	41                   	inc    %ecx
  1061ba:	0e                   	push   %cs
  1061bb:	08 85 02 42 0d 05    	or     %al,0x50d4202(%ebp)
  1061c1:	02 60 c5             	add    -0x3b(%eax),%ah
  1061c4:	0c 04                	or     $0x4,%al
  1061c6:	04 00                	add    $0x0,%al
  1061c8:	20 00                	and    %al,(%eax)
  1061ca:	00 00                	add    %al,(%eax)
  1061cc:	30 05 00 00 3a af    	xor    %al,0xaf3a0000
  1061d2:	ff                   	(bad)  
  1061d3:	ff 5e 00             	lcall  *0x0(%esi)
  1061d6:	00 00                	add    %al,(%eax)
  1061d8:	00 41 0e             	add    %al,0xe(%ecx)
  1061db:	08 85 02 42 0d 05    	or     %al,0x50d4202(%ebp)
  1061e1:	44                   	inc    %esp
  1061e2:	83 03 02             	addl   $0x2,(%ebx)
  1061e5:	56                   	push   %esi
  1061e6:	c5 c3 0c             	(bad)
  1061e9:	04 04                	add    $0x4,%al
  1061eb:	00 1c 00             	add    %bl,(%eax,%eax,1)
  1061ee:	00 00                	add    %al,(%eax)
  1061f0:	54                   	push   %esp
  1061f1:	05 00 00 74 af       	add    $0xaf740000,%eax
  1061f6:	ff                   	(bad)  
  1061f7:	ff c7                	inc    %edi
  1061f9:	02 00                	add    (%eax),%al
  1061fb:	00 00                	add    %al,(%eax)
  1061fd:	41                   	inc    %ecx
  1061fe:	0e                   	push   %cs
  1061ff:	08 85 02 42 0d 05    	or     %al,0x50d4202(%ebp)
  106205:	03 c3                	add    %ebx,%eax
  106207:	02 c5                	add    %ch,%al
  106209:	0c 04                	or     $0x4,%al
  10620b:	04 1c                	add    $0x1c,%al
  10620d:	00 00                	add    %al,(%eax)
  10620f:	00 74 05 00          	add    %dh,0x0(%ebp,%eax,1)
  106213:	00 1b                	add    %bl,(%ebx)
  106215:	b2 ff                	mov    $0xff,%dl
  106217:	ff                   	(bad)  
  106218:	7f 00                	jg     10621a <__kernel_rodata_section_end+0x57e>
  10621a:	00 00                	add    %al,(%eax)
  10621c:	00 41 0e             	add    %al,0xe(%ecx)
  10621f:	08 85 02 42 0d 05    	or     %al,0x50d4202(%ebp)
  106225:	02 7b c5             	add    -0x3b(%ebx),%bh
  106228:	0c 04                	or     $0x4,%al
  10622a:	04 00                	add    $0x0,%al
  10622c:	1c 00                	sbb    $0x0,%al
  10622e:	00 00                	add    %al,(%eax)
  106230:	94                   	xchg   %eax,%esp
  106231:	05 00 00 7a b2       	add    $0xb27a0000,%eax
  106236:	ff                   	(bad)  
  106237:	ff ca                	dec    %edx
  106239:	00 00                	add    %al,(%eax)
  10623b:	00 00                	add    %al,(%eax)
  10623d:	41                   	inc    %ecx
  10623e:	0e                   	push   %cs
  10623f:	08 85 02 42 0d 05    	or     %al,0x50d4202(%ebp)
  106245:	02 c6                	add    %dh,%al
  106247:	c5 0c 04             	lds    (%esp,%eax,1),%ecx
  10624a:	04 00                	add    $0x0,%al
  10624c:	10 00                	adc    %al,(%eax)
  10624e:	00 00                	add    %al,(%eax)
  106250:	b4 05                	mov    $0x5,%ah
  106252:	00 00                	add    %al,(%eax)
  106254:	b4 ed                	mov    $0xed,%ah
  106256:	ff                   	(bad)  
  106257:	ff 04 00             	incl   (%eax,%eax,1)
  10625a:	00 00                	add    %al,(%eax)
  10625c:	00 00                	add    %al,(%eax)
  10625e:	00 00                	add    %al,(%eax)
  106260:	1c 00                	sbb    $0x0,%al
  106262:	00 00                	add    %al,(%eax)
  106264:	c8 05 00 00          	enter  $0x5,$0x0
  106268:	10 b3 ff ff 2b 00    	adc    %dh,0x2bffff(%ebx)
  10626e:	00 00                	add    %al,(%eax)
  106270:	00 41 0e             	add    %al,0xe(%ecx)
  106273:	08 85 02 42 0d 05    	or     %al,0x50d4202(%ebp)
  106279:	67 c5 0c             	lds    (%si),%ecx
  10627c:	04 04                	add    $0x4,%al
  10627e:	00 00                	add    %al,(%eax)
  106280:	1c 00                	sbb    $0x0,%al
  106282:	00 00                	add    %al,(%eax)
  106284:	e8 05 00 00 1b       	call   1b10628e <stack_top+0x1afe18f6>
  106289:	b3 ff                	mov    $0xff,%bl
  10628b:	ff 2b                	ljmp   *(%ebx)
  10628d:	00 00                	add    %al,(%eax)
  10628f:	00 00                	add    %al,(%eax)
  106291:	41                   	inc    %ecx
  106292:	0e                   	push   %cs
  106293:	08 85 02 42 0d 05    	or     %al,0x50d4202(%ebp)
  106299:	67 c5 0c             	lds    (%si),%ecx
  10629c:	04 04                	add    $0x4,%al
  10629e:	00 00                	add    %al,(%eax)
  1062a0:	1c 00                	sbb    $0x0,%al
  1062a2:	00 00                	add    %al,(%eax)
  1062a4:	08 06                	or     %al,(%esi)
  1062a6:	00 00                	add    %al,(%eax)
  1062a8:	26 b3 ff             	es mov $0xff,%bl
  1062ab:	ff 22                	jmp    *(%edx)
  1062ad:	00 00                	add    %al,(%eax)
  1062af:	00 00                	add    %al,(%eax)
  1062b1:	41                   	inc    %ecx
  1062b2:	0e                   	push   %cs
  1062b3:	08 85 02 42 0d 05    	or     %al,0x50d4202(%ebp)
  1062b9:	5e                   	pop    %esi
  1062ba:	c5 0c 04             	lds    (%esp,%eax,1),%ecx
  1062bd:	04 00                	add    $0x0,%al
  1062bf:	00 1c 00             	add    %bl,(%eax,%eax,1)
  1062c2:	00 00                	add    %al,(%eax)
  1062c4:	28 06                	sub    %al,(%esi)
  1062c6:	00 00                	add    %al,(%eax)
  1062c8:	28 b3 ff ff 27 00    	sub    %dh,0x27ffff(%ebx)
  1062ce:	00 00                	add    %al,(%eax)
  1062d0:	00 41 0e             	add    %al,0xe(%ecx)
  1062d3:	08 85 02 42 0d 05    	or     %al,0x50d4202(%ebp)
  1062d9:	63 c5                	arpl   %ax,%bp
  1062db:	0c 04                	or     $0x4,%al
  1062dd:	04 00                	add    $0x0,%al
  1062df:	00 1c 00             	add    %bl,(%eax,%eax,1)
  1062e2:	00 00                	add    %al,(%eax)
  1062e4:	48                   	dec    %eax
  1062e5:	06                   	push   %es
  1062e6:	00 00                	add    %al,(%eax)
  1062e8:	2f                   	das    
  1062e9:	b3 ff                	mov    $0xff,%bl
  1062eb:	ff 29                	ljmp   *(%ecx)
  1062ed:	00 00                	add    %al,(%eax)
  1062ef:	00 00                	add    %al,(%eax)
  1062f1:	41                   	inc    %ecx
  1062f2:	0e                   	push   %cs
  1062f3:	08 85 02 42 0d 05    	or     %al,0x50d4202(%ebp)
  1062f9:	65 c5 0c 04          	lds    %gs:(%esp,%eax,1),%ecx
  1062fd:	04 00                	add    $0x0,%al
  1062ff:	00 1c 00             	add    %bl,(%eax,%eax,1)
  106302:	00 00                	add    %al,(%eax)
  106304:	68 06 00 00 38       	push   $0x38000006
  106309:	b3 ff                	mov    $0xff,%bl
  10630b:	ff 26                	jmp    *(%esi)
  10630d:	00 00                	add    %al,(%eax)
  10630f:	00 00                	add    %al,(%eax)
  106311:	41                   	inc    %ecx
  106312:	0e                   	push   %cs
  106313:	08 85 02 42 0d 05    	or     %al,0x50d4202(%ebp)
  106319:	62                   	(bad)  
  10631a:	c5 0c 04             	lds    (%esp,%eax,1),%ecx
  10631d:	04 00                	add    $0x0,%al
  10631f:	00 1c 00             	add    %bl,(%eax,%eax,1)
  106322:	00 00                	add    %al,(%eax)
  106324:	88 06                	mov    %al,(%esi)
  106326:	00 00                	add    %al,(%eax)
  106328:	3e b3 ff             	ds mov $0xff,%bl
  10632b:	ff 1f                	lcall  *(%edi)
  10632d:	00 00                	add    %al,(%eax)
  10632f:	00 00                	add    %al,(%eax)
  106331:	41                   	inc    %ecx
  106332:	0e                   	push   %cs
  106333:	08 85 02 42 0d 05    	or     %al,0x50d4202(%ebp)
  106339:	5b                   	pop    %ebx
  10633a:	c5 0c 04             	lds    (%esp,%eax,1),%ecx
  10633d:	04 00                	add    $0x0,%al
  10633f:	00 1c 00             	add    %bl,(%eax,%eax,1)
  106342:	00 00                	add    %al,(%eax)
  106344:	a8 06                	test   $0x6,%al
  106346:	00 00                	add    %al,(%eax)
  106348:	3d b3 ff ff 26       	cmp    $0x26ffffb3,%eax
  10634d:	00 00                	add    %al,(%eax)
  10634f:	00 00                	add    %al,(%eax)
  106351:	41                   	inc    %ecx
  106352:	0e                   	push   %cs
  106353:	08 85 02 42 0d 05    	or     %al,0x50d4202(%ebp)
  106359:	62                   	(bad)  
  10635a:	c5 0c 04             	lds    (%esp,%eax,1),%ecx
  10635d:	04 00                	add    $0x0,%al
  10635f:	00 20                	add    %ah,(%eax)
  106361:	00 00                	add    %al,(%eax)
  106363:	00 c8                	add    %cl,%al
  106365:	06                   	push   %es
  106366:	00 00                	add    %al,(%eax)
  106368:	43                   	inc    %ebx
  106369:	b3 ff                	mov    $0xff,%bl
  10636b:	ff 2b                	ljmp   *(%ebx)
  10636d:	00 00                	add    %al,(%eax)
  10636f:	00 00                	add    %al,(%eax)
  106371:	41                   	inc    %ecx
  106372:	0e                   	push   %cs
  106373:	08 85 02 42 0d 05    	or     %al,0x50d4202(%ebp)
  106379:	44                   	inc    %esp
  10637a:	83 03 63             	addl   $0x63,(%ebx)
  10637d:	c5 c3 0c             	(bad)
  106380:	04 04                	add    $0x4,%al
  106382:	00 00                	add    %al,(%eax)
  106384:	20 00                	and    %al,(%eax)
  106386:	00 00                	add    %al,(%eax)
  106388:	ec                   	in     (%dx),%al
  106389:	06                   	push   %es
  10638a:	00 00                	add    %al,(%eax)
  10638c:	4a                   	dec    %edx
  10638d:	b3 ff                	mov    $0xff,%bl
  10638f:	ff 5c 00 00          	lcall  *0x0(%eax,%eax,1)
  106393:	00 00                	add    %al,(%eax)
  106395:	41                   	inc    %ecx
  106396:	0e                   	push   %cs
  106397:	08 85 02 42 0d 05    	or     %al,0x50d4202(%ebp)
  10639d:	44                   	inc    %esp
  10639e:	83 03 02             	addl   $0x2,(%ebx)
  1063a1:	54                   	push   %esp
  1063a2:	c5 c3 0c             	(bad)
  1063a5:	04 04                	add    $0x4,%al
  1063a7:	00 20                	add    %ah,(%eax)
  1063a9:	00 00                	add    %al,(%eax)
  1063ab:	00 10                	add    %dl,(%eax)
  1063ad:	07                   	pop    %es
  1063ae:	00 00                	add    %al,(%eax)
  1063b0:	82 b3 ff ff 6c 00 00 	xorb   $0x0,0x6cffff(%ebx)
  1063b7:	00 00                	add    %al,(%eax)
  1063b9:	41                   	inc    %ecx
  1063ba:	0e                   	push   %cs
  1063bb:	08 85 02 42 0d 05    	or     %al,0x50d4202(%ebp)
  1063c1:	44                   	inc    %esp
  1063c2:	83 03 02             	addl   $0x2,(%ebx)
  1063c5:	64 c5 c3 0c          	(bad)
  1063c9:	04 04                	add    $0x4,%al
  1063cb:	00 1c 00             	add    %bl,(%eax,%eax,1)
  1063ce:	00 00                	add    %al,(%eax)
  1063d0:	34 07                	xor    $0x7,%al
  1063d2:	00 00                	add    %al,(%eax)
  1063d4:	ca b3 ff             	lret   $0xffb3
  1063d7:	ff 6e 00             	ljmp   *0x0(%esi)
  1063da:	00 00                	add    %al,(%eax)
  1063dc:	00 41 0e             	add    %al,0xe(%ecx)
  1063df:	08 85 02 42 0d 05    	or     %al,0x50d4202(%ebp)
  1063e5:	02 6a c5             	add    -0x3b(%edx),%ch
  1063e8:	0c 04                	or     $0x4,%al
  1063ea:	04 00                	add    $0x0,%al
  1063ec:	20 00                	and    %al,(%eax)
  1063ee:	00 00                	add    %al,(%eax)
  1063f0:	54                   	push   %esp
  1063f1:	07                   	pop    %es
  1063f2:	00 00                	add    %al,(%eax)
  1063f4:	18 b4 ff ff e0 04 00 	sbb    %dh,0x4e0ff(%edi,%edi,8)
  1063fb:	00 00                	add    %al,(%eax)
  1063fd:	41                   	inc    %ecx
  1063fe:	0e                   	push   %cs
  1063ff:	08 85 02 42 0d 05    	or     %al,0x50d4202(%ebp)
  106405:	44                   	inc    %esp
  106406:	83 03 03             	addl   $0x3,(%ebx)
  106409:	d8 04 c5 c3 0c 04 04 	fadds  0x4040cc3(,%eax,8)
  106410:	28 00                	sub    %al,(%eax)
  106412:	00 00                	add    %al,(%eax)
  106414:	78 07                	js     10641d <__kernel_rodata_section_end+0x781>
  106416:	00 00                	add    %al,(%eax)
  106418:	d4 b8                	aam    $0xb8
  10641a:	ff                   	(bad)  
  10641b:	ff                   	(bad)  
  10641c:	e8 00 00 00 00       	call   106421 <__kernel_rodata_section_end+0x785>
  106421:	41                   	inc    %ecx
  106422:	0e                   	push   %cs
  106423:	08 85 02 42 0d 05    	or     %al,0x50d4202(%ebp)
  106429:	46                   	inc    %esi
  10642a:	87 03                	xchg   %eax,(%ebx)
  10642c:	86 04 83             	xchg   %al,(%ebx,%eax,4)
  10642f:	05 02 db c3 41       	add    $0x41c3db02,%eax
  106434:	c6 41 c7 41          	movb   $0x41,-0x39(%ecx)
  106438:	c5 0c 04             	lds    (%esp,%eax,1),%ecx
  10643b:	04 20                	add    $0x20,%al
  10643d:	00 00                	add    %al,(%eax)
  10643f:	00 a4 07 00 00 90 b9 	add    %ah,-0x46700000(%edi,%eax,1)
  106446:	ff                   	(bad)  
  106447:	ff 4c 00 00          	decl   0x0(%eax,%eax,1)
  10644b:	00 00                	add    %al,(%eax)
  10644d:	41                   	inc    %ecx
  10644e:	0e                   	push   %cs
  10644f:	08 85 02 42 0d 05    	or     %al,0x50d4202(%ebp)
  106455:	44                   	inc    %esp
  106456:	83 03 02             	addl   $0x2,(%ebx)
  106459:	44                   	inc    %esp
  10645a:	c5 c3 0c             	(bad)
  10645d:	04 04                	add    $0x4,%al
  10645f:	00 1c 00             	add    %bl,(%eax,%eax,1)
  106462:	00 00                	add    %al,(%eax)
  106464:	c8 07 00 00          	enter  $0x7,$0x0
  106468:	b8 b9 ff ff 14       	mov    $0x14ffffb9,%eax
  10646d:	00 00                	add    %al,(%eax)
  10646f:	00 00                	add    %al,(%eax)
  106471:	41                   	inc    %ecx
  106472:	0e                   	push   %cs
  106473:	08 85 02 42 0d 05    	or     %al,0x50d4202(%ebp)
  106479:	50                   	push   %eax
  10647a:	c5 0c 04             	lds    (%esp,%eax,1),%ecx
  10647d:	04 00                	add    $0x0,%al
  10647f:	00 20                	add    %ah,(%eax)
  106481:	00 00                	add    %al,(%eax)
  106483:	00 e8                	add    %ch,%al
  106485:	07                   	pop    %es
  106486:	00 00                	add    %al,(%eax)
  106488:	ac                   	lods   %ds:(%esi),%al
  106489:	b9 ff ff 51 00       	mov    $0x51ffff,%ecx
  10648e:	00 00                	add    %al,(%eax)
  106490:	00 41 0e             	add    %al,0xe(%ecx)
  106493:	08 85 02 42 0d 05    	or     %al,0x50d4202(%ebp)
  106499:	44                   	inc    %esp
  10649a:	83 03 02             	addl   $0x2,(%ebx)
  10649d:	49                   	dec    %ecx
  10649e:	c5 c3 0c             	(bad)
  1064a1:	04 04                	add    $0x4,%al
  1064a3:	00 1c 00             	add    %bl,(%eax,%eax,1)
  1064a6:	00 00                	add    %al,(%eax)
  1064a8:	0c 08                	or     $0x8,%al
  1064aa:	00 00                	add    %al,(%eax)
  1064ac:	d9 b9 ff ff 98 00    	fnstcw 0x98ffff(%ecx)
  1064b2:	00 00                	add    %al,(%eax)
  1064b4:	00 41 0e             	add    %al,0xe(%ecx)
  1064b7:	08 85 02 42 0d 05    	or     %al,0x50d4202(%ebp)
  1064bd:	02 94 c5 0c 04 04 00 	add    0x4040c(%ebp,%eax,8),%dl
  1064c4:	20 00                	and    %al,(%eax)
  1064c6:	00 00                	add    %al,(%eax)
  1064c8:	2c 08                	sub    $0x8,%al
  1064ca:	00 00                	add    %al,(%eax)
  1064cc:	51                   	push   %ecx
  1064cd:	ba ff ff b1 00       	mov    $0xb1ffff,%edx
  1064d2:	00 00                	add    %al,(%eax)
  1064d4:	00 41 0e             	add    %al,0xe(%ecx)
  1064d7:	08 85 02 42 0d 05    	or     %al,0x50d4202(%ebp)
  1064dd:	44                   	inc    %esp
  1064de:	83 03 02             	addl   $0x2,(%ebx)
  1064e1:	a9 c5 c3 0c 04       	test   $0x40cc3c5,%eax
  1064e6:	04 00                	add    $0x0,%al
  1064e8:	28 00                	sub    %al,(%eax)
  1064ea:	00 00                	add    %al,(%eax)
  1064ec:	50                   	push   %eax
  1064ed:	08 00                	or     %al,(%eax)
  1064ef:	00 47 bc             	add    %al,-0x44(%edi)
  1064f2:	ff                   	(bad)  
  1064f3:	ff 68 00             	ljmp   *0x0(%eax)
  1064f6:	00 00                	add    %al,(%eax)
  1064f8:	00 41 0e             	add    %al,0xe(%ecx)
  1064fb:	08 85 02 42 0d 05    	or     %al,0x50d4202(%ebp)
  106501:	43                   	inc    %ebx
  106502:	87 03                	xchg   %eax,(%ebx)
  106504:	86 04 83             	xchg   %al,(%ebx,%eax,4)
  106507:	05 02 5e c3 41       	add    $0x41c35e02,%eax
  10650c:	c6 41 c7 41          	movb   $0x41,-0x39(%ecx)
  106510:	c5 0c 04             	lds    (%esp,%eax,1),%ecx
  106513:	04 28                	add    $0x28,%al
  106515:	00 00                	add    %al,(%eax)
  106517:	00 7c 08 00          	add    %bh,0x0(%eax,%ecx,1)
  10651b:	00 83 bc ff ff 6a    	add    %al,0x6affffbc(%ebx)
  106521:	00 00                	add    %al,(%eax)
  106523:	00 00                	add    %al,(%eax)
  106525:	41                   	inc    %ecx
  106526:	0e                   	push   %cs
  106527:	08 85 02 42 0d 05    	or     %al,0x50d4202(%ebp)
  10652d:	43                   	inc    %ebx
  10652e:	87 03                	xchg   %eax,(%ebx)
  106530:	86 04 83             	xchg   %al,(%ebx,%eax,4)
  106533:	05 02 60 c3 41       	add    $0x41c36002,%eax
  106538:	c6 41 c7 41          	movb   $0x41,-0x39(%ecx)
  10653c:	c5 0c 04             	lds    (%esp,%eax,1),%ecx
  10653f:	04 20                	add    $0x20,%al
  106541:	00 00                	add    %al,(%eax)
  106543:	00 a8 08 00 00 c1    	add    %ch,-0x3efffff8(%eax)
  106549:	bc ff ff 4b 00       	mov    $0x4bffff,%esp
  10654e:	00 00                	add    %al,(%eax)
  106550:	00 41 0e             	add    %al,0xe(%ecx)
  106553:	08 85 02 42 0d 05    	or     %al,0x50d4202(%ebp)
  106559:	41                   	inc    %ecx
  10655a:	83 03 02             	addl   $0x2,(%ebx)
  10655d:	46                   	inc    %esi
  10655e:	c5 c3 0c             	(bad)
  106561:	04 04                	add    $0x4,%al
  106563:	00 20                	add    %ah,(%eax)
  106565:	00 00                	add    %al,(%eax)
  106567:	00 cc                	add    %cl,%ah
  106569:	08 00                	or     %al,(%eax)
  10656b:	00 e8                	add    %ch,%al
  10656d:	bc ff ff 94 00       	mov    $0x94ffff,%esp
  106572:	00 00                	add    %al,(%eax)
  106574:	00 41 0e             	add    %al,0xe(%ecx)
  106577:	08 85 02 42 0d 05    	or     %al,0x50d4202(%ebp)
  10657d:	44                   	inc    %esp
  10657e:	83 03 02             	addl   $0x2,(%ebx)
  106581:	8c c5                	mov    %es,%ebp
  106583:	c3                   	ret    
  106584:	0c 04                	or     $0x4,%al
  106586:	04 00                	add    $0x0,%al
  106588:	20 00                	and    %al,(%eax)
  10658a:	00 00                	add    %al,(%eax)
  10658c:	f0 08 00             	lock or %al,(%eax)
  10658f:	00 58 bd             	add    %bl,-0x43(%eax)
  106592:	ff                   	(bad)  
  106593:	ff f1                	push   %ecx
  106595:	00 00                	add    %al,(%eax)
  106597:	00 00                	add    %al,(%eax)
  106599:	41                   	inc    %ecx
  10659a:	0e                   	push   %cs
  10659b:	08 85 02 42 0d 05    	or     %al,0x50d4202(%ebp)
  1065a1:	44                   	inc    %esp
  1065a2:	83 03 02             	addl   $0x2,(%ebx)
  1065a5:	e9 c5 c3 0c 04       	jmp    41d296f <stack_top+0x40adfd7>
  1065aa:	04 00                	add    $0x0,%al
  1065ac:	20 00                	and    %al,(%eax)
  1065ae:	00 00                	add    %al,(%eax)
  1065b0:	14 09                	adc    $0x9,%al
  1065b2:	00 00                	add    %al,(%eax)
  1065b4:	25 be ff ff 7b       	and    $0x7bffffbe,%eax
  1065b9:	00 00                	add    %al,(%eax)
  1065bb:	00 00                	add    %al,(%eax)
  1065bd:	41                   	inc    %ecx
  1065be:	0e                   	push   %cs
  1065bf:	08 85 02 42 0d 05    	or     %al,0x50d4202(%ebp)
  1065c5:	44                   	inc    %esp
  1065c6:	83 03 02             	addl   $0x2,(%ebx)
  1065c9:	73 c5                	jae    106590 <__kernel_rodata_section_end+0x8f4>
  1065cb:	c3                   	ret    
  1065cc:	0c 04                	or     $0x4,%al
  1065ce:	04 00                	add    $0x0,%al
  1065d0:	20 00                	and    %al,(%eax)
  1065d2:	00 00                	add    %al,(%eax)
  1065d4:	38 09                	cmp    %cl,(%ecx)
  1065d6:	00 00                	add    %al,(%eax)
  1065d8:	7c be                	jl     106598 <__kernel_rodata_section_end+0x8fc>
  1065da:	ff                   	(bad)  
  1065db:	ff 58 00             	lcall  *0x0(%eax)
  1065de:	00 00                	add    %al,(%eax)
  1065e0:	00 41 0e             	add    %al,0xe(%ecx)
  1065e3:	08 85 02 42 0d 05    	or     %al,0x50d4202(%ebp)
  1065e9:	44                   	inc    %esp
  1065ea:	83 03 02             	addl   $0x2,(%ebx)
  1065ed:	50                   	push   %eax
  1065ee:	c5 c3 0c             	(bad)
  1065f1:	04 04                	add    $0x4,%al
  1065f3:	00 20                	add    %ah,(%eax)
  1065f5:	00 00                	add    %al,(%eax)
  1065f7:	00 5c 09 00          	add    %bl,0x0(%ecx,%ecx,1)
  1065fb:	00 b0 be ff ff 58    	add    %dh,0x58ffffbe(%eax)
  106601:	00 00                	add    %al,(%eax)
  106603:	00 00                	add    %al,(%eax)
  106605:	41                   	inc    %ecx
  106606:	0e                   	push   %cs
  106607:	08 85 02 42 0d 05    	or     %al,0x50d4202(%ebp)
  10660d:	44                   	inc    %esp
  10660e:	83 03 02             	addl   $0x2,(%ebx)
  106611:	50                   	push   %eax
  106612:	c5 c3 0c             	(bad)
  106615:	04 04                	add    $0x4,%al
  106617:	00 20                	add    %ah,(%eax)
  106619:	00 00                	add    %al,(%eax)
  10661b:	00 80 09 00 00 e4    	add    %al,-0x1bfffff7(%eax)
  106621:	be ff ff 73 00       	mov    $0x73ffff,%esi
  106626:	00 00                	add    %al,(%eax)
  106628:	00 41 0e             	add    %al,0xe(%ecx)
  10662b:	08 85 02 42 0d 05    	or     %al,0x50d4202(%ebp)
  106631:	44                   	inc    %esp
  106632:	83 03 02             	addl   $0x2,(%ebx)
  106635:	6b c5 c3             	imul   $0xffffffc3,%ebp,%eax
  106638:	0c 04                	or     $0x4,%al
  10663a:	04 00                	add    $0x0,%al
  10663c:	20 00                	and    %al,(%eax)
  10663e:	00 00                	add    %al,(%eax)
  106640:	a4                   	movsb  %ds:(%esi),%es:(%edi)
  106641:	09 00                	or     %eax,(%eax)
  106643:	00 33                	add    %dh,(%ebx)
  106645:	bf ff ff 96 00       	mov    $0x96ffff,%edi
  10664a:	00 00                	add    %al,(%eax)
  10664c:	00 41 0e             	add    %al,0xe(%ecx)
  10664f:	08 85 02 42 0d 05    	or     %al,0x50d4202(%ebp)
  106655:	44                   	inc    %esp
  106656:	83 03 02             	addl   $0x2,(%ebx)
  106659:	8e c5                	mov    %ebp,%es
  10665b:	c3                   	ret    
  10665c:	0c 04                	or     $0x4,%al
  10665e:	04 00                	add    $0x0,%al
  106660:	20 00                	and    %al,(%eax)
  106662:	00 00                	add    %al,(%eax)
  106664:	c8 09 00 00          	enter  $0x9,$0x0
  106668:	a5                   	movsl  %ds:(%esi),%es:(%edi)
  106669:	bf ff ff 4a 00       	mov    $0x4affff,%edi
  10666e:	00 00                	add    %al,(%eax)
  106670:	00 41 0e             	add    %al,0xe(%ecx)
  106673:	08 85 02 42 0d 05    	or     %al,0x50d4202(%ebp)
  106679:	44                   	inc    %esp
  10667a:	83 03 02             	addl   $0x2,(%ebx)
  10667d:	42                   	inc    %edx
  10667e:	c5 c3 0c             	(bad)
  106681:	04 04                	add    $0x4,%al
  106683:	00 20                	add    %ah,(%eax)
  106685:	00 00                	add    %al,(%eax)
  106687:	00 ec                	add    %ch,%ah
  106689:	09 00                	or     %eax,(%eax)
  10668b:	00 cb                	add    %cl,%bl
  10668d:	bf ff ff 65 00       	mov    $0x65ffff,%edi
  106692:	00 00                	add    %al,(%eax)
  106694:	00 41 0e             	add    %al,0xe(%ecx)
  106697:	08 85 02 42 0d 05    	or     %al,0x50d4202(%ebp)
  10669d:	44                   	inc    %esp
  10669e:	83 03 02             	addl   $0x2,(%ebx)
  1066a1:	5d                   	pop    %ebp
  1066a2:	c5 c3 0c             	(bad)
  1066a5:	04 04                	add    $0x4,%al
  1066a7:	00 10                	add    %dl,(%eax)
  1066a9:	00 00                	add    %al,(%eax)
  1066ab:	00 10                	add    %dl,(%eax)
  1066ad:	0a 00                	or     (%eax),%al
  1066af:	00 5c e9 ff          	add    %bl,-0x1(%ecx,%ebp,8)
  1066b3:	ff 04 00             	incl   (%eax,%eax,1)
  1066b6:	00 00                	add    %al,(%eax)
  1066b8:	00 00                	add    %al,(%eax)
  1066ba:	00 00                	add    %al,(%eax)
  1066bc:	1c 00                	sbb    $0x0,%al
  1066be:	00 00                	add    %al,(%eax)
  1066c0:	24 0a                	and    $0xa,%al
  1066c2:	00 00                	add    %al,(%eax)
  1066c4:	f8                   	clc    
  1066c5:	bf ff ff b5 01       	mov    $0x1b5ffff,%edi
  1066ca:	00 00                	add    %al,(%eax)
  1066cc:	00 41 0e             	add    %al,0xe(%ecx)
  1066cf:	08 85 02 42 0d 05    	or     %al,0x50d4202(%ebp)
  1066d5:	03 b1 01 c5 0c 04    	add    0x40cc501(%ecx),%esi
  1066db:	04 20                	add    $0x20,%al
  1066dd:	00 00                	add    %al,(%eax)
  1066df:	00 44 0a 00          	add    %al,0x0(%edx,%ecx,1)
  1066e3:	00 8d c1 ff ff b8    	add    %cl,-0x4700003f(%ebp)
  1066e9:	00 00                	add    %al,(%eax)
  1066eb:	00 00                	add    %al,(%eax)
  1066ed:	41                   	inc    %ecx
  1066ee:	0e                   	push   %cs
  1066ef:	08 85 02 42 0d 05    	or     %al,0x50d4202(%ebp)
  1066f5:	44                   	inc    %esp
  1066f6:	83 03 02             	addl   $0x2,(%ebx)
  1066f9:	b0 c5                	mov    $0xc5,%al
  1066fb:	c3                   	ret    
  1066fc:	0c 04                	or     $0x4,%al
  1066fe:	04 00                	add    $0x0,%al
  106700:	20 00                	and    %al,(%eax)
  106702:	00 00                	add    %al,(%eax)
  106704:	68 0a 00 00 21       	push   $0x2100000a
  106709:	c2 ff ff             	ret    $0xffff
  10670c:	1e                   	push   %ds
  10670d:	00 00                	add    %al,(%eax)
  10670f:	00 00                	add    %al,(%eax)
  106711:	41                   	inc    %ecx
  106712:	0e                   	push   %cs
  106713:	08 85 02 42 0d 05    	or     %al,0x50d4202(%ebp)
  106719:	44                   	inc    %esp
  10671a:	83 03 56             	addl   $0x56,(%ebx)
  10671d:	c5 c3 0c             	(bad)
  106720:	04 04                	add    $0x4,%al
  106722:	00 00                	add    %al,(%eax)
  106724:	20 00                	and    %al,(%eax)
  106726:	00 00                	add    %al,(%eax)
  106728:	8c 0a                	mov    %cs,(%edx)
  10672a:	00 00                	add    %al,(%eax)
  10672c:	1b c2                	sbb    %edx,%eax
  10672e:	ff                   	(bad)  
  10672f:	ff 1e                	lcall  *(%esi)
  106731:	00 00                	add    %al,(%eax)
  106733:	00 00                	add    %al,(%eax)
  106735:	41                   	inc    %ecx
  106736:	0e                   	push   %cs
  106737:	08 85 02 42 0d 05    	or     %al,0x50d4202(%ebp)
  10673d:	44                   	inc    %esp
  10673e:	83 03 56             	addl   $0x56,(%ebx)
  106741:	c5 c3 0c             	(bad)
  106744:	04 04                	add    $0x4,%al
  106746:	00 00                	add    %al,(%eax)
  106748:	20 00                	and    %al,(%eax)
  10674a:	00 00                	add    %al,(%eax)
  10674c:	b0 0a                	mov    $0xa,%al
  10674e:	00 00                	add    %al,(%eax)
  106750:	15 c2 ff ff 74       	adc    $0x74ffffc2,%eax
  106755:	00 00                	add    %al,(%eax)
  106757:	00 00                	add    %al,(%eax)
  106759:	41                   	inc    %ecx
  10675a:	0e                   	push   %cs
  10675b:	08 85 02 42 0d 05    	or     %al,0x50d4202(%ebp)
  106761:	44                   	inc    %esp
  106762:	83 03 02             	addl   $0x2,(%ebx)
  106765:	6c                   	insb   (%dx),%es:(%edi)
  106766:	c5 c3 0c             	(bad)
  106769:	04 04                	add    $0x4,%al
  10676b:	00 20                	add    %ah,(%eax)
  10676d:	00 00                	add    %al,(%eax)
  10676f:	00 d4                	add    %dl,%ah
  106771:	0a 00                	or     (%eax),%al
  106773:	00 65 c2             	add    %ah,-0x3e(%ebp)
  106776:	ff                   	(bad)  
  106777:	ff 1e                	lcall  *(%esi)
  106779:	00 00                	add    %al,(%eax)
  10677b:	00 00                	add    %al,(%eax)
  10677d:	41                   	inc    %ecx
  10677e:	0e                   	push   %cs
  10677f:	08 85 02 42 0d 05    	or     %al,0x50d4202(%ebp)
  106785:	44                   	inc    %esp
  106786:	83 03 56             	addl   $0x56,(%ebx)
  106789:	c5 c3 0c             	(bad)
  10678c:	04 04                	add    $0x4,%al
  10678e:	00 00                	add    %al,(%eax)
  106790:	20 00                	and    %al,(%eax)
  106792:	00 00                	add    %al,(%eax)
  106794:	f8                   	clc    
  106795:	0a 00                	or     (%eax),%al
  106797:	00 5f c2             	add    %bl,-0x3e(%edi)
  10679a:	ff                   	(bad)  
  10679b:	ff 2c 01             	ljmp   *(%ecx,%eax,1)
  10679e:	00 00                	add    %al,(%eax)
  1067a0:	00 41 0e             	add    %al,0xe(%ecx)
  1067a3:	08 85 02 42 0d 05    	or     %al,0x50d4202(%ebp)
  1067a9:	44                   	inc    %esp
  1067aa:	83 03 03             	addl   $0x3,(%ebx)
  1067ad:	24 01                	and    $0x1,%al
  1067af:	c5 c3 0c             	(bad)
  1067b2:	04 04                	add    $0x4,%al
  1067b4:	20 00                	and    %al,(%eax)
  1067b6:	00 00                	add    %al,(%eax)
  1067b8:	1c 0b                	sbb    $0xb,%al
  1067ba:	00 00                	add    %al,(%eax)
  1067bc:	67 c3                	addr16 ret 
  1067be:	ff                   	(bad)  
  1067bf:	ff 9d 00 00 00 00    	lcall  *0x0(%ebp)
  1067c5:	41                   	inc    %ecx
  1067c6:	0e                   	push   %cs
  1067c7:	08 85 02 42 0d 05    	or     %al,0x50d4202(%ebp)
  1067cd:	44                   	inc    %esp
  1067ce:	83 03 02             	addl   $0x2,(%ebx)
  1067d1:	95                   	xchg   %eax,%ebp
  1067d2:	c5 c3 0c             	(bad)
  1067d5:	04 04                	add    $0x4,%al
  1067d7:	00 20                	add    %ah,(%eax)
  1067d9:	00 00                	add    %al,(%eax)
  1067db:	00 40 0b             	add    %al,0xb(%eax)
  1067de:	00 00                	add    %al,(%eax)
  1067e0:	e0 c3                	loopne 1067a5 <__kernel_rodata_section_end+0xb09>
  1067e2:	ff                   	(bad)  
  1067e3:	ff 40 00             	incl   0x0(%eax)
  1067e6:	00 00                	add    %al,(%eax)
  1067e8:	00 41 0e             	add    %al,0xe(%ecx)
  1067eb:	08 85 02 42 0d 05    	or     %al,0x50d4202(%ebp)
  1067f1:	44                   	inc    %esp
  1067f2:	83 03 78             	addl   $0x78,(%ebx)
  1067f5:	c5 c3 0c             	(bad)
  1067f8:	04 04                	add    $0x4,%al
  1067fa:	00 00                	add    %al,(%eax)
  1067fc:	20 00                	and    %al,(%eax)
  1067fe:	00 00                	add    %al,(%eax)
  106800:	64 0b 00             	or     %fs:(%eax),%eax
  106803:	00 fc                	add    %bh,%ah
  106805:	c3                   	ret    
  106806:	ff                   	(bad)  
  106807:	ff 1e                	lcall  *(%esi)
  106809:	00 00                	add    %al,(%eax)
  10680b:	00 00                	add    %al,(%eax)
  10680d:	41                   	inc    %ecx
  10680e:	0e                   	push   %cs
  10680f:	08 85 02 42 0d 05    	or     %al,0x50d4202(%ebp)
  106815:	44                   	inc    %esp
  106816:	83 03 56             	addl   $0x56,(%ebx)
  106819:	c5 c3 0c             	(bad)
  10681c:	04 04                	add    $0x4,%al
  10681e:	00 00                	add    %al,(%eax)
  106820:	20 00                	and    %al,(%eax)
  106822:	00 00                	add    %al,(%eax)
  106824:	88 0b                	mov    %cl,(%ebx)
  106826:	00 00                	add    %al,(%eax)
  106828:	f6 c3 ff             	test   $0xff,%bl
  10682b:	ff 1e                	lcall  *(%esi)
  10682d:	00 00                	add    %al,(%eax)
  10682f:	00 00                	add    %al,(%eax)
  106831:	41                   	inc    %ecx
  106832:	0e                   	push   %cs
  106833:	08 85 02 42 0d 05    	or     %al,0x50d4202(%ebp)
  106839:	44                   	inc    %esp
  10683a:	83 03 56             	addl   $0x56,(%ebx)
  10683d:	c5 c3 0c             	(bad)
  106840:	04 04                	add    $0x4,%al
  106842:	00 00                	add    %al,(%eax)
  106844:	20 00                	and    %al,(%eax)
  106846:	00 00                	add    %al,(%eax)
  106848:	ac                   	lods   %ds:(%esi),%al
  106849:	0b 00                	or     (%eax),%eax
  10684b:	00 f0                	add    %dh,%al
  10684d:	c3                   	ret    
  10684e:	ff                   	(bad)  
  10684f:	ff 6d 00             	ljmp   *0x0(%ebp)
  106852:	00 00                	add    %al,(%eax)
  106854:	00 41 0e             	add    %al,0xe(%ecx)
  106857:	08 85 02 42 0d 05    	or     %al,0x50d4202(%ebp)
  10685d:	44                   	inc    %esp
  10685e:	83 03 02             	addl   $0x2,(%ebx)
  106861:	65 c5 c3 0c          	(bad)
  106865:	04 04                	add    $0x4,%al
  106867:	00 20                	add    %ah,(%eax)
  106869:	00 00                	add    %al,(%eax)
  10686b:	00 d0                	add    %dl,%al
  10686d:	0b 00                	or     (%eax),%eax
  10686f:	00 39                	add    %bh,(%ecx)
  106871:	c4                   	(bad)  
  106872:	ff                   	(bad)  
  106873:	ff 74 00 00          	pushl  0x0(%eax,%eax,1)
  106877:	00 00                	add    %al,(%eax)
  106879:	41                   	inc    %ecx
  10687a:	0e                   	push   %cs
  10687b:	08 85 02 42 0d 05    	or     %al,0x50d4202(%ebp)
  106881:	44                   	inc    %esp
  106882:	83 03 02             	addl   $0x2,(%ebx)
  106885:	6c                   	insb   (%dx),%es:(%edi)
  106886:	c5 c3 0c             	(bad)
  106889:	04 04                	add    $0x4,%al
  10688b:	00 1c 00             	add    %bl,(%eax,%eax,1)
  10688e:	00 00                	add    %al,(%eax)
  106890:	f4                   	hlt    
  106891:	0b 00                	or     (%eax),%eax
  106893:	00 89 c4 ff ff 2b    	add    %cl,0x2bffffc4(%ecx)
  106899:	00 00                	add    %al,(%eax)
  10689b:	00 00                	add    %al,(%eax)
  10689d:	41                   	inc    %ecx
  10689e:	0e                   	push   %cs
  10689f:	08 85 02 42 0d 05    	or     %al,0x50d4202(%ebp)
  1068a5:	67 c5 0c             	lds    (%si),%ecx
  1068a8:	04 04                	add    $0x4,%al
  1068aa:	00 00                	add    %al,(%eax)
  1068ac:	1c 00                	sbb    $0x0,%al
  1068ae:	00 00                	add    %al,(%eax)
  1068b0:	14 0c                	adc    $0xc,%al
  1068b2:	00 00                	add    %al,(%eax)
  1068b4:	94                   	xchg   %eax,%esp
  1068b5:	c4                   	(bad)  
  1068b6:	ff                   	(bad)  
  1068b7:	ff 4f 00             	decl   0x0(%edi)
  1068ba:	00 00                	add    %al,(%eax)
  1068bc:	00 41 0e             	add    %al,0xe(%ecx)
  1068bf:	08 85 02 42 0d 05    	or     %al,0x50d4202(%ebp)
  1068c5:	02 4b c5             	add    -0x3b(%ebx),%cl
  1068c8:	0c 04                	or     $0x4,%al
  1068ca:	04 00                	add    $0x0,%al
  1068cc:	1c 00                	sbb    $0x0,%al
  1068ce:	00 00                	add    %al,(%eax)
  1068d0:	34 0c                	xor    $0xc,%al
  1068d2:	00 00                	add    %al,(%eax)
  1068d4:	c3                   	ret    
  1068d5:	c4                   	(bad)  
  1068d6:	ff                   	(bad)  
  1068d7:	ff 73 00             	pushl  0x0(%ebx)
  1068da:	00 00                	add    %al,(%eax)
  1068dc:	00 41 0e             	add    %al,0xe(%ecx)
  1068df:	08 85 02 42 0d 05    	or     %al,0x50d4202(%ebp)
  1068e5:	02 6f c5             	add    -0x3b(%edi),%ch
  1068e8:	0c 04                	or     $0x4,%al
  1068ea:	04 00                	add    $0x0,%al
  1068ec:	24 00                	and    $0x0,%al
  1068ee:	00 00                	add    %al,(%eax)
  1068f0:	54                   	push   %esp
  1068f1:	0c 00                	or     $0x0,%al
  1068f3:	00 16                	add    %dl,(%esi)
  1068f5:	c5 ff ff             	(bad)  
  1068f8:	dc 00                	faddl  (%eax)
  1068fa:	00 00                	add    %al,(%eax)
  1068fc:	00 41 0e             	add    %al,0xe(%ecx)
  1068ff:	08 85 02 42 0d 05    	or     %al,0x50d4202(%ebp)
  106905:	45                   	inc    %ebp
  106906:	86 03                	xchg   %al,(%ebx)
  106908:	83 04 02 d1          	addl   $0xffffffd1,(%edx,%eax,1)
  10690c:	c3                   	ret    
  10690d:	41                   	inc    %ecx
  10690e:	c6 41 c5 0c          	movb   $0xc,-0x3b(%ecx)
  106912:	04 04                	add    $0x4,%al
  106914:	1c 00                	sbb    $0x0,%al
  106916:	00 00                	add    %al,(%eax)
  106918:	7c 0c                	jl     106926 <__kernel_rodata_section_end+0xc8a>
  10691a:	00 00                	add    %al,(%eax)
  10691c:	ca c5 ff             	lret   $0xffc5
  10691f:	ff 53 00             	call   *0x0(%ebx)
  106922:	00 00                	add    %al,(%eax)
  106924:	00 41 0e             	add    %al,0xe(%ecx)
  106927:	08 85 02 42 0d 05    	or     %al,0x50d4202(%ebp)
  10692d:	02 4f c5             	add    -0x3b(%edi),%cl
  106930:	0c 04                	or     $0x4,%al
  106932:	04 00                	add    $0x0,%al
  106934:	1c 00                	sbb    $0x0,%al
  106936:	00 00                	add    %al,(%eax)
  106938:	9c                   	pushf  
  106939:	0c 00                	or     $0x0,%al
  10693b:	00 fd                	add    %bh,%ch
  10693d:	c5 ff ff             	(bad)  
  106940:	99                   	cltd   
  106941:	00 00                	add    %al,(%eax)
  106943:	00 00                	add    %al,(%eax)
  106945:	41                   	inc    %ecx
  106946:	0e                   	push   %cs
  106947:	08 85 02 42 0d 05    	or     %al,0x50d4202(%ebp)
  10694d:	02 95 c5 0c 04 04    	add    0x4040cc5(%ebp),%dl
  106953:	00 1c 00             	add    %bl,(%eax,%eax,1)
  106956:	00 00                	add    %al,(%eax)
  106958:	bc 0c 00 00 76       	mov    $0x7600000c,%esp
  10695d:	c6                   	(bad)  
  10695e:	ff                   	(bad)  
  10695f:	ff 4d 00             	decl   0x0(%ebp)
  106962:	00 00                	add    %al,(%eax)
  106964:	00 41 0e             	add    %al,0xe(%ecx)
  106967:	08 85 02 42 0d 05    	or     %al,0x50d4202(%ebp)
  10696d:	02 49 c5             	add    -0x3b(%ecx),%cl
  106970:	0c 04                	or     $0x4,%al
  106972:	04 00                	add    $0x0,%al
  106974:	1c 00                	sbb    $0x0,%al
  106976:	00 00                	add    %al,(%eax)
  106978:	dc 0c 00             	fmull  (%eax,%eax,1)
  10697b:	00 a3 c6 ff ff 3c    	add    %ah,0x3cffffc6(%ebx)
  106981:	00 00                	add    %al,(%eax)
  106983:	00 00                	add    %al,(%eax)
  106985:	41                   	inc    %ecx
  106986:	0e                   	push   %cs
  106987:	08 85 02 42 0d 05    	or     %al,0x50d4202(%ebp)
  10698d:	78 c5                	js     106954 <__kernel_rodata_section_end+0xcb8>
  10698f:	0c 04                	or     $0x4,%al
  106991:	04 00                	add    $0x0,%al
  106993:	00 1c 00             	add    %bl,(%eax,%eax,1)
  106996:	00 00                	add    %al,(%eax)
  106998:	fc                   	cld    
  106999:	0c 00                	or     $0x0,%al
  10699b:	00 bf c6 ff ff 40    	add    %bh,0x40ffffc6(%edi)
  1069a1:	00 00                	add    %al,(%eax)
  1069a3:	00 00                	add    %al,(%eax)
  1069a5:	41                   	inc    %ecx
  1069a6:	0e                   	push   %cs
  1069a7:	08 85 02 42 0d 05    	or     %al,0x50d4202(%ebp)
  1069ad:	7c c5                	jl     106974 <__kernel_rodata_section_end+0xcd8>
  1069af:	0c 04                	or     $0x4,%al
  1069b1:	04 00                	add    $0x0,%al
  1069b3:	00 1c 00             	add    %bl,(%eax,%eax,1)
  1069b6:	00 00                	add    %al,(%eax)
  1069b8:	1c 0d                	sbb    $0xd,%al
  1069ba:	00 00                	add    %al,(%eax)
  1069bc:	df c6                	ffreep %st(6)
  1069be:	ff                   	(bad)  
  1069bf:	ff d7                	call   *%edi
  1069c1:	00 00                	add    %al,(%eax)
  1069c3:	00 00                	add    %al,(%eax)
  1069c5:	41                   	inc    %ecx
  1069c6:	0e                   	push   %cs
  1069c7:	08 85 02 42 0d 05    	or     %al,0x50d4202(%ebp)
  1069cd:	02 d3                	add    %bl,%dl
  1069cf:	c5 0c 04             	lds    (%esp,%eax,1),%ecx
  1069d2:	04 00                	add    $0x0,%al
  1069d4:	20 00                	and    %al,(%eax)
  1069d6:	00 00                	add    %al,(%eax)
  1069d8:	3c 0d                	cmp    $0xd,%al
  1069da:	00 00                	add    %al,(%eax)
  1069dc:	96                   	xchg   %eax,%esi
  1069dd:	c7                   	(bad)  
  1069de:	ff                   	(bad)  
  1069df:	ff 68 00             	ljmp   *0x0(%eax)
  1069e2:	00 00                	add    %al,(%eax)
  1069e4:	00 41 0e             	add    %al,0xe(%ecx)
  1069e7:	08 85 02 42 0d 05    	or     %al,0x50d4202(%ebp)
  1069ed:	44                   	inc    %esp
  1069ee:	83 03 02             	addl   $0x2,(%ebx)
  1069f1:	60                   	pusha  
  1069f2:	c5 c3 0c             	(bad)
  1069f5:	04 04                	add    $0x4,%al
  1069f7:	00 1c 00             	add    %bl,(%eax,%eax,1)
  1069fa:	00 00                	add    %al,(%eax)
  1069fc:	60                   	pusha  
  1069fd:	0d 00 00 da c7       	or     $0xc7da0000,%eax
  106a02:	ff                   	(bad)  
  106a03:	ff 33                	pushl  (%ebx)
  106a05:	00 00                	add    %al,(%eax)
  106a07:	00 00                	add    %al,(%eax)
  106a09:	41                   	inc    %ecx
  106a0a:	0e                   	push   %cs
  106a0b:	08 85 02 42 0d 05    	or     %al,0x50d4202(%ebp)
  106a11:	6f                   	outsl  %ds:(%esi),(%dx)
  106a12:	c5 0c 04             	lds    (%esp,%eax,1),%ecx
  106a15:	04 00                	add    $0x0,%al
  106a17:	00 20                	add    %ah,(%eax)
  106a19:	00 00                	add    %al,(%eax)
  106a1b:	00 80 0d 00 00 ed    	add    %al,-0x12fffff3(%eax)
  106a21:	c7                   	(bad)  
  106a22:	ff                   	(bad)  
  106a23:	ff                   	(bad)  
  106a24:	bc 00 00 00 00       	mov    $0x0,%esp
  106a29:	41                   	inc    %ecx
  106a2a:	0e                   	push   %cs
  106a2b:	08 85 02 42 0d 05    	or     %al,0x50d4202(%ebp)
  106a31:	44                   	inc    %esp
  106a32:	83 03 02             	addl   $0x2,(%ebx)
  106a35:	b4 c5                	mov    $0xc5,%ah
  106a37:	c3                   	ret    
  106a38:	0c 04                	or     $0x4,%al
  106a3a:	04 00                	add    $0x0,%al
  106a3c:	20 00                	and    %al,(%eax)
  106a3e:	00 00                	add    %al,(%eax)
  106a40:	a4                   	movsb  %ds:(%esi),%es:(%edi)
  106a41:	0d 00 00 85 c8       	or     $0xc8850000,%eax
  106a46:	ff                   	(bad)  
  106a47:	ff 11                	call   *(%ecx)
  106a49:	02 00                	add    (%eax),%al
  106a4b:	00 00                	add    %al,(%eax)
  106a4d:	41                   	inc    %ecx
  106a4e:	0e                   	push   %cs
  106a4f:	08 85 02 42 0d 05    	or     %al,0x50d4202(%ebp)
  106a55:	44                   	inc    %esp
  106a56:	83 03 03             	addl   $0x3,(%ebx)
  106a59:	09 02                	or     %eax,(%edx)
  106a5b:	c5 c3 0c             	(bad)
  106a5e:	04 04                	add    $0x4,%al
  106a60:	20 00                	and    %al,(%eax)
  106a62:	00 00                	add    %al,(%eax)
  106a64:	c8 0d 00 00          	enter  $0xd,$0x0
  106a68:	72 ca                	jb     106a34 <__kernel_rodata_section_end+0xd98>
  106a6a:	ff                   	(bad)  
  106a6b:	ff 47 00             	incl   0x0(%edi)
  106a6e:	00 00                	add    %al,(%eax)
  106a70:	00 41 0e             	add    %al,0xe(%ecx)
  106a73:	08 85 02 42 0d 05    	or     %al,0x50d4202(%ebp)
  106a79:	44                   	inc    %esp
  106a7a:	83 03 7f             	addl   $0x7f,(%ebx)
  106a7d:	c5 c3 0c             	(bad)
  106a80:	04 04                	add    $0x4,%al
  106a82:	00 00                	add    %al,(%eax)
  106a84:	1c 00                	sbb    $0x0,%al
  106a86:	00 00                	add    %al,(%eax)
  106a88:	ec                   	in     (%dx),%al
  106a89:	0d 00 00 95 ca       	or     $0xca950000,%eax
  106a8e:	ff                   	(bad)  
  106a8f:	ff 15 00 00 00 00    	call   *0x0
  106a95:	41                   	inc    %ecx
  106a96:	0e                   	push   %cs
  106a97:	08 85 02 42 0d 05    	or     %al,0x50d4202(%ebp)
  106a9d:	51                   	push   %ecx
  106a9e:	c5 0c 04             	lds    (%esp,%eax,1),%ecx
  106aa1:	04 00                	add    $0x0,%al
  106aa3:	00 1c 00             	add    %bl,(%eax,%eax,1)
  106aa6:	00 00                	add    %al,(%eax)
  106aa8:	0c 0e                	or     $0xe,%al
  106aaa:	00 00                	add    %al,(%eax)
  106aac:	8a ca                	mov    %dl,%cl
  106aae:	ff                   	(bad)  
  106aaf:	ff 15 00 00 00 00    	call   *0x0
  106ab5:	41                   	inc    %ecx
  106ab6:	0e                   	push   %cs
  106ab7:	08 85 02 42 0d 05    	or     %al,0x50d4202(%ebp)
  106abd:	51                   	push   %ecx
  106abe:	c5 0c 04             	lds    (%esp,%eax,1),%ecx
  106ac1:	04 00                	add    $0x0,%al
  106ac3:	00 20                	add    %ah,(%eax)
  106ac5:	00 00                	add    %al,(%eax)
  106ac7:	00 2c 0e             	add    %ch,(%esi,%ecx,1)
  106aca:	00 00                	add    %al,(%eax)
  106acc:	7f ca                	jg     106a98 <__kernel_rodata_section_end+0xdfc>
  106ace:	ff                   	(bad)  
  106acf:	ff                   	(bad)  
  106ad0:	7d 00                	jge    106ad2 <__kernel_rodata_section_end+0xe36>
  106ad2:	00 00                	add    %al,(%eax)
  106ad4:	00 41 0e             	add    %al,0xe(%ecx)
  106ad7:	08 85 02 42 0d 05    	or     %al,0x50d4202(%ebp)
  106add:	44                   	inc    %esp
  106ade:	83 03 02             	addl   $0x2,(%ebx)
  106ae1:	75 c5                	jne    106aa8 <__kernel_rodata_section_end+0xe0c>
  106ae3:	c3                   	ret    
  106ae4:	0c 04                	or     $0x4,%al
  106ae6:	04 00                	add    $0x0,%al
  106ae8:	20 00                	and    %al,(%eax)
  106aea:	00 00                	add    %al,(%eax)
  106aec:	50                   	push   %eax
  106aed:	0e                   	push   %cs
  106aee:	00 00                	add    %al,(%eax)
  106af0:	d8 ca                	fmul   %st(2),%st
  106af2:	ff                   	(bad)  
  106af3:	ff 5c 00 00          	lcall  *0x0(%eax,%eax,1)
  106af7:	00 00                	add    %al,(%eax)
  106af9:	41                   	inc    %ecx
  106afa:	0e                   	push   %cs
  106afb:	08 85 02 42 0d 05    	or     %al,0x50d4202(%ebp)
  106b01:	44                   	inc    %esp
  106b02:	83 03 02             	addl   $0x2,(%ebx)
  106b05:	54                   	push   %esp
  106b06:	c5 c3 0c             	(bad)
  106b09:	04 04                	add    $0x4,%al
  106b0b:	00 20                	add    %ah,(%eax)
  106b0d:	00 00                	add    %al,(%eax)
  106b0f:	00 74 0e 00          	add    %dh,0x0(%esi,%ecx,1)
  106b13:	00 10                	add    %dl,(%eax)
  106b15:	cb                   	lret   
  106b16:	ff                   	(bad)  
  106b17:	ff 31                	pushl  (%ecx)
  106b19:	00 00                	add    %al,(%eax)
  106b1b:	00 00                	add    %al,(%eax)
  106b1d:	41                   	inc    %ecx
  106b1e:	0e                   	push   %cs
  106b1f:	08 85 02 42 0d 05    	or     %al,0x50d4202(%ebp)
  106b25:	44                   	inc    %esp
  106b26:	83 03 69             	addl   $0x69,(%ebx)
  106b29:	c5 c3 0c             	(bad)
  106b2c:	04 04                	add    $0x4,%al
  106b2e:	00 00                	add    %al,(%eax)
  106b30:	20 00                	and    %al,(%eax)
  106b32:	00 00                	add    %al,(%eax)
  106b34:	98                   	cwtl   
  106b35:	0e                   	push   %cs
  106b36:	00 00                	add    %al,(%eax)
  106b38:	1d cb ff ff dd       	sbb    $0xddffffcb,%eax
  106b3d:	00 00                	add    %al,(%eax)
  106b3f:	00 00                	add    %al,(%eax)
  106b41:	41                   	inc    %ecx
  106b42:	0e                   	push   %cs
  106b43:	08 85 02 42 0d 05    	or     %al,0x50d4202(%ebp)
  106b49:	44                   	inc    %esp
  106b4a:	83 03 02             	addl   $0x2,(%ebx)
  106b4d:	d5 c5                	aad    $0xc5
  106b4f:	c3                   	ret    
  106b50:	0c 04                	or     $0x4,%al
  106b52:	04 00                	add    $0x0,%al
  106b54:	20 00                	and    %al,(%eax)
  106b56:	00 00                	add    %al,(%eax)
  106b58:	bc 0e 00 00 d6       	mov    $0xd600000e,%esp
  106b5d:	cb                   	lret   
  106b5e:	ff                   	(bad)  
  106b5f:	ff 47 00             	incl   0x0(%edi)
  106b62:	00 00                	add    %al,(%eax)
  106b64:	00 41 0e             	add    %al,0xe(%ecx)
  106b67:	08 85 02 42 0d 05    	or     %al,0x50d4202(%ebp)
  106b6d:	44                   	inc    %esp
  106b6e:	83 03 7f             	addl   $0x7f,(%ebx)
  106b71:	c5 c3 0c             	(bad)
  106b74:	04 04                	add    $0x4,%al
  106b76:	00 00                	add    %al,(%eax)
  106b78:	1c 00                	sbb    $0x0,%al
  106b7a:	00 00                	add    %al,(%eax)
  106b7c:	e0 0e                	loopne 106b8c <__kernel_rodata_section_end+0xef0>
  106b7e:	00 00                	add    %al,(%eax)
  106b80:	f9                   	stc    
  106b81:	cb                   	lret   
  106b82:	ff                   	(bad)  
  106b83:	ff 31                	pushl  (%ecx)
  106b85:	00 00                	add    %al,(%eax)
  106b87:	00 00                	add    %al,(%eax)
  106b89:	41                   	inc    %ecx
  106b8a:	0e                   	push   %cs
  106b8b:	08 85 02 42 0d 05    	or     %al,0x50d4202(%ebp)
  106b91:	6d                   	insl   (%dx),%es:(%edi)
  106b92:	c5 0c 04             	lds    (%esp,%eax,1),%ecx
  106b95:	04 00                	add    $0x0,%al
  106b97:	00 20                	add    %ah,(%eax)
  106b99:	00 00                	add    %al,(%eax)
  106b9b:	00 00                	add    %al,(%eax)
  106b9d:	0f 00 00             	sldt   (%eax)
  106ba0:	0a cc                	or     %ah,%cl
  106ba2:	ff                   	(bad)  
  106ba3:	ff 61 00             	jmp    *0x0(%ecx)
  106ba6:	00 00                	add    %al,(%eax)
  106ba8:	00 41 0e             	add    %al,0xe(%ecx)
  106bab:	08 85 02 42 0d 05    	or     %al,0x50d4202(%ebp)
  106bb1:	44                   	inc    %esp
  106bb2:	83 03 02             	addl   $0x2,(%ebx)
  106bb5:	59                   	pop    %ecx
  106bb6:	c5 c3 0c             	(bad)
  106bb9:	04 04                	add    $0x4,%al
  106bbb:	00 18                	add    %bl,(%eax)
  106bbd:	00 00                	add    %al,(%eax)
  106bbf:	00 24 0f             	add    %ah,(%edi,%ecx,1)
  106bc2:	00 00                	add    %al,(%eax)
  106bc4:	47                   	inc    %edi
  106bc5:	cc                   	int3   
  106bc6:	ff                   	(bad)  
  106bc7:	ff 5b 00             	lcall  *0x0(%ebx)
  106bca:	00 00                	add    %al,(%eax)
  106bcc:	00 41 0e             	add    %al,0xe(%ecx)
  106bcf:	08 85 02 42 0d 05    	or     %al,0x50d4202(%ebp)
  106bd5:	44                   	inc    %esp
  106bd6:	83 03 20             	addl   $0x20,(%ebx)
  106bd9:	00 00                	add    %al,(%eax)
  106bdb:	00 40 0f             	add    %al,0xf(%eax)
  106bde:	00 00                	add    %al,(%eax)
  106be0:	86 cc                	xchg   %cl,%ah
  106be2:	ff                   	(bad)  
  106be3:	ff 2f                	ljmp   *(%edi)
  106be5:	00 00                	add    %al,(%eax)
  106be7:	00 00                	add    %al,(%eax)
  106be9:	41                   	inc    %ecx
  106bea:	0e                   	push   %cs
  106beb:	08 85 02 42 0d 05    	or     %al,0x50d4202(%ebp)
  106bf1:	44                   	inc    %esp
  106bf2:	83 03 67             	addl   $0x67,(%ebx)
  106bf5:	c5 c3 0c             	(bad)
  106bf8:	04 04                	add    $0x4,%al
  106bfa:	00 00                	add    %al,(%eax)
  106bfc:	1c 00                	sbb    $0x0,%al
  106bfe:	00 00                	add    %al,(%eax)
  106c00:	64 0f 00 00          	sldt   %fs:(%eax)
  106c04:	91                   	xchg   %eax,%ecx
  106c05:	cc                   	int3   
  106c06:	ff                   	(bad)  
  106c07:	ff 44 00 00          	incl   0x0(%eax,%eax,1)
  106c0b:	00 00                	add    %al,(%eax)
  106c0d:	41                   	inc    %ecx
  106c0e:	0e                   	push   %cs
  106c0f:	08 85 02 42 0d 05    	or     %al,0x50d4202(%ebp)
  106c15:	02 40 c5             	add    -0x3b(%eax),%al
  106c18:	0c 04                	or     $0x4,%al
  106c1a:	04 00                	add    $0x0,%al
  106c1c:	1c 00                	sbb    $0x0,%al
  106c1e:	00 00                	add    %al,(%eax)
  106c20:	84 0f                	test   %cl,(%edi)
  106c22:	00 00                	add    %al,(%eax)
  106c24:	b5 cc                	mov    $0xcc,%ch
  106c26:	ff                   	(bad)  
  106c27:	ff 41 00             	incl   0x0(%ecx)
  106c2a:	00 00                	add    %al,(%eax)
  106c2c:	00 41 0e             	add    %al,0xe(%ecx)
  106c2f:	08 85 02 42 0d 05    	or     %al,0x50d4202(%ebp)
  106c35:	7d c5                	jge    106bfc <__kernel_rodata_section_end+0xf60>
  106c37:	0c 04                	or     $0x4,%al
  106c39:	04 00                	add    $0x0,%al
  106c3b:	00 28                	add    %ch,(%eax)
  106c3d:	00 00                	add    %al,(%eax)
  106c3f:	00 a4 0f 00 00 d6 cc 	add    %ah,-0x332a0000(%edi,%ecx,1)
  106c46:	ff                   	(bad)  
  106c47:	ff                   	(bad)  
  106c48:	7f 01                	jg     106c4b <__kernel_rodata_section_end+0xfaf>
  106c4a:	00 00                	add    %al,(%eax)
  106c4c:	00 41 0e             	add    %al,0xe(%ecx)
  106c4f:	08 85 02 42 0d 05    	or     %al,0x50d4202(%ebp)
  106c55:	42                   	inc    %edx
  106c56:	86 03                	xchg   %al,(%ebx)
  106c58:	83 04 03 77          	addl   $0x77,(%ebx,%eax,1)
  106c5c:	01 c3                	add    %eax,%ebx
  106c5e:	41                   	inc    %ecx
  106c5f:	c6 41 c5 0c          	movb   $0xc,-0x3b(%ecx)
  106c63:	04 04                	add    $0x4,%al
  106c65:	00 00                	add    %al,(%eax)
  106c67:	00 20                	add    %ah,(%eax)
  106c69:	00 00                	add    %al,(%eax)
  106c6b:	00 d0                	add    %dl,%al
  106c6d:	0f 00 00             	sldt   (%eax)
  106c70:	29 ce                	sub    %ecx,%esi
  106c72:	ff                   	(bad)  
  106c73:	ff 5f 00             	lcall  *0x0(%edi)
  106c76:	00 00                	add    %al,(%eax)
  106c78:	00 41 0e             	add    %al,0xe(%ecx)
  106c7b:	08 85 02 42 0d 05    	or     %al,0x50d4202(%ebp)
  106c81:	44                   	inc    %esp
  106c82:	83 03 02             	addl   $0x2,(%ebx)
  106c85:	57                   	push   %edi
  106c86:	c5 c3 0c             	(bad)
  106c89:	04 04                	add    $0x4,%al
  106c8b:	00 1c 00             	add    %bl,(%eax,%eax,1)
  106c8e:	00 00                	add    %al,(%eax)
  106c90:	f4                   	hlt    
  106c91:	0f 00 00             	sldt   (%eax)
  106c94:	64 ce                	fs into 
  106c96:	ff                   	(bad)  
  106c97:	ff 52 00             	call   *0x0(%edx)
  106c9a:	00 00                	add    %al,(%eax)
  106c9c:	00 41 0e             	add    %al,0xe(%ecx)
  106c9f:	08 85 02 42 0d 05    	or     %al,0x50d4202(%ebp)
  106ca5:	02 4e c5             	add    -0x3b(%esi),%cl
  106ca8:	0c 04                	or     $0x4,%al
  106caa:	04 00                	add    $0x0,%al
  106cac:	20 00                	and    %al,(%eax)
  106cae:	00 00                	add    %al,(%eax)
  106cb0:	14 10                	adc    $0x10,%al
  106cb2:	00 00                	add    %al,(%eax)
  106cb4:	96                   	xchg   %eax,%esi
  106cb5:	ce                   	into   
  106cb6:	ff                   	(bad)  
  106cb7:	ff 65 00             	jmp    *0x0(%ebp)
  106cba:	00 00                	add    %al,(%eax)
  106cbc:	00 41 0e             	add    %al,0xe(%ecx)
  106cbf:	08 85 02 42 0d 05    	or     %al,0x50d4202(%ebp)
  106cc5:	44                   	inc    %esp
  106cc6:	83 03 02             	addl   $0x2,(%ebx)
  106cc9:	5d                   	pop    %ebp
  106cca:	c5 c3 0c             	(bad)
  106ccd:	04 04                	add    $0x4,%al
  106ccf:	00 20                	add    %ah,(%eax)
  106cd1:	00 00                	add    %al,(%eax)
  106cd3:	00 38                	add    %bh,(%eax)
  106cd5:	10 00                	adc    %al,(%eax)
  106cd7:	00 d7                	add    %dl,%bh
  106cd9:	ce                   	into   
  106cda:	ff                   	(bad)  
  106cdb:	ff c8                	dec    %eax
  106cdd:	01 00                	add    %eax,(%eax)
  106cdf:	00 00                	add    %al,(%eax)
  106ce1:	41                   	inc    %ecx
  106ce2:	0e                   	push   %cs
  106ce3:	08 85 02 42 0d 05    	or     %al,0x50d4202(%ebp)
  106ce9:	44                   	inc    %esp
  106cea:	83 03 03             	addl   $0x3,(%ebx)
  106ced:	c0 01 c5             	rolb   $0xc5,(%ecx)
  106cf0:	c3                   	ret    
  106cf1:	0c 04                	or     $0x4,%al
  106cf3:	04 1c                	add    $0x1c,%al
  106cf5:	00 00                	add    %al,(%eax)
  106cf7:	00 5c 10 00          	add    %bl,0x0(%eax,%edx,1)
  106cfb:	00 7b d0             	add    %bh,-0x30(%ebx)
  106cfe:	ff                   	(bad)  
  106cff:	ff 58 00             	lcall  *0x0(%eax)
  106d02:	00 00                	add    %al,(%eax)
  106d04:	00 41 0e             	add    %al,0xe(%ecx)
  106d07:	08 85 02 42 0d 05    	or     %al,0x50d4202(%ebp)
  106d0d:	02 54 c5 0c          	add    0xc(%ebp,%eax,8),%dl
  106d11:	04 04                	add    $0x4,%al
  106d13:	00 20                	add    %ah,(%eax)
  106d15:	00 00                	add    %al,(%eax)
  106d17:	00 7c 10 00          	add    %bh,0x0(%eax,%edx,1)
  106d1b:	00 b3 d0 ff ff 7b    	add    %dh,0x7bffffd0(%ebx)
  106d21:	01 00                	add    %eax,(%eax)
  106d23:	00 00                	add    %al,(%eax)
  106d25:	41                   	inc    %ecx
  106d26:	0e                   	push   %cs
  106d27:	08 85 02 42 0d 05    	or     %al,0x50d4202(%ebp)
  106d2d:	44                   	inc    %esp
  106d2e:	83 03 03             	addl   $0x3,(%ebx)
  106d31:	73 01                	jae    106d34 <__kernel_rodata_section_end+0x1098>
  106d33:	c5 c3 0c             	(bad)
  106d36:	04 04                	add    $0x4,%al
  106d38:	20 00                	and    %al,(%eax)
  106d3a:	00 00                	add    %al,(%eax)
  106d3c:	a0 10 00 00 0a       	mov    0xa000010,%al
  106d41:	d2 ff                	sar    %cl,%bh
  106d43:	ff 51 01             	call   *0x1(%ecx)
  106d46:	00 00                	add    %al,(%eax)
  106d48:	00 41 0e             	add    %al,0xe(%ecx)
  106d4b:	08 85 02 42 0d 05    	or     %al,0x50d4202(%ebp)
  106d51:	44                   	inc    %esp
  106d52:	83 03 03             	addl   $0x3,(%ebx)
  106d55:	49                   	dec    %ecx
  106d56:	01 c5                	add    %eax,%ebp
  106d58:	c3                   	ret    
  106d59:	0c 04                	or     $0x4,%al
  106d5b:	04 20                	add    $0x20,%al
  106d5d:	00 00                	add    %al,(%eax)
  106d5f:	00 c4                	add    %al,%ah
  106d61:	10 00                	adc    %al,(%eax)
  106d63:	00 37                	add    %dh,(%edi)
  106d65:	d3 ff                	sar    %cl,%edi
  106d67:	ff 94 00 00 00 00 41 	call   *0x41000000(%eax,%eax,1)
  106d6e:	0e                   	push   %cs
  106d6f:	08 85 02 42 0d 05    	or     %al,0x50d4202(%ebp)
  106d75:	44                   	inc    %esp
  106d76:	83 03 02             	addl   $0x2,(%ebx)
  106d79:	8c c5                	mov    %es,%ebp
  106d7b:	c3                   	ret    
  106d7c:	0c 04                	or     $0x4,%al
  106d7e:	04 00                	add    $0x0,%al
  106d80:	20 00                	and    %al,(%eax)
  106d82:	00 00                	add    %al,(%eax)
  106d84:	e8 10 00 00 a7       	call   a7106d99 <BOOTLOADER_MAGIC+0x7b62bd97>
  106d89:	d3 ff                	sar    %cl,%edi
  106d8b:	ff 52 00             	call   *0x0(%edx)
  106d8e:	00 00                	add    %al,(%eax)
  106d90:	00 41 0e             	add    %al,0xe(%ecx)
  106d93:	08 85 02 42 0d 05    	or     %al,0x50d4202(%ebp)
  106d99:	44                   	inc    %esp
  106d9a:	83 03 02             	addl   $0x2,(%ebx)
  106d9d:	4a                   	dec    %edx
  106d9e:	c5 c3 0c             	(bad)
  106da1:	04 04                	add    $0x4,%al
  106da3:	00 1c 00             	add    %bl,(%eax,%eax,1)
  106da6:	00 00                	add    %al,(%eax)
  106da8:	0c 11                	or     $0x11,%al
  106daa:	00 00                	add    %al,(%eax)
  106dac:	d5 d3                	aad    $0xd3
  106dae:	ff                   	(bad)  
  106daf:	ff 56 00             	call   *0x0(%esi)
  106db2:	00 00                	add    %al,(%eax)
  106db4:	00 41 0e             	add    %al,0xe(%ecx)
  106db7:	08 85 02 42 0d 05    	or     %al,0x50d4202(%ebp)
  106dbd:	02 52 c5             	add    -0x3b(%edx),%dl
  106dc0:	0c 04                	or     $0x4,%al
  106dc2:	04 00                	add    $0x0,%al
  106dc4:	18 00                	sbb    %al,(%eax)
  106dc6:	00 00                	add    %al,(%eax)
  106dc8:	2c 11                	sub    $0x11,%al
  106dca:	00 00                	add    %al,(%eax)
  106dcc:	0b d4                	or     %esp,%edx
  106dce:	ff                   	(bad)  
  106dcf:	ff 23                	jmp    *(%ebx)
  106dd1:	01 00                	add    %eax,(%eax)
  106dd3:	00 00                	add    %al,(%eax)
  106dd5:	41                   	inc    %ecx
  106dd6:	0e                   	push   %cs
  106dd7:	08 85 02 42 0d 05    	or     %al,0x50d4202(%ebp)
  106ddd:	44                   	inc    %esp
  106dde:	83 03 20             	addl   $0x20,(%ebx)
  106de1:	00 00                	add    %al,(%eax)
  106de3:	00 48 11             	add    %cl,0x11(%eax)
  106de6:	00 00                	add    %al,(%eax)
  106de8:	12 d5                	adc    %ch,%dl
  106dea:	ff                   	(bad)  
  106deb:	ff e6                	jmp    *%esi
  106ded:	00 00                	add    %al,(%eax)
  106def:	00 00                	add    %al,(%eax)
  106df1:	41                   	inc    %ecx
  106df2:	0e                   	push   %cs
  106df3:	08 85 02 42 0d 05    	or     %al,0x50d4202(%ebp)
  106df9:	44                   	inc    %esp
  106dfa:	83 03 02             	addl   $0x2,(%ebx)
  106dfd:	de c5                	faddp  %st,%st(5)
  106dff:	c3                   	ret    
  106e00:	0c 04                	or     $0x4,%al
  106e02:	04 00                	add    $0x0,%al
  106e04:	20 00                	and    %al,(%eax)
  106e06:	00 00                	add    %al,(%eax)
  106e08:	6c                   	insb   (%dx),%es:(%edi)
  106e09:	11 00                	adc    %eax,(%eax)
  106e0b:	00 d4                	add    %dl,%ah
  106e0d:	d5 ff                	aad    $0xff
  106e0f:	ff 45 00             	incl   0x0(%ebp)
  106e12:	00 00                	add    %al,(%eax)
  106e14:	00 41 0e             	add    %al,0xe(%ecx)
  106e17:	08 85 02 42 0d 05    	or     %al,0x50d4202(%ebp)
  106e1d:	44                   	inc    %esp
  106e1e:	83 03 7d             	addl   $0x7d,(%ebx)
  106e21:	c5 c3 0c             	(bad)
  106e24:	04 04                	add    $0x4,%al
	...

Disassembly of section .data:

00107000 <keyboard_map>:
  107000:	00 1b                	add    %bl,(%ebx)
  107002:	31 32                	xor    %esi,(%edx)
  107004:	33 34 35 36 37 38 39 	xor    0x39383736(,%esi,1),%esi
  10700b:	30 2d 3d 08 09 71    	xor    %ch,0x7109083d
  107011:	77 65                	ja     107078 <keyboard_map+0x78>
  107013:	72 74                	jb     107089 <keyboard_map+0x9>
  107015:	79 75                	jns    10708c <keyboard_map+0xc>
  107017:	69 6f 70 5b 5d 0a 00 	imul   $0xa5d5b,0x70(%edi),%ebp
  10701e:	61                   	popa   
  10701f:	73 64                	jae    107085 <keyboard_map+0x5>
  107021:	66 67 68 6a 6b       	addr16 pushw $0x6b6a
  107026:	6c                   	insb   (%dx),%es:(%edi)
  107027:	3b 27                	cmp    (%edi),%esp
  107029:	60                   	pusha  
  10702a:	00 5c 7a 78          	add    %bl,0x78(%edx,%edi,2)
  10702e:	63 76 62             	arpl   %si,0x62(%esi)
  107031:	6e                   	outsb  %ds:(%esi),(%dx)
  107032:	6d                   	insl   (%dx),%es:(%edi)
  107033:	2c 2e                	sub    $0x2e,%al
  107035:	2f                   	das    
  107036:	00 2a                	add    %ch,(%edx)
  107038:	00 20                	add    %ah,(%eax)
	...
  10704a:	2d 00 00 00 2b       	sub    $0x2b000000,%eax
	...

00107080 <keyboard_map>:
  107080:	00 1b                	add    %bl,(%ebx)
  107082:	31 32                	xor    %esi,(%edx)
  107084:	33 34 35 36 37 38 39 	xor    0x39383736(,%esi,1),%esi
  10708b:	30 2d 3d 08 09 71    	xor    %ch,0x7109083d
  107091:	77 65                	ja     1070f8 <keyboard_map+0x78>
  107093:	72 74                	jb     107109 <VGA_POINTER+0x9>
  107095:	79 75                	jns    10710c <VGA_POINTER+0xc>
  107097:	69 6f 70 5b 5d 0a 00 	imul   $0xa5d5b,0x70(%edi),%ebp
  10709e:	61                   	popa   
  10709f:	73 64                	jae    107105 <VGA_POINTER+0x5>
  1070a1:	66 67 68 6a 6b       	addr16 pushw $0x6b6a
  1070a6:	6c                   	insb   (%dx),%es:(%edi)
  1070a7:	3b 27                	cmp    (%edi),%esp
  1070a9:	60                   	pusha  
  1070aa:	00 5c 7a 78          	add    %bl,0x78(%edx,%edi,2)
  1070ae:	63 76 62             	arpl   %si,0x62(%esi)
  1070b1:	6e                   	outsb  %ds:(%esi),(%dx)
  1070b2:	6d                   	insl   (%dx),%es:(%edi)
  1070b3:	2c 2e                	sub    $0x2e,%al
  1070b5:	2f                   	das    
  1070b6:	00 2a                	add    %ch,(%edx)
  1070b8:	00 20                	add    %ah,(%eax)
	...
  1070ca:	2d 00 00 00 2b       	sub    $0x2b000000,%eax
	...

00107100 <VGA_POINTER>:
  107100:	00 80 0b 00 00 00    	add    %al,0xb(%eax)
	...

00107120 <font_data>:
  107120:	00 00                	add    %al,(%eax)
  107122:	00 00                	add    %al,(%eax)
  107124:	00 00                	add    %al,(%eax)
  107126:	00 7c 44 44          	add    %bh,0x44(%esp,%eax,2)
  10712a:	44                   	inc    %esp
  10712b:	7c 00                	jl     10712d <font_data+0xd>
	...
  107135:	00 00                	add    %al,(%eax)
  107137:	7c 44                	jl     10717d <font_data+0x5d>
  107139:	44                   	inc    %esp
  10713a:	44                   	inc    %esp
  10713b:	7c 00                	jl     10713d <font_data+0x1d>
	...
  107145:	00 00                	add    %al,(%eax)
  107147:	7c 44                	jl     10718d <font_data+0x6d>
  107149:	44                   	inc    %esp
  10714a:	44                   	inc    %esp
  10714b:	7c 00                	jl     10714d <font_data+0x2d>
	...
  107155:	00 00                	add    %al,(%eax)
  107157:	7c 44                	jl     10719d <font_data+0x7d>
  107159:	44                   	inc    %esp
  10715a:	44                   	inc    %esp
  10715b:	7c 00                	jl     10715d <font_data+0x3d>
	...
  107165:	00 00                	add    %al,(%eax)
  107167:	7c 44                	jl     1071ad <font_data+0x8d>
  107169:	44                   	inc    %esp
  10716a:	44                   	inc    %esp
  10716b:	7c 00                	jl     10716d <font_data+0x4d>
	...
  107175:	00 00                	add    %al,(%eax)
  107177:	7c 44                	jl     1071bd <font_data+0x9d>
  107179:	44                   	inc    %esp
  10717a:	44                   	inc    %esp
  10717b:	7c 00                	jl     10717d <font_data+0x5d>
	...
  107185:	00 00                	add    %al,(%eax)
  107187:	7c 44                	jl     1071cd <font_data+0xad>
  107189:	44                   	inc    %esp
  10718a:	44                   	inc    %esp
  10718b:	7c 00                	jl     10718d <font_data+0x6d>
	...
  107195:	00 00                	add    %al,(%eax)
  107197:	7c 44                	jl     1071dd <font_data+0xbd>
  107199:	44                   	inc    %esp
  10719a:	44                   	inc    %esp
  10719b:	7c 00                	jl     10719d <font_data+0x7d>
	...
  1071a5:	00 00                	add    %al,(%eax)
  1071a7:	7c 44                	jl     1071ed <font_data+0xcd>
  1071a9:	44                   	inc    %esp
  1071aa:	44                   	inc    %esp
  1071ab:	7c 00                	jl     1071ad <font_data+0x8d>
	...
  1071c5:	00 00                	add    %al,(%eax)
  1071c7:	7c 44                	jl     10720d <font_data+0xed>
  1071c9:	44                   	inc    %esp
  1071ca:	44                   	inc    %esp
  1071cb:	7c 00                	jl     1071cd <font_data+0xad>
	...
  1071d5:	00 00                	add    %al,(%eax)
  1071d7:	7c 44                	jl     10721d <font_data+0xfd>
  1071d9:	44                   	inc    %esp
  1071da:	44                   	inc    %esp
  1071db:	7c 00                	jl     1071dd <font_data+0xbd>
	...
  1071e5:	00 00                	add    %al,(%eax)
  1071e7:	7c 44                	jl     10722d <font_data+0x10d>
  1071e9:	44                   	inc    %esp
  1071ea:	44                   	inc    %esp
  1071eb:	7c 00                	jl     1071ed <font_data+0xcd>
	...
  1071f5:	00 00                	add    %al,(%eax)
  1071f7:	7c 44                	jl     10723d <font_data+0x11d>
  1071f9:	44                   	inc    %esp
  1071fa:	44                   	inc    %esp
  1071fb:	7c 00                	jl     1071fd <font_data+0xdd>
	...
  107205:	00 00                	add    %al,(%eax)
  107207:	7c 44                	jl     10724d <font_data+0x12d>
  107209:	44                   	inc    %esp
  10720a:	44                   	inc    %esp
  10720b:	7c 00                	jl     10720d <font_data+0xed>
	...
  107215:	00 00                	add    %al,(%eax)
  107217:	7c 44                	jl     10725d <font_data+0x13d>
  107219:	44                   	inc    %esp
  10721a:	44                   	inc    %esp
  10721b:	7c 00                	jl     10721d <font_data+0xfd>
	...
  107225:	00 00                	add    %al,(%eax)
  107227:	7c 44                	jl     10726d <font_data+0x14d>
  107229:	44                   	inc    %esp
  10722a:	44                   	inc    %esp
  10722b:	7c 00                	jl     10722d <font_data+0x10d>
	...
  107235:	00 00                	add    %al,(%eax)
  107237:	7c 44                	jl     10727d <font_data+0x15d>
  107239:	44                   	inc    %esp
  10723a:	44                   	inc    %esp
  10723b:	7c 00                	jl     10723d <font_data+0x11d>
	...
  107245:	00 00                	add    %al,(%eax)
  107247:	7c 44                	jl     10728d <font_data+0x16d>
  107249:	44                   	inc    %esp
  10724a:	44                   	inc    %esp
  10724b:	7c 00                	jl     10724d <font_data+0x12d>
	...
  107255:	00 00                	add    %al,(%eax)
  107257:	7c 44                	jl     10729d <font_data+0x17d>
  107259:	44                   	inc    %esp
  10725a:	44                   	inc    %esp
  10725b:	7c 00                	jl     10725d <font_data+0x13d>
	...
  107265:	00 00                	add    %al,(%eax)
  107267:	7c 44                	jl     1072ad <font_data+0x18d>
  107269:	44                   	inc    %esp
  10726a:	44                   	inc    %esp
  10726b:	7c 00                	jl     10726d <font_data+0x14d>
	...
  107275:	00 00                	add    %al,(%eax)
  107277:	7c 44                	jl     1072bd <font_data+0x19d>
  107279:	44                   	inc    %esp
  10727a:	44                   	inc    %esp
  10727b:	7c 00                	jl     10727d <font_data+0x15d>
	...
  107285:	00 00                	add    %al,(%eax)
  107287:	7c 44                	jl     1072cd <font_data+0x1ad>
  107289:	44                   	inc    %esp
  10728a:	44                   	inc    %esp
  10728b:	7c 00                	jl     10728d <font_data+0x16d>
	...
  107295:	00 00                	add    %al,(%eax)
  107297:	7c 44                	jl     1072dd <font_data+0x1bd>
  107299:	44                   	inc    %esp
  10729a:	44                   	inc    %esp
  10729b:	7c 00                	jl     10729d <font_data+0x17d>
	...
  1072a5:	00 00                	add    %al,(%eax)
  1072a7:	7c 44                	jl     1072ed <font_data+0x1cd>
  1072a9:	44                   	inc    %esp
  1072aa:	44                   	inc    %esp
  1072ab:	7c 00                	jl     1072ad <font_data+0x18d>
	...
  1072b5:	00 00                	add    %al,(%eax)
  1072b7:	7c 44                	jl     1072fd <font_data+0x1dd>
  1072b9:	44                   	inc    %esp
  1072ba:	44                   	inc    %esp
  1072bb:	7c 00                	jl     1072bd <font_data+0x19d>
	...
  1072c5:	00 00                	add    %al,(%eax)
  1072c7:	7c 44                	jl     10730d <font_data+0x1ed>
  1072c9:	44                   	inc    %esp
  1072ca:	44                   	inc    %esp
  1072cb:	7c 00                	jl     1072cd <font_data+0x1ad>
	...
  1072d5:	00 00                	add    %al,(%eax)
  1072d7:	7c 44                	jl     10731d <font_data+0x1fd>
  1072d9:	44                   	inc    %esp
  1072da:	44                   	inc    %esp
  1072db:	7c 00                	jl     1072dd <font_data+0x1bd>
	...
  1072e5:	00 00                	add    %al,(%eax)
  1072e7:	7c 44                	jl     10732d <font_data+0x20d>
  1072e9:	44                   	inc    %esp
  1072ea:	44                   	inc    %esp
  1072eb:	7c 00                	jl     1072ed <font_data+0x1cd>
	...
  1072f5:	00 00                	add    %al,(%eax)
  1072f7:	7c 44                	jl     10733d <font_data+0x21d>
  1072f9:	44                   	inc    %esp
  1072fa:	44                   	inc    %esp
  1072fb:	7c 00                	jl     1072fd <font_data+0x1dd>
	...
  107305:	00 00                	add    %al,(%eax)
  107307:	7c 44                	jl     10734d <font_data+0x22d>
  107309:	44                   	inc    %esp
  10730a:	44                   	inc    %esp
  10730b:	7c 00                	jl     10730d <font_data+0x1ed>
	...
  107315:	00 00                	add    %al,(%eax)
  107317:	7c 44                	jl     10735d <font_data+0x23d>
  107319:	44                   	inc    %esp
  10731a:	44                   	inc    %esp
  10731b:	7c 00                	jl     10731d <font_data+0x1fd>
	...
  107331:	00 00                	add    %al,(%eax)
  107333:	18 18                	sbb    %bl,(%eax)
  107335:	18 18                	sbb    %bl,(%eax)
  107337:	08 08                	or     %cl,(%eax)
  107339:	00 00                	add    %al,(%eax)
  10733b:	18 00                	sbb    %al,(%eax)
  10733d:	00 00                	add    %al,(%eax)
  10733f:	00 00                	add    %al,(%eax)
  107341:	00 24 24             	add    %ah,(%esp)
  107344:	24 24                	and    $0x24,%al
	...
  107352:	00 12                	add    %dl,(%edx)
  107354:	24 7f                	and    $0x7f,%al
  107356:	24 24                	and    $0x24,%al
  107358:	fe 44 48 48          	incb   0x48(%eax,%ecx,2)
  10735c:	00 00                	add    %al,(%eax)
  10735e:	00 00                	add    %al,(%eax)
  107360:	00 00                	add    %al,(%eax)
  107362:	08 3c 4a             	or     %bh,(%edx,%ecx,2)
  107365:	48                   	dec    %eax
  107366:	48                   	dec    %eax
  107367:	3c 0a                	cmp    $0xa,%al
  107369:	0a 4a 7c             	or     0x7c(%edx),%cl
  10736c:	08 00                	or     %al,(%eax)
  10736e:	00 00                	add    %al,(%eax)
  107370:	00 00                	add    %al,(%eax)
  107372:	00 e2                	add    %ah,%dl
  107374:	92                   	xchg   %eax,%edx
  107375:	94                   	xchg   %eax,%esp
  107376:	e8 08 17 29 29       	call   29398a83 <MAGIC_HEADER+0xd8bda81>
  10737b:	47                   	inc    %edi
  10737c:	00 00                	add    %al,(%eax)
  10737e:	00 00                	add    %al,(%eax)
  107380:	00 00                	add    %al,(%eax)
  107382:	00 3c 24             	add    %bh,(%esp)
  107385:	24 38                	and    $0x38,%al
  107387:	72 d2                	jb     10735b <font_data+0x23b>
  107389:	8c c4                	mov    %es,%esp
  10738b:	7b 00                	jnp    10738d <font_data+0x26d>
  10738d:	00 00                	add    %al,(%eax)
  10738f:	00 00                	add    %al,(%eax)
  107391:	00 18                	add    %bl,(%eax)
  107393:	18 18                	sbb    %bl,(%eax)
  107395:	08 00                	or     %al,(%eax)
	...
  10739f:	00 00                	add    %al,(%eax)
  1073a1:	00 0c 08             	add    %cl,(%eax,%ecx,1)
  1073a4:	10 10                	adc    %dl,(%eax)
  1073a6:	30 30                	xor    %dh,(%eax)
  1073a8:	20 30                	and    %dh,(%eax)
  1073aa:	30 10                	xor    %dl,(%eax)
  1073ac:	10 08                	adc    %cl,(%eax)
  1073ae:	0c 00                	or     $0x0,%al
  1073b0:	00 00                	add    %al,(%eax)
  1073b2:	30 10                	xor    %dl,(%eax)
  1073b4:	08 08                	or     %cl,(%eax)
  1073b6:	0c 0c                	or     $0xc,%al
  1073b8:	0c 0c                	or     $0xc,%al
  1073ba:	0c 08                	or     $0x8,%al
  1073bc:	08 10                	or     %dl,(%eax)
  1073be:	30 00                	xor    %al,(%eax)
  1073c0:	00 00                	add    %al,(%eax)
  1073c2:	08 2c 18             	or     %ch,(%eax,%ebx,1)
  1073c5:	18 24 00             	sbb    %ah,(%eax,%eax,1)
	...
  1073d4:	08 08                	or     %cl,(%eax)
  1073d6:	08 7e 08             	or     %bh,0x8(%esi)
  1073d9:	08 08                	or     %cl,(%eax)
	...
  1073e7:	00 00                	add    %al,(%eax)
  1073e9:	00 10                	add    %dl,(%eax)
  1073eb:	30 20                	xor    %ah,(%eax)
  1073ed:	20 00                	and    %al,(%eax)
	...
  1073f7:	00 3c 00             	add    %bh,(%eax,%eax,1)
	...
  10740a:	18 18                	sbb    %bl,(%eax)
  10740c:	00 00                	add    %al,(%eax)
  10740e:	00 00                	add    %al,(%eax)
  107410:	00 00                	add    %al,(%eax)
  107412:	02 04 04             	add    (%esp,%eax,1),%al
  107415:	08 08                	or     %cl,(%eax)
  107417:	10 10                	adc    %dl,(%eax)
  107419:	20 20                	and    %ah,(%eax)
  10741b:	40                   	inc    %eax
  10741c:	00 00                	add    %al,(%eax)
  10741e:	00 00                	add    %al,(%eax)
  107420:	00 00                	add    %al,(%eax)
  107422:	00 3c 66             	add    %bh,(%esi,%eiz,2)
  107425:	42                   	inc    %edx
  107426:	42                   	inc    %edx
  107427:	5a                   	pop    %edx
  107428:	42                   	inc    %edx
  107429:	42                   	inc    %edx
  10742a:	66 3c 00             	data16 cmp $0x0,%al
  10742d:	00 00                	add    %al,(%eax)
  10742f:	00 00                	add    %al,(%eax)
  107431:	00 00                	add    %al,(%eax)
  107433:	08 18                	or     %bl,(%eax)
  107435:	68 08 08 08 08       	push   $0x8080808
  10743a:	08 7f 00             	or     %bh,0x0(%edi)
  10743d:	00 00                	add    %al,(%eax)
  10743f:	00 00                	add    %al,(%eax)
  107441:	00 00                	add    %al,(%eax)
  107443:	3c 66                	cmp    $0x66,%al
  107445:	42                   	inc    %edx
  107446:	06                   	push   %es
  107447:	0c 18                	or     $0x18,%al
  107449:	30 60 7e             	xor    %ah,0x7e(%eax)
  10744c:	00 00                	add    %al,(%eax)
  10744e:	00 00                	add    %al,(%eax)
  107450:	00 00                	add    %al,(%eax)
  107452:	00 3c 66             	add    %bh,(%esi,%eiz,2)
  107455:	42                   	inc    %edx
  107456:	06                   	push   %es
  107457:	18 06                	sbb    %al,(%esi)
  107459:	42                   	inc    %edx
  10745a:	62 3c 00             	bound  %edi,(%eax,%eax,1)
  10745d:	00 00                	add    %al,(%eax)
  10745f:	00 00                	add    %al,(%eax)
  107461:	00 00                	add    %al,(%eax)
  107463:	0c 0c                	or     $0xc,%al
  107465:	14 24                	adc    $0x24,%al
  107467:	24 44                	and    $0x44,%al
  107469:	7e 04                	jle    10746f <font_data+0x34f>
  10746b:	04 00                	add    $0x0,%al
  10746d:	00 00                	add    %al,(%eax)
  10746f:	00 00                	add    %al,(%eax)
  107471:	00 00                	add    %al,(%eax)
  107473:	7e 60                	jle    1074d5 <font_data+0x3b5>
  107475:	40                   	inc    %eax
  107476:	5c                   	pop    %esp
  107477:	66 02 02             	data16 add (%edx),%al
  10747a:	46                   	inc    %esi
  10747b:	3c 00                	cmp    $0x0,%al
  10747d:	00 00                	add    %al,(%eax)
  10747f:	00 00                	add    %al,(%eax)
  107481:	00 00                	add    %al,(%eax)
  107483:	1c 26                	sbb    $0x26,%al
  107485:	40                   	inc    %eax
  107486:	5c                   	pop    %esp
  107487:	66 42                	inc    %dx
  107489:	42                   	inc    %edx
  10748a:	26 3c 00             	es cmp $0x0,%al
  10748d:	00 00                	add    %al,(%eax)
  10748f:	00 00                	add    %al,(%eax)
  107491:	00 00                	add    %al,(%eax)
  107493:	7e 06                	jle    10749b <font_data+0x37b>
  107495:	04 08                	add    $0x8,%al
  107497:	08 18                	or     %bl,(%eax)
  107499:	10 10                	adc    %dl,(%eax)
  10749b:	10 00                	adc    %al,(%eax)
  10749d:	00 00                	add    %al,(%eax)
  10749f:	00 00                	add    %al,(%eax)
  1074a1:	00 00                	add    %al,(%eax)
  1074a3:	3c 66                	cmp    $0x66,%al
  1074a5:	42                   	inc    %edx
  1074a6:	66 18 66 42          	data16 sbb %ah,0x42(%esi)
  1074aa:	62 3c 00             	bound  %edi,(%eax,%eax,1)
  1074ad:	00 00                	add    %al,(%eax)
  1074af:	00 00                	add    %al,(%eax)
  1074b1:	00 00                	add    %al,(%eax)
  1074b3:	3c 66                	cmp    $0x66,%al
  1074b5:	42                   	inc    %edx
  1074b6:	42                   	inc    %edx
  1074b7:	66 3a 02             	data16 cmp (%edx),%al
  1074ba:	64 38 00             	cmp    %al,%fs:(%eax)
	...
  1074c5:	18 18                	sbb    %bl,(%eax)
  1074c7:	00 00                	add    %al,(%eax)
  1074c9:	00 18                	add    %bl,(%eax)
  1074cb:	18 00                	sbb    %al,(%eax)
	...
  1074d5:	18 18                	sbb    %bl,(%eax)
  1074d7:	00 00                	add    %al,(%eax)
  1074d9:	00 18                	add    %bl,(%eax)
  1074db:	10 10                	adc    %dl,(%eax)
  1074dd:	20 00                	and    %al,(%eax)
  1074df:	00 00                	add    %al,(%eax)
  1074e1:	00 00                	add    %al,(%eax)
  1074e3:	00 02                	add    %al,(%edx)
  1074e5:	0c 70                	or     $0x70,%al
  1074e7:	40                   	inc    %eax
  1074e8:	70 0c                	jo     1074f6 <font_data+0x3d6>
  1074ea:	02 00                	add    (%eax),%al
	...
  1074f4:	00 00                	add    %al,(%eax)
  1074f6:	7e 00                	jle    1074f8 <font_data+0x3d8>
  1074f8:	00 7e 00             	add    %bh,0x0(%esi)
	...
  107503:	00 40 30             	add    %al,0x30(%eax)
  107506:	0e                   	push   %cs
  107507:	02 0e                	add    (%esi),%cl
  107509:	30 40 00             	xor    %al,0x0(%eax)
  10750c:	00 00                	add    %al,(%eax)
  10750e:	00 00                	add    %al,(%eax)
  107510:	00 00                	add    %al,(%eax)
  107512:	00 24 00             	add    %ah,(%eax,%eax,1)
  107515:	42                   	inc    %edx
  107516:	42                   	inc    %edx
  107517:	26 24 34             	es and $0x34,%al
  10751a:	18 18                	sbb    %bl,(%eax)
  10751c:	10 10                	adc    %dl,(%eax)
  10751e:	60                   	pusha  
  10751f:	00 00                	add    %al,(%eax)
  107521:	00 1c 22             	add    %bl,(%edx,%eiz,1)
  107524:	42                   	inc    %edx
  107525:	5d                   	pop    %ebp
  107526:	a5                   	movsl  %ds:(%esi),%es:(%edi)
  107527:	a5                   	movsl  %ds:(%esi),%es:(%edi)
  107528:	a5                   	movsl  %ds:(%esi),%es:(%edi)
  107529:	ae                   	scas   %es:(%edi),%al
  10752a:	b6 40                	mov    $0x40,%dh
  10752c:	42                   	inc    %edx
  10752d:	3c 00                	cmp    $0x0,%al
  10752f:	00 00                	add    %al,(%eax)
  107531:	00 00                	add    %al,(%eax)
  107533:	18 18                	sbb    %bl,(%eax)
  107535:	24 24                	and    $0x24,%al
  107537:	24 7e                	and    $0x7e,%al
  107539:	42                   	inc    %edx
  10753a:	42                   	inc    %edx
  10753b:	81 00 00 00 00 00    	addl   $0x0,(%eax)
  107541:	00 00                	add    %al,(%eax)
  107543:	7c 46                	jl     10758b <font_data+0x46b>
  107545:	42                   	inc    %edx
  107546:	46                   	inc    %esi
  107547:	7c 42                	jl     10758b <font_data+0x46b>
  107549:	42                   	inc    %edx
  10754a:	42                   	inc    %edx
  10754b:	7c 00                	jl     10754d <font_data+0x42d>
  10754d:	00 00                	add    %al,(%eax)
  10754f:	00 00                	add    %al,(%eax)
  107551:	00 00                	add    %al,(%eax)
  107553:	1c 66                	sbb    $0x66,%al
  107555:	42                   	inc    %edx
  107556:	40                   	inc    %eax
  107557:	40                   	inc    %eax
  107558:	40                   	inc    %eax
  107559:	42                   	inc    %edx
  10755a:	26 1c 00             	es sbb $0x0,%al
  10755d:	00 00                	add    %al,(%eax)
  10755f:	00 00                	add    %al,(%eax)
  107561:	00 00                	add    %al,(%eax)
  107563:	78 46                	js     1075ab <font_data+0x48b>
  107565:	42                   	inc    %edx
  107566:	42                   	inc    %edx
  107567:	42                   	inc    %edx
  107568:	42                   	inc    %edx
  107569:	42                   	inc    %edx
  10756a:	46                   	inc    %esi
  10756b:	7c 00                	jl     10756d <font_data+0x44d>
  10756d:	00 00                	add    %al,(%eax)
  10756f:	00 00                	add    %al,(%eax)
  107571:	00 00                	add    %al,(%eax)
  107573:	7e 40                	jle    1075b5 <font_data+0x495>
  107575:	40                   	inc    %eax
  107576:	40                   	inc    %eax
  107577:	7e 40                	jle    1075b9 <font_data+0x499>
  107579:	40                   	inc    %eax
  10757a:	40                   	inc    %eax
  10757b:	7e 00                	jle    10757d <font_data+0x45d>
  10757d:	00 00                	add    %al,(%eax)
  10757f:	00 00                	add    %al,(%eax)
  107581:	00 00                	add    %al,(%eax)
  107583:	7e 60                	jle    1075e5 <font_data+0x4c5>
  107585:	60                   	pusha  
  107586:	60                   	pusha  
  107587:	7e 60                	jle    1075e9 <font_data+0x4c9>
  107589:	60                   	pusha  
  10758a:	60                   	pusha  
  10758b:	60                   	pusha  
  10758c:	00 00                	add    %al,(%eax)
  10758e:	00 00                	add    %al,(%eax)
  107590:	00 00                	add    %al,(%eax)
  107592:	00 18                	add    %bl,(%eax)
  107594:	66 42                	inc    %dx
  107596:	40                   	inc    %eax
  107597:	4e                   	dec    %esi
  107598:	42                   	inc    %edx
  107599:	42                   	inc    %edx
  10759a:	62 3c 00             	bound  %edi,(%eax,%eax,1)
  10759d:	00 00                	add    %al,(%eax)
  10759f:	00 00                	add    %al,(%eax)
  1075a1:	00 00                	add    %al,(%eax)
  1075a3:	42                   	inc    %edx
  1075a4:	42                   	inc    %edx
  1075a5:	42                   	inc    %edx
  1075a6:	42                   	inc    %edx
  1075a7:	7e 42                	jle    1075eb <font_data+0x4cb>
  1075a9:	42                   	inc    %edx
  1075aa:	42                   	inc    %edx
  1075ab:	42                   	inc    %edx
  1075ac:	00 00                	add    %al,(%eax)
  1075ae:	00 00                	add    %al,(%eax)
  1075b0:	00 00                	add    %al,(%eax)
  1075b2:	00 7e 18             	add    %bh,0x18(%esi)
  1075b5:	18 18                	sbb    %bl,(%eax)
  1075b7:	18 18                	sbb    %bl,(%eax)
  1075b9:	18 18                	sbb    %bl,(%eax)
  1075bb:	7e 00                	jle    1075bd <font_data+0x49d>
  1075bd:	00 00                	add    %al,(%eax)
  1075bf:	00 00                	add    %al,(%eax)
  1075c1:	00 00                	add    %al,(%eax)
  1075c3:	1c 04                	sbb    $0x4,%al
  1075c5:	04 04                	add    $0x4,%al
  1075c7:	04 04                	add    $0x4,%al
  1075c9:	64 64 38 00          	fs cmp %al,%fs:(%eax)
  1075cd:	00 00                	add    %al,(%eax)
  1075cf:	00 00                	add    %al,(%eax)
  1075d1:	00 00                	add    %al,(%eax)
  1075d3:	42                   	inc    %edx
  1075d4:	44                   	inc    %esp
  1075d5:	48                   	dec    %eax
  1075d6:	50                   	push   %eax
  1075d7:	68 68 44 46 43       	push   $0x43464468
  1075dc:	00 00                	add    %al,(%eax)
  1075de:	00 00                	add    %al,(%eax)
  1075e0:	00 00                	add    %al,(%eax)
  1075e2:	00 20                	add    %ah,(%eax)
  1075e4:	20 20                	and    %ah,(%eax)
  1075e6:	20 20                	and    %ah,(%eax)
  1075e8:	20 20                	and    %ah,(%eax)
  1075ea:	20 3e                	and    %bh,(%esi)
  1075ec:	00 00                	add    %al,(%eax)
  1075ee:	00 00                	add    %al,(%eax)
  1075f0:	00 00                	add    %al,(%eax)
  1075f2:	00 66 66             	add    %ah,0x66(%esi)
  1075f5:	66 5a                	pop    %dx
  1075f7:	5a                   	pop    %edx
  1075f8:	5a                   	pop    %edx
  1075f9:	42                   	inc    %edx
  1075fa:	42                   	inc    %edx
  1075fb:	42                   	inc    %edx
  1075fc:	00 00                	add    %al,(%eax)
  1075fe:	00 00                	add    %al,(%eax)
  107600:	00 00                	add    %al,(%eax)
  107602:	00 62 62             	add    %ah,0x62(%edx)
  107605:	52                   	push   %edx
  107606:	52                   	push   %edx
  107607:	5a                   	pop    %edx
  107608:	4a                   	dec    %edx
  107609:	4a                   	dec    %edx
  10760a:	46                   	inc    %esi
  10760b:	46                   	inc    %esi
  10760c:	00 00                	add    %al,(%eax)
  10760e:	00 00                	add    %al,(%eax)
  107610:	00 00                	add    %al,(%eax)
  107612:	00 3c 66             	add    %bh,(%esi,%eiz,2)
  107615:	42                   	inc    %edx
  107616:	42                   	inc    %edx
  107617:	42                   	inc    %edx
  107618:	42                   	inc    %edx
  107619:	42                   	inc    %edx
  10761a:	66 3c 00             	data16 cmp $0x0,%al
  10761d:	00 00                	add    %al,(%eax)
  10761f:	00 00                	add    %al,(%eax)
  107621:	00 00                	add    %al,(%eax)
  107623:	7c 46                	jl     10766b <font_data+0x54b>
  107625:	42                   	inc    %edx
  107626:	42                   	inc    %edx
  107627:	46                   	inc    %esi
  107628:	7c 40                	jl     10766a <font_data+0x54a>
  10762a:	40                   	inc    %eax
  10762b:	40                   	inc    %eax
  10762c:	00 00                	add    %al,(%eax)
  10762e:	00 00                	add    %al,(%eax)
  107630:	00 00                	add    %al,(%eax)
  107632:	00 3c 66             	add    %bh,(%esi,%eiz,2)
  107635:	42                   	inc    %edx
  107636:	42                   	inc    %edx
  107637:	42                   	inc    %edx
  107638:	42                   	inc    %edx
  107639:	42                   	inc    %edx
  10763a:	66 3c 08             	data16 cmp $0x8,%al
  10763d:	06                   	push   %es
  10763e:	00 00                	add    %al,(%eax)
  107640:	00 00                	add    %al,(%eax)
  107642:	00 7c 42 42          	add    %bh,0x42(%edx,%eax,2)
  107646:	42                   	inc    %edx
  107647:	7c 48                	jl     107691 <font_data+0x571>
  107649:	44                   	inc    %esp
  10764a:	46                   	inc    %esi
  10764b:	42                   	inc    %edx
  10764c:	00 00                	add    %al,(%eax)
  10764e:	00 00                	add    %al,(%eax)
  107650:	00 00                	add    %al,(%eax)
  107652:	00 3c 42             	add    %bh,(%edx,%eax,2)
  107655:	40                   	inc    %eax
  107656:	60                   	pusha  
  107657:	1c 02                	sbb    $0x2,%al
  107659:	02 42 3c             	add    0x3c(%edx),%al
  10765c:	00 00                	add    %al,(%eax)
  10765e:	00 00                	add    %al,(%eax)
  107660:	00 00                	add    %al,(%eax)
  107662:	00 ff                	add    %bh,%bh
  107664:	18 18                	sbb    %bl,(%eax)
  107666:	18 18                	sbb    %bl,(%eax)
  107668:	18 18                	sbb    %bl,(%eax)
  10766a:	18 18                	sbb    %bl,(%eax)
  10766c:	00 00                	add    %al,(%eax)
  10766e:	00 00                	add    %al,(%eax)
  107670:	00 00                	add    %al,(%eax)
  107672:	00 42 42             	add    %al,0x42(%edx)
  107675:	42                   	inc    %edx
  107676:	42                   	inc    %edx
  107677:	42                   	inc    %edx
  107678:	42                   	inc    %edx
  107679:	42                   	inc    %edx
  10767a:	66 3c 00             	data16 cmp $0x0,%al
  10767d:	00 00                	add    %al,(%eax)
  10767f:	00 00                	add    %al,(%eax)
  107681:	00 00                	add    %al,(%eax)
  107683:	c3                   	ret    
  107684:	42                   	inc    %edx
  107685:	42                   	inc    %edx
  107686:	66 24 24             	data16 and $0x24,%al
  107689:	3c 18                	cmp    $0x18,%al
  10768b:	18 00                	sbb    %al,(%eax)
  10768d:	00 00                	add    %al,(%eax)
  10768f:	00 00                	add    %al,(%eax)
  107691:	00 00                	add    %al,(%eax)
  107693:	81 81 db 5a 5a 5a 66 	addl   $0x666666,0x5a5a5adb(%ecx)
  10769a:	66 66 00 
  10769d:	00 00                	add    %al,(%eax)
  10769f:	00 00                	add    %al,(%eax)
  1076a1:	00 00                	add    %al,(%eax)
  1076a3:	42                   	inc    %edx
  1076a4:	66 24 18             	data16 and $0x18,%al
  1076a7:	18 18                	sbb    %bl,(%eax)
  1076a9:	24 66                	and    $0x66,%al
  1076ab:	42                   	inc    %edx
  1076ac:	00 00                	add    %al,(%eax)
  1076ae:	00 00                	add    %al,(%eax)
  1076b0:	00 00                	add    %al,(%eax)
  1076b2:	00 c3                	add    %al,%bl
  1076b4:	42                   	inc    %edx
  1076b5:	66 24 1c             	data16 and $0x1c,%al
  1076b8:	18 18                	sbb    %bl,(%eax)
  1076ba:	18 18                	sbb    %bl,(%eax)
  1076bc:	00 00                	add    %al,(%eax)
  1076be:	00 00                	add    %al,(%eax)
  1076c0:	00 00                	add    %al,(%eax)
  1076c2:	00 7e 06             	add    %bh,0x6(%esi)
  1076c5:	04 08                	add    $0x8,%al
  1076c7:	18 30                	sbb    %dh,(%eax)
  1076c9:	20 40 ff             	and    %al,-0x1(%eax)
  1076cc:	00 00                	add    %al,(%eax)
  1076ce:	00 00                	add    %al,(%eax)
  1076d0:	00 00                	add    %al,(%eax)
  1076d2:	1c 10                	sbb    $0x10,%al
  1076d4:	10 10                	adc    %dl,(%eax)
  1076d6:	10 10                	adc    %dl,(%eax)
  1076d8:	10 10                	adc    %dl,(%eax)
  1076da:	10 10                	adc    %dl,(%eax)
  1076dc:	10 10                	adc    %dl,(%eax)
  1076de:	1c 00                	sbb    $0x0,%al
  1076e0:	00 00                	add    %al,(%eax)
  1076e2:	40                   	inc    %eax
  1076e3:	20 20                	and    %ah,(%eax)
  1076e5:	10 10                	adc    %dl,(%eax)
  1076e7:	08 08                	or     %cl,(%eax)
  1076e9:	04 04                	add    $0x4,%al
  1076eb:	02 00                	add    (%eax),%al
  1076ed:	00 00                	add    %al,(%eax)
  1076ef:	00 00                	add    %al,(%eax)
  1076f1:	00 38                	add    %bh,(%eax)
  1076f3:	08 08                	or     %cl,(%eax)
  1076f5:	08 08                	or     %cl,(%eax)
  1076f7:	08 08                	or     %cl,(%eax)
  1076f9:	08 08                	or     %cl,(%eax)
  1076fb:	08 08                	or     %cl,(%eax)
  1076fd:	08 38                	or     %bh,(%eax)
  1076ff:	00 00                	add    %al,(%eax)
  107701:	00 00                	add    %al,(%eax)
  107703:	18 18                	sbb    %bl,(%eax)
  107705:	24 24                	and    $0x24,%al
  107707:	46                   	inc    %esi
  107708:	42                   	inc    %edx
	...
  10771d:	ff 00                	incl   (%eax)
  10771f:	00 00                	add    %al,(%eax)
  107721:	00 10                	add    %dl,(%eax)
  107723:	08 00                	or     %al,(%eax)
	...
  107735:	3c 64                	cmp    $0x64,%al
  107737:	06                   	push   %es
  107738:	3e 46                	ds inc %esi
  10773a:	46                   	inc    %esi
  10773b:	7b 00                	jnp    10773d <font_data+0x61d>
  10773d:	00 00                	add    %al,(%eax)
  10773f:	00 00                	add    %al,(%eax)
  107741:	00 40 40             	add    %al,0x40(%eax)
  107744:	40                   	inc    %eax
  107745:	5c                   	pop    %esp
  107746:	66 62 42 62          	bound  %ax,0x62(%edx)
  10774a:	66 5c                	pop    %sp
	...
  107754:	00 3c 66             	add    %bh,(%esi,%eiz,2)
  107757:	40                   	inc    %eax
  107758:	40                   	inc    %eax
  107759:	40                   	inc    %eax
  10775a:	66 3c 00             	data16 cmp $0x0,%al
  10775d:	00 00                	add    %al,(%eax)
  10775f:	00 00                	add    %al,(%eax)
  107761:	00 02                	add    %al,(%edx)
  107763:	02 02                	add    (%edx),%al
  107765:	3a 66 42             	cmp    0x42(%esi),%ah
  107768:	42                   	inc    %edx
  107769:	46                   	inc    %esi
  10776a:	66 3a 00             	data16 cmp (%eax),%al
	...
  107775:	3c 66                	cmp    $0x66,%al
  107777:	42                   	inc    %edx
  107778:	7e 40                	jle    1077ba <font_data+0x69a>
  10777a:	62 3c 00             	bound  %edi,(%eax,%eax,1)
  10777d:	00 00                	add    %al,(%eax)
  10777f:	00 00                	add    %al,(%eax)
  107781:	00 1e                	add    %bl,(%esi)
  107783:	10 10                	adc    %dl,(%eax)
  107785:	7e 10                	jle    107797 <font_data+0x677>
  107787:	10 10                	adc    %dl,(%eax)
  107789:	10 10                	adc    %dl,(%eax)
  10778b:	10 00                	adc    %al,(%eax)
	...
  107795:	3a 66 46             	cmp    0x46(%esi),%ah
  107798:	42                   	inc    %edx
  107799:	46                   	inc    %esi
  10779a:	66 3a 02             	data16 cmp (%edx),%al
  10779d:	26 3c 00             	es cmp $0x0,%al
  1077a0:	00 00                	add    %al,(%eax)
  1077a2:	40                   	inc    %eax
  1077a3:	40                   	inc    %eax
  1077a4:	40                   	inc    %eax
  1077a5:	5c                   	pop    %esp
  1077a6:	66 42                	inc    %dx
  1077a8:	42                   	inc    %edx
  1077a9:	42                   	inc    %edx
  1077aa:	42                   	inc    %edx
  1077ab:	42                   	inc    %edx
  1077ac:	00 00                	add    %al,(%eax)
  1077ae:	00 00                	add    %al,(%eax)
  1077b0:	00 00                	add    %al,(%eax)
  1077b2:	08 00                	or     %al,(%eax)
  1077b4:	00 78 08             	add    %bh,0x8(%eax)
  1077b7:	08 08                	or     %cl,(%eax)
  1077b9:	08 08                	or     %cl,(%eax)
  1077bb:	7f 00                	jg     1077bd <font_data+0x69d>
  1077bd:	00 00                	add    %al,(%eax)
  1077bf:	00 00                	add    %al,(%eax)
  1077c1:	00 0c 00             	add    %cl,(%eax,%eax,1)
  1077c4:	00 7c 0c 0c          	add    %bh,0xc(%esp,%ecx,1)
  1077c8:	0c 0c                	or     $0xc,%al
  1077ca:	0c 0c                	or     $0xc,%al
  1077cc:	08 08                	or     %cl,(%eax)
  1077ce:	78 00                	js     1077d0 <font_data+0x6b0>
  1077d0:	00 00                	add    %al,(%eax)
  1077d2:	20 20                	and    %ah,(%eax)
  1077d4:	20 26                	and    %ah,(%esi)
  1077d6:	2c 28                	sub    $0x28,%al
  1077d8:	38 28                	cmp    %ch,(%eax)
  1077da:	24 22                	and    $0x22,%al
  1077dc:	00 00                	add    %al,(%eax)
  1077de:	00 00                	add    %al,(%eax)
  1077e0:	00 00                	add    %al,(%eax)
  1077e2:	38 08                	cmp    %cl,(%eax)
  1077e4:	08 08                	or     %cl,(%eax)
  1077e6:	08 08                	or     %cl,(%eax)
  1077e8:	08 08                	or     %cl,(%eax)
  1077ea:	08 7e 00             	or     %bh,0x0(%esi)
	...
  1077f5:	76 5a                	jbe    107851 <font_data+0x731>
  1077f7:	5a                   	pop    %edx
  1077f8:	5a                   	pop    %edx
  1077f9:	5a                   	pop    %edx
  1077fa:	5a                   	pop    %edx
  1077fb:	5a                   	pop    %edx
	...
  107804:	00 5c 66 42          	add    %bl,0x42(%esi,%eiz,2)
  107808:	42                   	inc    %edx
  107809:	42                   	inc    %edx
  10780a:	42                   	inc    %edx
  10780b:	42                   	inc    %edx
	...
  107814:	00 3c 66             	add    %bh,(%esi,%eiz,2)
  107817:	42                   	inc    %edx
  107818:	42                   	inc    %edx
  107819:	42                   	inc    %edx
  10781a:	66 3c 00             	data16 cmp $0x0,%al
	...
  107825:	5c                   	pop    %esp
  107826:	66 62 42 62          	bound  %ax,0x62(%edx)
  10782a:	66 5c                	pop    %sp
  10782c:	40                   	inc    %eax
  10782d:	40                   	inc    %eax
  10782e:	40                   	inc    %eax
  10782f:	00 00                	add    %al,(%eax)
  107831:	00 00                	add    %al,(%eax)
  107833:	00 00                	add    %al,(%eax)
  107835:	3a 66 46             	cmp    0x46(%esi),%ah
  107838:	42                   	inc    %edx
  107839:	46                   	inc    %esi
  10783a:	66 3a 02             	data16 cmp (%edx),%al
  10783d:	02 02                	add    (%edx),%al
  10783f:	00 00                	add    %al,(%eax)
  107841:	00 00                	add    %al,(%eax)
  107843:	00 00                	add    %al,(%eax)
  107845:	2e 30 20             	xor    %ah,%cs:(%eax)
  107848:	20 20                	and    %ah,(%eax)
  10784a:	20 20                	and    %ah,(%eax)
	...
  107854:	00 3c 66             	add    %bh,(%esi,%eiz,2)
  107857:	60                   	pusha  
  107858:	1c 02                	sbb    $0x2,%al
  10785a:	42                   	inc    %edx
  10785b:	3c 00                	cmp    $0x0,%al
  10785d:	00 00                	add    %al,(%eax)
  10785f:	00 00                	add    %al,(%eax)
  107861:	00 00                	add    %al,(%eax)
  107863:	10 30                	adc    %dh,(%eax)
  107865:	7e 30                	jle    107897 <font_data+0x777>
  107867:	30 30                	xor    %dh,(%eax)
  107869:	30 30                	xor    %dh,(%eax)
  10786b:	1e                   	push   %ds
	...
  107874:	00 42 42             	add    %al,0x42(%edx)
  107877:	42                   	inc    %edx
  107878:	42                   	inc    %edx
  107879:	42                   	inc    %edx
  10787a:	66 3a 00             	data16 cmp (%eax),%al
	...
  107885:	42                   	inc    %edx
  107886:	42                   	inc    %edx
  107887:	66 24 24             	data16 and $0x24,%al
  10788a:	18 18                	sbb    %bl,(%eax)
	...
  107894:	00 81 c3 5a 5a 5a    	add    %al,0x5a5a5ac3(%ecx)
  10789a:	66 66 00 00          	data16 data16 add %al,(%eax)
  10789e:	00 00                	add    %al,(%eax)
  1078a0:	00 00                	add    %al,(%eax)
  1078a2:	00 00                	add    %al,(%eax)
  1078a4:	00 46 24             	add    %al,0x24(%esi)
  1078a7:	18 18                	sbb    %bl,(%eax)
  1078a9:	38 24 42             	cmp    %ah,(%edx,%eax,2)
	...
  1078b4:	00 42 42             	add    %al,0x42(%edx)
  1078b7:	26 24 34             	es and $0x34,%al
  1078ba:	18 18                	sbb    %bl,(%eax)
  1078bc:	10 10                	adc    %dl,(%eax)
  1078be:	60                   	pusha  
  1078bf:	00 00                	add    %al,(%eax)
  1078c1:	00 00                	add    %al,(%eax)
  1078c3:	00 00                	add    %al,(%eax)
  1078c5:	7e 04                	jle    1078cb <font_data+0x7ab>
  1078c7:	08 18                	or     %bl,(%eax)
  1078c9:	30 60 7e             	xor    %ah,0x7e(%eax)
  1078cc:	00 00                	add    %al,(%eax)
  1078ce:	00 00                	add    %al,(%eax)
  1078d0:	00 00                	add    %al,(%eax)
  1078d2:	0e                   	push   %cs
  1078d3:	18 10                	sbb    %dl,(%eax)
  1078d5:	10 10                	adc    %dl,(%eax)
  1078d7:	10 60 10             	adc    %ah,0x10(%eax)
  1078da:	10 10                	adc    %dl,(%eax)
  1078dc:	10 18                	adc    %bl,(%eax)
  1078de:	0e                   	push   %cs
  1078df:	00 00                	add    %al,(%eax)
  1078e1:	00 18                	add    %bl,(%eax)
  1078e3:	18 18                	sbb    %bl,(%eax)
  1078e5:	18 18                	sbb    %bl,(%eax)
  1078e7:	18 18                	sbb    %bl,(%eax)
  1078e9:	18 18                	sbb    %bl,(%eax)
  1078eb:	18 18                	sbb    %bl,(%eax)
  1078ed:	18 18                	sbb    %bl,(%eax)
  1078ef:	00 00                	add    %al,(%eax)
  1078f1:	00 70 18             	add    %dh,0x18(%eax)
  1078f4:	08 08                	or     %cl,(%eax)
  1078f6:	08 08                	or     %cl,(%eax)
  1078f8:	06                   	push   %es
  1078f9:	08 08                	or     %cl,(%eax)
  1078fb:	08 08                	or     %cl,(%eax)
  1078fd:	18 70 00             	sbb    %dh,0x0(%eax)
  107900:	00 00                	add    %al,(%eax)
  107902:	00 00                	add    %al,(%eax)
  107904:	00 00                	add    %al,(%eax)
  107906:	70 0e                	jo     107916 <font_data+0x7f6>
	...
  107914:	00 00                	add    %al,(%eax)
  107916:	00 7c 44 44          	add    %bh,0x44(%esp,%eax,2)
  10791a:	44                   	inc    %esp
  10791b:	7c 00                	jl     10791d <font_data+0x7fd>
	...
  107925:	00 00                	add    %al,(%eax)
  107927:	7c 44                	jl     10796d <font_data+0x84d>
  107929:	44                   	inc    %esp
  10792a:	44                   	inc    %esp
  10792b:	7c 00                	jl     10792d <font_data+0x80d>
	...
  107935:	00 00                	add    %al,(%eax)
  107937:	7c 44                	jl     10797d <font_data+0x85d>
  107939:	44                   	inc    %esp
  10793a:	44                   	inc    %esp
  10793b:	7c 00                	jl     10793d <font_data+0x81d>
	...
  107945:	00 00                	add    %al,(%eax)
  107947:	7c 44                	jl     10798d <font_data+0x86d>
  107949:	44                   	inc    %esp
  10794a:	44                   	inc    %esp
  10794b:	7c 00                	jl     10794d <font_data+0x82d>
	...
  107955:	00 00                	add    %al,(%eax)
  107957:	7c 44                	jl     10799d <font_data+0x87d>
  107959:	44                   	inc    %esp
  10795a:	44                   	inc    %esp
  10795b:	7c 00                	jl     10795d <font_data+0x83d>
	...
  107965:	00 00                	add    %al,(%eax)
  107967:	7c 44                	jl     1079ad <font_data+0x88d>
  107969:	44                   	inc    %esp
  10796a:	44                   	inc    %esp
  10796b:	7c 00                	jl     10796d <font_data+0x84d>
	...
  107975:	00 00                	add    %al,(%eax)
  107977:	7c 44                	jl     1079bd <font_data+0x89d>
  107979:	44                   	inc    %esp
  10797a:	44                   	inc    %esp
  10797b:	7c 00                	jl     10797d <font_data+0x85d>
	...
  107985:	00 00                	add    %al,(%eax)
  107987:	7c 44                	jl     1079cd <font_data+0x8ad>
  107989:	44                   	inc    %esp
  10798a:	44                   	inc    %esp
  10798b:	7c 00                	jl     10798d <font_data+0x86d>
	...
  107995:	00 00                	add    %al,(%eax)
  107997:	7c 44                	jl     1079dd <font_data+0x8bd>
  107999:	44                   	inc    %esp
  10799a:	44                   	inc    %esp
  10799b:	7c 00                	jl     10799d <font_data+0x87d>
	...
  1079a5:	00 00                	add    %al,(%eax)
  1079a7:	7c 44                	jl     1079ed <font_data+0x8cd>
  1079a9:	44                   	inc    %esp
  1079aa:	44                   	inc    %esp
  1079ab:	7c 00                	jl     1079ad <font_data+0x88d>
	...
  1079b5:	00 00                	add    %al,(%eax)
  1079b7:	7c 44                	jl     1079fd <font_data+0x8dd>
  1079b9:	44                   	inc    %esp
  1079ba:	44                   	inc    %esp
  1079bb:	7c 00                	jl     1079bd <font_data+0x89d>
	...
  1079c5:	00 00                	add    %al,(%eax)
  1079c7:	7c 44                	jl     107a0d <font_data+0x8ed>
  1079c9:	44                   	inc    %esp
  1079ca:	44                   	inc    %esp
  1079cb:	7c 00                	jl     1079cd <font_data+0x8ad>
	...
  1079d5:	00 00                	add    %al,(%eax)
  1079d7:	7c 44                	jl     107a1d <font_data+0x8fd>
  1079d9:	44                   	inc    %esp
  1079da:	44                   	inc    %esp
  1079db:	7c 00                	jl     1079dd <font_data+0x8bd>
	...
  1079e5:	00 00                	add    %al,(%eax)
  1079e7:	7c 44                	jl     107a2d <font_data+0x90d>
  1079e9:	44                   	inc    %esp
  1079ea:	44                   	inc    %esp
  1079eb:	7c 00                	jl     1079ed <font_data+0x8cd>
	...
  1079f5:	00 00                	add    %al,(%eax)
  1079f7:	7c 44                	jl     107a3d <font_data+0x91d>
  1079f9:	44                   	inc    %esp
  1079fa:	44                   	inc    %esp
  1079fb:	7c 00                	jl     1079fd <font_data+0x8dd>
	...
  107a05:	00 00                	add    %al,(%eax)
  107a07:	7c 44                	jl     107a4d <font_data+0x92d>
  107a09:	44                   	inc    %esp
  107a0a:	44                   	inc    %esp
  107a0b:	7c 00                	jl     107a0d <font_data+0x8ed>
	...
  107a15:	00 00                	add    %al,(%eax)
  107a17:	7c 44                	jl     107a5d <font_data+0x93d>
  107a19:	44                   	inc    %esp
  107a1a:	44                   	inc    %esp
  107a1b:	7c 00                	jl     107a1d <font_data+0x8fd>
	...
  107a25:	00 00                	add    %al,(%eax)
  107a27:	7c 44                	jl     107a6d <font_data+0x94d>
  107a29:	44                   	inc    %esp
  107a2a:	44                   	inc    %esp
  107a2b:	7c 00                	jl     107a2d <font_data+0x90d>
	...
  107a35:	00 00                	add    %al,(%eax)
  107a37:	7c 44                	jl     107a7d <font_data+0x95d>
  107a39:	44                   	inc    %esp
  107a3a:	44                   	inc    %esp
  107a3b:	7c 00                	jl     107a3d <font_data+0x91d>
	...
  107a45:	00 00                	add    %al,(%eax)
  107a47:	7c 44                	jl     107a8d <font_data+0x96d>
  107a49:	44                   	inc    %esp
  107a4a:	44                   	inc    %esp
  107a4b:	7c 00                	jl     107a4d <font_data+0x92d>
	...
  107a55:	00 00                	add    %al,(%eax)
  107a57:	7c 44                	jl     107a9d <font_data+0x97d>
  107a59:	44                   	inc    %esp
  107a5a:	44                   	inc    %esp
  107a5b:	7c 00                	jl     107a5d <font_data+0x93d>
	...
  107a65:	00 00                	add    %al,(%eax)
  107a67:	7c 44                	jl     107aad <font_data+0x98d>
  107a69:	44                   	inc    %esp
  107a6a:	44                   	inc    %esp
  107a6b:	7c 00                	jl     107a6d <font_data+0x94d>
	...
  107a75:	00 00                	add    %al,(%eax)
  107a77:	7c 44                	jl     107abd <font_data+0x99d>
  107a79:	44                   	inc    %esp
  107a7a:	44                   	inc    %esp
  107a7b:	7c 00                	jl     107a7d <font_data+0x95d>
	...
  107a85:	00 00                	add    %al,(%eax)
  107a87:	7c 44                	jl     107acd <font_data+0x9ad>
  107a89:	44                   	inc    %esp
  107a8a:	44                   	inc    %esp
  107a8b:	7c 00                	jl     107a8d <font_data+0x96d>
	...
  107a95:	00 00                	add    %al,(%eax)
  107a97:	7c 44                	jl     107add <font_data+0x9bd>
  107a99:	44                   	inc    %esp
  107a9a:	44                   	inc    %esp
  107a9b:	7c 00                	jl     107a9d <font_data+0x97d>
	...
  107aa5:	00 00                	add    %al,(%eax)
  107aa7:	7c 44                	jl     107aed <font_data+0x9cd>
  107aa9:	44                   	inc    %esp
  107aaa:	44                   	inc    %esp
  107aab:	7c 00                	jl     107aad <font_data+0x98d>
	...
  107ab5:	00 00                	add    %al,(%eax)
  107ab7:	7c 44                	jl     107afd <font_data+0x9dd>
  107ab9:	44                   	inc    %esp
  107aba:	44                   	inc    %esp
  107abb:	7c 00                	jl     107abd <font_data+0x99d>
	...
  107ac5:	00 00                	add    %al,(%eax)
  107ac7:	7c 44                	jl     107b0d <font_data+0x9ed>
  107ac9:	44                   	inc    %esp
  107aca:	44                   	inc    %esp
  107acb:	7c 00                	jl     107acd <font_data+0x9ad>
	...
  107ad5:	00 00                	add    %al,(%eax)
  107ad7:	7c 44                	jl     107b1d <font_data+0x9fd>
  107ad9:	44                   	inc    %esp
  107ada:	44                   	inc    %esp
  107adb:	7c 00                	jl     107add <font_data+0x9bd>
	...
  107ae5:	00 00                	add    %al,(%eax)
  107ae7:	7c 44                	jl     107b2d <font_data+0xa0d>
  107ae9:	44                   	inc    %esp
  107aea:	44                   	inc    %esp
  107aeb:	7c 00                	jl     107aed <font_data+0x9cd>
	...
  107af5:	00 00                	add    %al,(%eax)
  107af7:	7c 44                	jl     107b3d <font_data+0xa1d>
  107af9:	44                   	inc    %esp
  107afa:	44                   	inc    %esp
  107afb:	7c 00                	jl     107afd <font_data+0x9dd>
	...
  107b05:	00 00                	add    %al,(%eax)
  107b07:	7c 44                	jl     107b4d <font_data+0xa2d>
  107b09:	44                   	inc    %esp
  107b0a:	44                   	inc    %esp
  107b0b:	7c 00                	jl     107b0d <font_data+0x9ed>
	...
  107b15:	00 00                	add    %al,(%eax)
  107b17:	7c 44                	jl     107b5d <font_data+0xa3d>
  107b19:	44                   	inc    %esp
  107b1a:	44                   	inc    %esp
  107b1b:	7c 00                	jl     107b1d <font_data+0x9fd>
	...
  107b31:	00 00                	add    %al,(%eax)
  107b33:	00 7e 24             	add    %bh,0x24(%esi)
  107b36:	42                   	inc    %edx
  107b37:	42                   	inc    %edx
  107b38:	24 7e                	and    $0x7e,%al
	...

00108120 <keyboard_map>:
  108120:	00 1b                	add    %bl,(%ebx)
  108122:	31 32                	xor    %esi,(%edx)
  108124:	33 34 35 36 37 38 39 	xor    0x39383736(,%esi,1),%esi
  10812b:	30 2d 3d 08 09 71    	xor    %ch,0x7109083d
  108131:	77 65                	ja     108198 <keyboard_map+0x78>
  108133:	72 74                	jb     1081a9 <keyboard_map+0x9>
  108135:	79 75                	jns    1081ac <keyboard_map+0xc>
  108137:	69 6f 70 5b 5d 0a 00 	imul   $0xa5d5b,0x70(%edi),%ebp
  10813e:	61                   	popa   
  10813f:	73 64                	jae    1081a5 <keyboard_map+0x5>
  108141:	66 67 68 6a 6b       	addr16 pushw $0x6b6a
  108146:	6c                   	insb   (%dx),%es:(%edi)
  108147:	3b 27                	cmp    (%edi),%esp
  108149:	60                   	pusha  
  10814a:	00 5c 7a 78          	add    %bl,0x78(%edx,%edi,2)
  10814e:	63 76 62             	arpl   %si,0x62(%esi)
  108151:	6e                   	outsb  %ds:(%esi),(%dx)
  108152:	6d                   	insl   (%dx),%es:(%edi)
  108153:	2c 2e                	sub    $0x2e,%al
  108155:	2f                   	das    
  108156:	00 2a                	add    %ch,(%edx)
  108158:	00 20                	add    %ah,(%eax)
	...
  10816a:	2d 00 00 00 2b       	sub    $0x2b000000,%eax
	...

001081a0 <keyboard_map>:
  1081a0:	00 1b                	add    %bl,(%ebx)
  1081a2:	31 32                	xor    %esi,(%edx)
  1081a4:	33 34 35 36 37 38 39 	xor    0x39383736(,%esi,1),%esi
  1081ab:	30 2d 3d 08 09 71    	xor    %ch,0x7109083d
  1081b1:	77 65                	ja     108218 <keyboard_map+0x78>
  1081b3:	72 74                	jb     108229 <keyboard_map+0x9>
  1081b5:	79 75                	jns    10822c <keyboard_map+0xc>
  1081b7:	69 6f 70 5b 5d 0a 00 	imul   $0xa5d5b,0x70(%edi),%ebp
  1081be:	61                   	popa   
  1081bf:	73 64                	jae    108225 <keyboard_map+0x5>
  1081c1:	66 67 68 6a 6b       	addr16 pushw $0x6b6a
  1081c6:	6c                   	insb   (%dx),%es:(%edi)
  1081c7:	3b 27                	cmp    (%edi),%esp
  1081c9:	60                   	pusha  
  1081ca:	00 5c 7a 78          	add    %bl,0x78(%edx,%edi,2)
  1081ce:	63 76 62             	arpl   %si,0x62(%esi)
  1081d1:	6e                   	outsb  %ds:(%esi),(%dx)
  1081d2:	6d                   	insl   (%dx),%es:(%edi)
  1081d3:	2c 2e                	sub    $0x2e,%al
  1081d5:	2f                   	das    
  1081d6:	00 2a                	add    %ch,(%edx)
  1081d8:	00 20                	add    %ah,(%eax)
	...
  1081ea:	2d 00 00 00 2b       	sub    $0x2b000000,%eax
	...

00108220 <keyboard_map>:
  108220:	00 1b                	add    %bl,(%ebx)
  108222:	31 32                	xor    %esi,(%edx)
  108224:	33 34 35 36 37 38 39 	xor    0x39383736(,%esi,1),%esi
  10822b:	30 2d 3d 08 09 71    	xor    %ch,0x7109083d
  108231:	77 65                	ja     108298 <keyboard_map+0x78>
  108233:	72 74                	jb     1082a9 <keyboard_map+0x9>
  108235:	79 75                	jns    1082ac <keyboard_map+0xc>
  108237:	69 6f 70 5b 5d 0a 00 	imul   $0xa5d5b,0x70(%edi),%ebp
  10823e:	61                   	popa   
  10823f:	73 64                	jae    1082a5 <keyboard_map+0x5>
  108241:	66 67 68 6a 6b       	addr16 pushw $0x6b6a
  108246:	6c                   	insb   (%dx),%es:(%edi)
  108247:	3b 27                	cmp    (%edi),%esp
  108249:	60                   	pusha  
  10824a:	00 5c 7a 78          	add    %bl,0x78(%edx,%edi,2)
  10824e:	63 76 62             	arpl   %si,0x62(%esi)
  108251:	6e                   	outsb  %ds:(%esi),(%dx)
  108252:	6d                   	insl   (%dx),%es:(%edi)
  108253:	2c 2e                	sub    $0x2e,%al
  108255:	2f                   	das    
  108256:	00 2a                	add    %ch,(%edx)
  108258:	00 20                	add    %ah,(%eax)
	...
  10826a:	2d 00 00 00 2b       	sub    $0x2b000000,%eax
	...

001082a0 <keyboard_map>:
  1082a0:	00 1b                	add    %bl,(%ebx)
  1082a2:	31 32                	xor    %esi,(%edx)
  1082a4:	33 34 35 36 37 38 39 	xor    0x39383736(,%esi,1),%esi
  1082ab:	30 2d 3d 08 09 71    	xor    %ch,0x7109083d
  1082b1:	77 65                	ja     108318 <keyboard_map+0x78>
  1082b3:	72 74                	jb     108329 <keyboard_map+0x89>
  1082b5:	79 75                	jns    10832c <keyboard_map+0x8c>
  1082b7:	69 6f 70 5b 5d 0a 00 	imul   $0xa5d5b,0x70(%edi),%ebp
  1082be:	61                   	popa   
  1082bf:	73 64                	jae    108325 <keyboard_map+0x85>
  1082c1:	66 67 68 6a 6b       	addr16 pushw $0x6b6a
  1082c6:	6c                   	insb   (%dx),%es:(%edi)
  1082c7:	3b 27                	cmp    (%edi),%esp
  1082c9:	60                   	pusha  
  1082ca:	00 5c 7a 78          	add    %bl,0x78(%edx,%edi,2)
  1082ce:	63 76 62             	arpl   %si,0x62(%esi)
  1082d1:	6e                   	outsb  %ds:(%esi),(%dx)
  1082d2:	6d                   	insl   (%dx),%es:(%edi)
  1082d3:	2c 2e                	sub    $0x2e,%al
  1082d5:	2f                   	das    
  1082d6:	00 2a                	add    %ch,(%edx)
  1082d8:	00 20                	add    %ah,(%eax)
	...
  1082ea:	2d 00 00 00 2b       	sub    $0x2b000000,%eax
	...

Disassembly of section .got.plt:

00109000 <_GLOBAL_OFFSET_TABLE_>:
	...

Disassembly of section .data.rel.local:

00109020 <exception_messages>:
  109020:	90                   	nop
  109021:	53                   	push   %ebx
  109022:	10 00                	adc    %al,(%eax)
  109024:	a1 53 10 00 a7       	mov    0xa7001053,%eax
  109029:	53                   	push   %ebx
  10902a:	10 00                	adc    %al,(%eax)
  10902c:	be 53 10 00 c9       	mov    $0xc9001053,%esi
  109031:	53                   	push   %ebx
  109032:	10 00                	adc    %al,(%eax)
  109034:	d2 53 10             	rclb   %cl,0x10(%ebx)
  109037:	00 e7                	add    %ah,%bh
  109039:	53                   	push   %ebx
  10903a:	10 00                	adc    %al,(%eax)
  10903c:	f8                   	clc    
  10903d:	53                   	push   %ebx
  10903e:	10 00                	adc    %al,(%eax)
  109040:	23 54 10 00          	and    0x0(%eax,%edx,1),%edx
  109044:	30 54 10 00          	xor    %dl,0x0(%eax,%edx,1)
  109048:	4c                   	dec    %esp
  109049:	54                   	push   %esp
  10904a:	10 00                	adc    %al,(%eax)
  10904c:	58                   	pop    %eax
  10904d:	54                   	push   %esp
  10904e:	10 00                	adc    %al,(%eax)
  109050:	6c                   	insb   (%dx),%es:(%edi)
  109051:	54                   	push   %esp
  109052:	10 00                	adc    %al,(%eax)
  109054:	80 54 10 00 93       	adcb   $0x93,0x0(%eax,%edx,1)
  109059:	54                   	push   %esp
  10905a:	10 00                	adc    %al,(%eax)
  10905c:	a0 54 10 00 c4       	mov    0xc4001054,%al
  109061:	54                   	push   %esp
  109062:	10 00                	adc    %al,(%eax)
  109064:	ee                   	out    %al,(%dx)
  109065:	54                   	push   %esp
  109066:	10 00                	adc    %al,(%eax)
  109068:	fe                   	(bad)  
  109069:	54                   	push   %esp
  10906a:	10 00                	adc    %al,(%eax)
  10906c:	0c 55                	or     $0x55,%al
  10906e:	10 00                	adc    %al,(%eax)
  109070:	2a 55 10             	sub    0x10(%ebp),%dl
  109073:	00 43 55             	add    %al,0x55(%ebx)
  109076:	10 00                	adc    %al,(%eax)
  109078:	43                   	inc    %ebx
  109079:	55                   	push   %ebp
  10907a:	10 00                	adc    %al,(%eax)
  10907c:	43                   	inc    %ebx
  10907d:	55                   	push   %ebp
  10907e:	10 00                	adc    %al,(%eax)
  109080:	43                   	inc    %ebx
  109081:	55                   	push   %ebp
  109082:	10 00                	adc    %al,(%eax)
  109084:	43                   	inc    %ebx
  109085:	55                   	push   %ebp
  109086:	10 00                	adc    %al,(%eax)
  109088:	43                   	inc    %ebx
  109089:	55                   	push   %ebp
  10908a:	10 00                	adc    %al,(%eax)
  10908c:	43                   	inc    %ebx
  10908d:	55                   	push   %ebp
  10908e:	10 00                	adc    %al,(%eax)
  109090:	43                   	inc    %ebx
  109091:	55                   	push   %ebp
  109092:	10 00                	adc    %al,(%eax)
  109094:	43                   	inc    %ebx
  109095:	55                   	push   %ebp
  109096:	10 00                	adc    %al,(%eax)
  109098:	43                   	inc    %ebx
  109099:	55                   	push   %ebp
  10909a:	10 00                	adc    %al,(%eax)
  10909c:	43                   	inc    %ebx
  10909d:	55                   	push   %ebp
  10909e:	10 00                	adc    %al,(%eax)

Disassembly of section .data.rel.ro.local:

001090a0 <SYSCALLS>:
	...
  1090ac:	20 1e                	and    %bl,(%esi)
  1090ae:	10 00                	adc    %al,(%eax)
  1090b0:	34 1e                	xor    $0x1e,%al
  1090b2:	10 00                	adc    %al,(%eax)
	...

Disassembly of section .bss:

001095c0 <VGA_CURSOR>:
  1095c0:	00 00                	add    %al,(%eax)
	...

001095c4 <last.0>:
  1095c4:	00 00                	add    %al,(%eax)
	...

001095c8 <global_print_vec_x>:
  1095c8:	00 00                	add    %al,(%eax)
	...

001095cc <global_print_vec_y>:
  1095cc:	00 00                	add    %al,(%eax)
	...

001095d0 <global_print_fg_r>:
  1095d0:	00 00                	add    %al,(%eax)
	...

001095d4 <global_print_fg_g>:
  1095d4:	00 00                	add    %al,(%eax)
	...

001095d8 <global_print_fg_b>:
  1095d8:	00 00                	add    %al,(%eax)
	...

001095dc <global_print_bg_r>:
  1095dc:	00 00                	add    %al,(%eax)
	...

001095e0 <global_print_bg_g>:
  1095e0:	00 00                	add    %al,(%eax)
	...

001095e4 <global_print_bg_b>:
  1095e4:	00 00                	add    %al,(%eax)
	...

001095e8 <global_addr>:
	...

00109600 <__interrupt_handlers>:
	...

00109a00 <__idt_descriptors>:
	...

0010a200 <__idt>:
	...

0010a220 <__gdt_descriptors>:
	...

0010a260 <__gdt>:
	...

0010a268 <__pmm_mem_info>:
	...

0010a27c <__kmem_global_start>:
  10a27c:	00 00                	add    %al,(%eax)
	...

0010a280 <__kmem_global_end>:
  10a280:	00 00                	add    %al,(%eax)
	...

0010a284 <__kmem_global_total_size>:
  10a284:	00 00                	add    %al,(%eax)
	...

0010a288 <__kmem_global_used_size>:
  10a288:	00 00                	add    %al,(%eax)
	...

0010a28c <__kmem_global_head>:
  10a28c:	00 00                	add    %al,(%eax)
	...

0010a290 <__keyboard_shift_pressed>:
  10a290:	00 00                	add    %al,(%eax)
	...

0010a294 <__keyboard_caps_lock>:
  10a294:	00 00                	add    %al,(%eax)
	...

0010a298 <__keyboard_current_char>:
	...

0010a299 <__keyboard_current_sc>:
  10a299:	00 00                	add    %al,(%eax)
	...

0010a29c <mouse_cycle>:
	...

0010a29d <mouse_byte>:
  10a29d:	00 00                	add    %al,(%eax)
	...

0010a2a0 <mouse_x>:
  10a2a0:	00 00                	add    %al,(%eax)
	...

0010a2a4 <mouse_y>:
  10a2a4:	00 00                	add    %al,(%eax)
	...

0010a2a8 <__vfs>:
	...

Disassembly of section .initial_stack,:

0010b000 <stack_bottom>:
	...

Disassembly of section .comment:

00000000 <.comment>:
   0:	47                   	inc    %edi
   1:	43                   	inc    %ebx
   2:	43                   	inc    %ebx
   3:	3a 20                	cmp    (%eax),%ah
   5:	28 44 65 62          	sub    %al,0x62(%ebp,%eiz,2)
   9:	69 61 6e 20 31 30 2e 	imul   $0x2e303120,0x6e(%ecx),%esp
  10:	32 2e                	xor    (%esi),%ch
  12:	31 2d 36 29 20 31    	xor    %ebp,0x31202936
  18:	30 2e                	xor    %ch,(%esi)
  1a:	32 2e                	xor    (%esi),%ch
  1c:	31 20                	xor    %esp,(%eax)
  1e:	32 30                	xor    (%eax),%dh
  20:	32 31                	xor    (%ecx),%dh
  22:	30 31                	xor    %dh,(%ecx)
  24:	31 30                	xor    %esi,(%eax)
	...
